
inclinometer-firmware.elf:     file format elf32-littlearm

Sections:
Idx Name          Size      VMA       LMA       File off  Algn
  0 .isr_vector   000001d8  08000000  08000000  00001000  2**0
                  CONTENTS, ALLOC, LOAD, READONLY, DATA
  1 .text         000096d8  080001d8  080001d8  000011d8  2**3
                  CONTENTS, ALLOC, LOAD, READONLY, CODE
  2 .rodata       00000418  080098b0  080098b0  0000a8b0  2**2
                  CONTENTS, ALLOC, LOAD, READONLY, DATA
  3 .ARM.extab    00000000  08009cc8  08009cc8  0000b060  2**0
                  CONTENTS, READONLY
  4 .ARM          00000000  08009cc8  08009cc8  0000b060  2**0
                  CONTENTS, READONLY
  5 .preinit_array 00000000  08009cc8  08009cc8  0000b060  2**0
                  CONTENTS, ALLOC, LOAD, DATA
  6 .init_array   00000004  08009cc8  08009cc8  0000acc8  2**2
                  CONTENTS, ALLOC, LOAD, READONLY, DATA
  7 .fini_array   00000004  08009ccc  08009ccc  0000accc  2**2
                  CONTENTS, ALLOC, LOAD, READONLY, DATA
  8 .data         00000060  20000000  08009cd0  0000b000  2**2
                  CONTENTS, ALLOC, LOAD, DATA
  9 .bss          00000d0c  20000060  08009d30  0000b060  2**2
                  ALLOC
 10 ._user_heap_stack 00000604  20000d6c  08009d30  0000bd6c  2**0
                  ALLOC
 11 .ARM.attributes 00000030  00000000  00000000  0000b060  2**0
                  CONTENTS, READONLY
 12 .debug_info   000179df  00000000  00000000  0000b090  2**0
                  CONTENTS, READONLY, DEBUGGING, OCTETS
 13 .debug_abbrev 0000304e  00000000  00000000  00022a6f  2**0
                  CONTENTS, READONLY, DEBUGGING, OCTETS
 14 .debug_aranges 00001810  00000000  00000000  00025ac0  2**3
                  CONTENTS, READONLY, DEBUGGING, OCTETS
 15 .debug_rnglists 000012bf  00000000  00000000  000272d0  2**0
                  CONTENTS, READONLY, DEBUGGING, OCTETS
 16 .debug_macro  00020be9  00000000  00000000  0002858f  2**0
                  CONTENTS, READONLY, DEBUGGING, OCTETS
 17 .debug_line   0001a374  00000000  00000000  00049178  2**0
                  CONTENTS, READONLY, DEBUGGING, OCTETS
 18 .debug_str    000dbbb7  00000000  00000000  000634ec  2**0
                  CONTENTS, READONLY, DEBUGGING, OCTETS
 19 .comment      00000043  00000000  00000000  0013f0a3  2**0
                  CONTENTS, READONLY
 20 .debug_frame  00006ef8  00000000  00000000  0013f0e8  2**2
                  CONTENTS, READONLY, DEBUGGING, OCTETS
 21 .debug_line_str 0000006b  00000000  00000000  00145fe0  2**0
                  CONTENTS, READONLY, DEBUGGING, OCTETS

Disassembly of section .text:

080001d8 <__do_global_dtors_aux>:
 80001d8:	b510      	push	{r4, lr}
 80001da:	4c05      	ldr	r4, [pc, #20]	@ (80001f0 <__do_global_dtors_aux+0x18>)
 80001dc:	7823      	ldrb	r3, [r4, #0]
 80001de:	b933      	cbnz	r3, 80001ee <__do_global_dtors_aux+0x16>
 80001e0:	4b04      	ldr	r3, [pc, #16]	@ (80001f4 <__do_global_dtors_aux+0x1c>)
 80001e2:	b113      	cbz	r3, 80001ea <__do_global_dtors_aux+0x12>
 80001e4:	4804      	ldr	r0, [pc, #16]	@ (80001f8 <__do_global_dtors_aux+0x20>)
 80001e6:	f3af 8000 	nop.w
 80001ea:	2301      	movs	r3, #1
 80001ec:	7023      	strb	r3, [r4, #0]
 80001ee:	bd10      	pop	{r4, pc}
 80001f0:	20000060 	.word	0x20000060
 80001f4:	00000000 	.word	0x00000000
 80001f8:	08009898 	.word	0x08009898

080001fc <frame_dummy>:
 80001fc:	b508      	push	{r3, lr}
 80001fe:	4b03      	ldr	r3, [pc, #12]	@ (800020c <frame_dummy+0x10>)
 8000200:	b11b      	cbz	r3, 800020a <frame_dummy+0xe>
 8000202:	4903      	ldr	r1, [pc, #12]	@ (8000210 <frame_dummy+0x14>)
 8000204:	4803      	ldr	r0, [pc, #12]	@ (8000214 <frame_dummy+0x18>)
 8000206:	f3af 8000 	nop.w
 800020a:	bd08      	pop	{r3, pc}
 800020c:	00000000 	.word	0x00000000
 8000210:	20000064 	.word	0x20000064
 8000214:	08009898 	.word	0x08009898

08000218 <__aeabi_drsub>:
 8000218:	f081 4100 	eor.w	r1, r1, #2147483648	@ 0x80000000
 800021c:	e002      	b.n	8000224 <__adddf3>
 800021e:	bf00      	nop

08000220 <__aeabi_dsub>:
 8000220:	f083 4300 	eor.w	r3, r3, #2147483648	@ 0x80000000

08000224 <__adddf3>:
 8000224:	b530      	push	{r4, r5, lr}
 8000226:	ea4f 0441 	mov.w	r4, r1, lsl #1
 800022a:	ea4f 0543 	mov.w	r5, r3, lsl #1
 800022e:	ea94 0f05 	teq	r4, r5
 8000232:	bf08      	it	eq
 8000234:	ea90 0f02 	teqeq	r0, r2
 8000238:	bf1f      	itttt	ne
 800023a:	ea54 0c00 	orrsne.w	ip, r4, r0
 800023e:	ea55 0c02 	orrsne.w	ip, r5, r2
 8000242:	ea7f 5c64 	mvnsne.w	ip, r4, asr #21
 8000246:	ea7f 5c65 	mvnsne.w	ip, r5, asr #21
 800024a:	f000 80e2 	beq.w	8000412 <__adddf3+0x1ee>
 800024e:	ea4f 5454 	mov.w	r4, r4, lsr #21
 8000252:	ebd4 5555 	rsbs	r5, r4, r5, lsr #21
 8000256:	bfb8      	it	lt
 8000258:	426d      	neglt	r5, r5
 800025a:	dd0c      	ble.n	8000276 <__adddf3+0x52>
 800025c:	442c      	add	r4, r5
 800025e:	ea80 0202 	eor.w	r2, r0, r2
 8000262:	ea81 0303 	eor.w	r3, r1, r3
 8000266:	ea82 0000 	eor.w	r0, r2, r0
 800026a:	ea83 0101 	eor.w	r1, r3, r1
 800026e:	ea80 0202 	eor.w	r2, r0, r2
 8000272:	ea81 0303 	eor.w	r3, r1, r3
 8000276:	2d36      	cmp	r5, #54	@ 0x36
 8000278:	bf88      	it	hi
 800027a:	bd30      	pophi	{r4, r5, pc}
 800027c:	f011 4f00 	tst.w	r1, #2147483648	@ 0x80000000
 8000280:	ea4f 3101 	mov.w	r1, r1, lsl #12
 8000284:	f44f 1c80 	mov.w	ip, #1048576	@ 0x100000
 8000288:	ea4c 3111 	orr.w	r1, ip, r1, lsr #12
 800028c:	d002      	beq.n	8000294 <__adddf3+0x70>
 800028e:	4240      	negs	r0, r0
 8000290:	eb61 0141 	sbc.w	r1, r1, r1, lsl #1
 8000294:	f013 4f00 	tst.w	r3, #2147483648	@ 0x80000000
 8000298:	ea4f 3303 	mov.w	r3, r3, lsl #12
 800029c:	ea4c 3313 	orr.w	r3, ip, r3, lsr #12
 80002a0:	d002      	beq.n	80002a8 <__adddf3+0x84>
 80002a2:	4252      	negs	r2, r2
 80002a4:	eb63 0343 	sbc.w	r3, r3, r3, lsl #1
 80002a8:	ea94 0f05 	teq	r4, r5
 80002ac:	f000 80a7 	beq.w	80003fe <__adddf3+0x1da>
 80002b0:	f1a4 0401 	sub.w	r4, r4, #1
 80002b4:	f1d5 0e20 	rsbs	lr, r5, #32
 80002b8:	db0d      	blt.n	80002d6 <__adddf3+0xb2>
 80002ba:	fa02 fc0e 	lsl.w	ip, r2, lr
 80002be:	fa22 f205 	lsr.w	r2, r2, r5
 80002c2:	1880      	adds	r0, r0, r2
 80002c4:	f141 0100 	adc.w	r1, r1, #0
 80002c8:	fa03 f20e 	lsl.w	r2, r3, lr
 80002cc:	1880      	adds	r0, r0, r2
 80002ce:	fa43 f305 	asr.w	r3, r3, r5
 80002d2:	4159      	adcs	r1, r3
 80002d4:	e00e      	b.n	80002f4 <__adddf3+0xd0>
 80002d6:	f1a5 0520 	sub.w	r5, r5, #32
 80002da:	f10e 0e20 	add.w	lr, lr, #32
 80002de:	2a01      	cmp	r2, #1
 80002e0:	fa03 fc0e 	lsl.w	ip, r3, lr
 80002e4:	bf28      	it	cs
 80002e6:	f04c 0c02 	orrcs.w	ip, ip, #2
 80002ea:	fa43 f305 	asr.w	r3, r3, r5
 80002ee:	18c0      	adds	r0, r0, r3
 80002f0:	eb51 71e3 	adcs.w	r1, r1, r3, asr #31
 80002f4:	f001 4500 	and.w	r5, r1, #2147483648	@ 0x80000000
 80002f8:	d507      	bpl.n	800030a <__adddf3+0xe6>
 80002fa:	f04f 0e00 	mov.w	lr, #0
 80002fe:	f1dc 0c00 	rsbs	ip, ip, #0
 8000302:	eb7e 0000 	sbcs.w	r0, lr, r0
 8000306:	eb6e 0101 	sbc.w	r1, lr, r1
 800030a:	f5b1 1f80 	cmp.w	r1, #1048576	@ 0x100000
 800030e:	d31b      	bcc.n	8000348 <__adddf3+0x124>
 8000310:	f5b1 1f00 	cmp.w	r1, #2097152	@ 0x200000
 8000314:	d30c      	bcc.n	8000330 <__adddf3+0x10c>
 8000316:	0849      	lsrs	r1, r1, #1
 8000318:	ea5f 0030 	movs.w	r0, r0, rrx
 800031c:	ea4f 0c3c 	mov.w	ip, ip, rrx
 8000320:	f104 0401 	add.w	r4, r4, #1
 8000324:	ea4f 5244 	mov.w	r2, r4, lsl #21
 8000328:	f512 0f80 	cmn.w	r2, #4194304	@ 0x400000
 800032c:	f080 809a 	bcs.w	8000464 <__adddf3+0x240>
 8000330:	f1bc 4f00 	cmp.w	ip, #2147483648	@ 0x80000000
 8000334:	bf08      	it	eq
 8000336:	ea5f 0c50 	movseq.w	ip, r0, lsr #1
 800033a:	f150 0000 	adcs.w	r0, r0, #0
 800033e:	eb41 5104 	adc.w	r1, r1, r4, lsl #20
 8000342:	ea41 0105 	orr.w	r1, r1, r5
 8000346:	bd30      	pop	{r4, r5, pc}
 8000348:	ea5f 0c4c 	movs.w	ip, ip, lsl #1
 800034c:	4140      	adcs	r0, r0
 800034e:	eb41 0101 	adc.w	r1, r1, r1
 8000352:	3c01      	subs	r4, #1
 8000354:	bf28      	it	cs
 8000356:	f5b1 1f80 	cmpcs.w	r1, #1048576	@ 0x100000
 800035a:	d2e9      	bcs.n	8000330 <__adddf3+0x10c>
 800035c:	f091 0f00 	teq	r1, #0
 8000360:	bf04      	itt	eq
 8000362:	4601      	moveq	r1, r0
 8000364:	2000      	moveq	r0, #0
 8000366:	fab1 f381 	clz	r3, r1
 800036a:	bf08      	it	eq
 800036c:	3320      	addeq	r3, #32
 800036e:	f1a3 030b 	sub.w	r3, r3, #11
 8000372:	f1b3 0220 	subs.w	r2, r3, #32
 8000376:	da0c      	bge.n	8000392 <__adddf3+0x16e>
 8000378:	320c      	adds	r2, #12
 800037a:	dd08      	ble.n	800038e <__adddf3+0x16a>
 800037c:	f102 0c14 	add.w	ip, r2, #20
 8000380:	f1c2 020c 	rsb	r2, r2, #12
 8000384:	fa01 f00c 	lsl.w	r0, r1, ip
 8000388:	fa21 f102 	lsr.w	r1, r1, r2
 800038c:	e00c      	b.n	80003a8 <__adddf3+0x184>
 800038e:	f102 0214 	add.w	r2, r2, #20
 8000392:	bfd8      	it	le
 8000394:	f1c2 0c20 	rsble	ip, r2, #32
 8000398:	fa01 f102 	lsl.w	r1, r1, r2
 800039c:	fa20 fc0c 	lsr.w	ip, r0, ip
 80003a0:	bfdc      	itt	le
 80003a2:	ea41 010c 	orrle.w	r1, r1, ip
 80003a6:	4090      	lslle	r0, r2
 80003a8:	1ae4      	subs	r4, r4, r3
 80003aa:	bfa2      	ittt	ge
 80003ac:	eb01 5104 	addge.w	r1, r1, r4, lsl #20
 80003b0:	4329      	orrge	r1, r5
 80003b2:	bd30      	popge	{r4, r5, pc}
 80003b4:	ea6f 0404 	mvn.w	r4, r4
 80003b8:	3c1f      	subs	r4, #31
 80003ba:	da1c      	bge.n	80003f6 <__adddf3+0x1d2>
 80003bc:	340c      	adds	r4, #12
 80003be:	dc0e      	bgt.n	80003de <__adddf3+0x1ba>
 80003c0:	f104 0414 	add.w	r4, r4, #20
 80003c4:	f1c4 0220 	rsb	r2, r4, #32
 80003c8:	fa20 f004 	lsr.w	r0, r0, r4
 80003cc:	fa01 f302 	lsl.w	r3, r1, r2
 80003d0:	ea40 0003 	orr.w	r0, r0, r3
 80003d4:	fa21 f304 	lsr.w	r3, r1, r4
 80003d8:	ea45 0103 	orr.w	r1, r5, r3
 80003dc:	bd30      	pop	{r4, r5, pc}
 80003de:	f1c4 040c 	rsb	r4, r4, #12
 80003e2:	f1c4 0220 	rsb	r2, r4, #32
 80003e6:	fa20 f002 	lsr.w	r0, r0, r2
 80003ea:	fa01 f304 	lsl.w	r3, r1, r4
 80003ee:	ea40 0003 	orr.w	r0, r0, r3
 80003f2:	4629      	mov	r1, r5
 80003f4:	bd30      	pop	{r4, r5, pc}
 80003f6:	fa21 f004 	lsr.w	r0, r1, r4
 80003fa:	4629      	mov	r1, r5
 80003fc:	bd30      	pop	{r4, r5, pc}
 80003fe:	f094 0f00 	teq	r4, #0
 8000402:	f483 1380 	eor.w	r3, r3, #1048576	@ 0x100000
 8000406:	bf06      	itte	eq
 8000408:	f481 1180 	eoreq.w	r1, r1, #1048576	@ 0x100000
 800040c:	3401      	addeq	r4, #1
 800040e:	3d01      	subne	r5, #1
 8000410:	e74e      	b.n	80002b0 <__adddf3+0x8c>
 8000412:	ea7f 5c64 	mvns.w	ip, r4, asr #21
 8000416:	bf18      	it	ne
 8000418:	ea7f 5c65 	mvnsne.w	ip, r5, asr #21
 800041c:	d029      	beq.n	8000472 <__adddf3+0x24e>
 800041e:	ea94 0f05 	teq	r4, r5
 8000422:	bf08      	it	eq
 8000424:	ea90 0f02 	teqeq	r0, r2
 8000428:	d005      	beq.n	8000436 <__adddf3+0x212>
 800042a:	ea54 0c00 	orrs.w	ip, r4, r0
 800042e:	bf04      	itt	eq
 8000430:	4619      	moveq	r1, r3
 8000432:	4610      	moveq	r0, r2
 8000434:	bd30      	pop	{r4, r5, pc}
 8000436:	ea91 0f03 	teq	r1, r3
 800043a:	bf1e      	ittt	ne
 800043c:	2100      	movne	r1, #0
 800043e:	2000      	movne	r0, #0
 8000440:	bd30      	popne	{r4, r5, pc}
 8000442:	ea5f 5c54 	movs.w	ip, r4, lsr #21
 8000446:	d105      	bne.n	8000454 <__adddf3+0x230>
 8000448:	0040      	lsls	r0, r0, #1
 800044a:	4149      	adcs	r1, r1
 800044c:	bf28      	it	cs
 800044e:	f041 4100 	orrcs.w	r1, r1, #2147483648	@ 0x80000000
 8000452:	bd30      	pop	{r4, r5, pc}
 8000454:	f514 0480 	adds.w	r4, r4, #4194304	@ 0x400000
 8000458:	bf3c      	itt	cc
 800045a:	f501 1180 	addcc.w	r1, r1, #1048576	@ 0x100000
 800045e:	bd30      	popcc	{r4, r5, pc}
 8000460:	f001 4500 	and.w	r5, r1, #2147483648	@ 0x80000000
 8000464:	f045 41fe 	orr.w	r1, r5, #2130706432	@ 0x7f000000
 8000468:	f441 0170 	orr.w	r1, r1, #15728640	@ 0xf00000
 800046c:	f04f 0000 	mov.w	r0, #0
 8000470:	bd30      	pop	{r4, r5, pc}
 8000472:	ea7f 5c64 	mvns.w	ip, r4, asr #21
 8000476:	bf1a      	itte	ne
 8000478:	4619      	movne	r1, r3
 800047a:	4610      	movne	r0, r2
 800047c:	ea7f 5c65 	mvnseq.w	ip, r5, asr #21
 8000480:	bf1c      	itt	ne
 8000482:	460b      	movne	r3, r1
 8000484:	4602      	movne	r2, r0
 8000486:	ea50 3401 	orrs.w	r4, r0, r1, lsl #12
 800048a:	bf06      	itte	eq
 800048c:	ea52 3503 	orrseq.w	r5, r2, r3, lsl #12
 8000490:	ea91 0f03 	teqeq	r1, r3
 8000494:	f441 2100 	orrne.w	r1, r1, #524288	@ 0x80000
 8000498:	bd30      	pop	{r4, r5, pc}
 800049a:	bf00      	nop

0800049c <__aeabi_ui2d>:
 800049c:	f090 0f00 	teq	r0, #0
 80004a0:	bf04      	itt	eq
 80004a2:	2100      	moveq	r1, #0
 80004a4:	4770      	bxeq	lr
 80004a6:	b530      	push	{r4, r5, lr}
 80004a8:	f44f 6480 	mov.w	r4, #1024	@ 0x400
 80004ac:	f104 0432 	add.w	r4, r4, #50	@ 0x32
 80004b0:	f04f 0500 	mov.w	r5, #0
 80004b4:	f04f 0100 	mov.w	r1, #0
 80004b8:	e750      	b.n	800035c <__adddf3+0x138>
 80004ba:	bf00      	nop

080004bc <__aeabi_i2d>:
 80004bc:	f090 0f00 	teq	r0, #0
 80004c0:	bf04      	itt	eq
 80004c2:	2100      	moveq	r1, #0
 80004c4:	4770      	bxeq	lr
 80004c6:	b530      	push	{r4, r5, lr}
 80004c8:	f44f 6480 	mov.w	r4, #1024	@ 0x400
 80004cc:	f104 0432 	add.w	r4, r4, #50	@ 0x32
 80004d0:	f010 4500 	ands.w	r5, r0, #2147483648	@ 0x80000000
 80004d4:	bf48      	it	mi
 80004d6:	4240      	negmi	r0, r0
 80004d8:	f04f 0100 	mov.w	r1, #0
 80004dc:	e73e      	b.n	800035c <__adddf3+0x138>
 80004de:	bf00      	nop

080004e0 <__aeabi_f2d>:
 80004e0:	0042      	lsls	r2, r0, #1
 80004e2:	ea4f 01e2 	mov.w	r1, r2, asr #3
 80004e6:	ea4f 0131 	mov.w	r1, r1, rrx
 80004ea:	ea4f 7002 	mov.w	r0, r2, lsl #28
 80004ee:	bf1f      	itttt	ne
 80004f0:	f012 437f 	andsne.w	r3, r2, #4278190080	@ 0xff000000
 80004f4:	f093 4f7f 	teqne	r3, #4278190080	@ 0xff000000
 80004f8:	f081 5160 	eorne.w	r1, r1, #939524096	@ 0x38000000
 80004fc:	4770      	bxne	lr
 80004fe:	f032 427f 	bics.w	r2, r2, #4278190080	@ 0xff000000
 8000502:	bf08      	it	eq
 8000504:	4770      	bxeq	lr
 8000506:	f093 4f7f 	teq	r3, #4278190080	@ 0xff000000
 800050a:	bf04      	itt	eq
 800050c:	f441 2100 	orreq.w	r1, r1, #524288	@ 0x80000
 8000510:	4770      	bxeq	lr
 8000512:	b530      	push	{r4, r5, lr}
 8000514:	f44f 7460 	mov.w	r4, #896	@ 0x380
 8000518:	f001 4500 	and.w	r5, r1, #2147483648	@ 0x80000000
 800051c:	f021 4100 	bic.w	r1, r1, #2147483648	@ 0x80000000
 8000520:	e71c      	b.n	800035c <__adddf3+0x138>
 8000522:	bf00      	nop

08000524 <__aeabi_ul2d>:
 8000524:	ea50 0201 	orrs.w	r2, r0, r1
 8000528:	bf08      	it	eq
 800052a:	4770      	bxeq	lr
 800052c:	b530      	push	{r4, r5, lr}
 800052e:	f04f 0500 	mov.w	r5, #0
 8000532:	e00a      	b.n	800054a <__aeabi_l2d+0x16>

08000534 <__aeabi_l2d>:
 8000534:	ea50 0201 	orrs.w	r2, r0, r1
 8000538:	bf08      	it	eq
 800053a:	4770      	bxeq	lr
 800053c:	b530      	push	{r4, r5, lr}
 800053e:	f011 4500 	ands.w	r5, r1, #2147483648	@ 0x80000000
 8000542:	d502      	bpl.n	800054a <__aeabi_l2d+0x16>
 8000544:	4240      	negs	r0, r0
 8000546:	eb61 0141 	sbc.w	r1, r1, r1, lsl #1
 800054a:	f44f 6480 	mov.w	r4, #1024	@ 0x400
 800054e:	f104 0432 	add.w	r4, r4, #50	@ 0x32
 8000552:	ea5f 5c91 	movs.w	ip, r1, lsr #22
 8000556:	f43f aed8 	beq.w	800030a <__adddf3+0xe6>
 800055a:	f04f 0203 	mov.w	r2, #3
 800055e:	ea5f 0cdc 	movs.w	ip, ip, lsr #3
 8000562:	bf18      	it	ne
 8000564:	3203      	addne	r2, #3
 8000566:	ea5f 0cdc 	movs.w	ip, ip, lsr #3
 800056a:	bf18      	it	ne
 800056c:	3203      	addne	r2, #3
 800056e:	eb02 02dc 	add.w	r2, r2, ip, lsr #3
 8000572:	f1c2 0320 	rsb	r3, r2, #32
 8000576:	fa00 fc03 	lsl.w	ip, r0, r3
 800057a:	fa20 f002 	lsr.w	r0, r0, r2
 800057e:	fa01 fe03 	lsl.w	lr, r1, r3
 8000582:	ea40 000e 	orr.w	r0, r0, lr
 8000586:	fa21 f102 	lsr.w	r1, r1, r2
 800058a:	4414      	add	r4, r2
 800058c:	e6bd      	b.n	800030a <__adddf3+0xe6>
 800058e:	bf00      	nop

08000590 <__aeabi_dmul>:
 8000590:	b570      	push	{r4, r5, r6, lr}
 8000592:	f04f 0cff 	mov.w	ip, #255	@ 0xff
 8000596:	f44c 6ce0 	orr.w	ip, ip, #1792	@ 0x700
 800059a:	ea1c 5411 	ands.w	r4, ip, r1, lsr #20
 800059e:	bf1d      	ittte	ne
 80005a0:	ea1c 5513 	andsne.w	r5, ip, r3, lsr #20
 80005a4:	ea94 0f0c 	teqne	r4, ip
 80005a8:	ea95 0f0c 	teqne	r5, ip
 80005ac:	f000 f8de 	bleq	800076c <__aeabi_dmul+0x1dc>
 80005b0:	442c      	add	r4, r5
 80005b2:	ea81 0603 	eor.w	r6, r1, r3
 80005b6:	ea21 514c 	bic.w	r1, r1, ip, lsl #21
 80005ba:	ea23 534c 	bic.w	r3, r3, ip, lsl #21
 80005be:	ea50 3501 	orrs.w	r5, r0, r1, lsl #12
 80005c2:	bf18      	it	ne
 80005c4:	ea52 3503 	orrsne.w	r5, r2, r3, lsl #12
 80005c8:	f441 1180 	orr.w	r1, r1, #1048576	@ 0x100000
 80005cc:	f443 1380 	orr.w	r3, r3, #1048576	@ 0x100000
 80005d0:	d038      	beq.n	8000644 <__aeabi_dmul+0xb4>
 80005d2:	fba0 ce02 	umull	ip, lr, r0, r2
 80005d6:	f04f 0500 	mov.w	r5, #0
 80005da:	fbe1 e502 	umlal	lr, r5, r1, r2
 80005de:	f006 4200 	and.w	r2, r6, #2147483648	@ 0x80000000
 80005e2:	fbe0 e503 	umlal	lr, r5, r0, r3
 80005e6:	f04f 0600 	mov.w	r6, #0
 80005ea:	fbe1 5603 	umlal	r5, r6, r1, r3
 80005ee:	f09c 0f00 	teq	ip, #0
 80005f2:	bf18      	it	ne
 80005f4:	f04e 0e01 	orrne.w	lr, lr, #1
 80005f8:	f1a4 04ff 	sub.w	r4, r4, #255	@ 0xff
 80005fc:	f5b6 7f00 	cmp.w	r6, #512	@ 0x200
 8000600:	f564 7440 	sbc.w	r4, r4, #768	@ 0x300
 8000604:	d204      	bcs.n	8000610 <__aeabi_dmul+0x80>
 8000606:	ea5f 0e4e 	movs.w	lr, lr, lsl #1
 800060a:	416d      	adcs	r5, r5
 800060c:	eb46 0606 	adc.w	r6, r6, r6
 8000610:	ea42 21c6 	orr.w	r1, r2, r6, lsl #11
 8000614:	ea41 5155 	orr.w	r1, r1, r5, lsr #21
 8000618:	ea4f 20c5 	mov.w	r0, r5, lsl #11
 800061c:	ea40 505e 	orr.w	r0, r0, lr, lsr #21
 8000620:	ea4f 2ece 	mov.w	lr, lr, lsl #11
 8000624:	f1b4 0cfd 	subs.w	ip, r4, #253	@ 0xfd
 8000628:	bf88      	it	hi
 800062a:	f5bc 6fe0 	cmphi.w	ip, #1792	@ 0x700
 800062e:	d81e      	bhi.n	800066e <__aeabi_dmul+0xde>
 8000630:	f1be 4f00 	cmp.w	lr, #2147483648	@ 0x80000000
 8000634:	bf08      	it	eq
 8000636:	ea5f 0e50 	movseq.w	lr, r0, lsr #1
 800063a:	f150 0000 	adcs.w	r0, r0, #0
 800063e:	eb41 5104 	adc.w	r1, r1, r4, lsl #20
 8000642:	bd70      	pop	{r4, r5, r6, pc}
 8000644:	f006 4600 	and.w	r6, r6, #2147483648	@ 0x80000000
 8000648:	ea46 0101 	orr.w	r1, r6, r1
 800064c:	ea40 0002 	orr.w	r0, r0, r2
 8000650:	ea81 0103 	eor.w	r1, r1, r3
 8000654:	ebb4 045c 	subs.w	r4, r4, ip, lsr #1
 8000658:	bfc2      	ittt	gt
 800065a:	ebd4 050c 	rsbsgt	r5, r4, ip
 800065e:	ea41 5104 	orrgt.w	r1, r1, r4, lsl #20
 8000662:	bd70      	popgt	{r4, r5, r6, pc}
 8000664:	f441 1180 	orr.w	r1, r1, #1048576	@ 0x100000
 8000668:	f04f 0e00 	mov.w	lr, #0
 800066c:	3c01      	subs	r4, #1
 800066e:	f300 80ab 	bgt.w	80007c8 <__aeabi_dmul+0x238>
 8000672:	f114 0f36 	cmn.w	r4, #54	@ 0x36
 8000676:	bfde      	ittt	le
 8000678:	2000      	movle	r0, #0
 800067a:	f001 4100 	andle.w	r1, r1, #2147483648	@ 0x80000000
 800067e:	bd70      	pople	{r4, r5, r6, pc}
 8000680:	f1c4 0400 	rsb	r4, r4, #0
 8000684:	3c20      	subs	r4, #32
 8000686:	da35      	bge.n	80006f4 <__aeabi_dmul+0x164>
 8000688:	340c      	adds	r4, #12
 800068a:	dc1b      	bgt.n	80006c4 <__aeabi_dmul+0x134>
 800068c:	f104 0414 	add.w	r4, r4, #20
 8000690:	f1c4 0520 	rsb	r5, r4, #32
 8000694:	fa00 f305 	lsl.w	r3, r0, r5
 8000698:	fa20 f004 	lsr.w	r0, r0, r4
 800069c:	fa01 f205 	lsl.w	r2, r1, r5
 80006a0:	ea40 0002 	orr.w	r0, r0, r2
 80006a4:	f001 4200 	and.w	r2, r1, #2147483648	@ 0x80000000
 80006a8:	f021 4100 	bic.w	r1, r1, #2147483648	@ 0x80000000
 80006ac:	eb10 70d3 	adds.w	r0, r0, r3, lsr #31
 80006b0:	fa21 f604 	lsr.w	r6, r1, r4
 80006b4:	eb42 0106 	adc.w	r1, r2, r6
 80006b8:	ea5e 0e43 	orrs.w	lr, lr, r3, lsl #1
 80006bc:	bf08      	it	eq
 80006be:	ea20 70d3 	biceq.w	r0, r0, r3, lsr #31
 80006c2:	bd70      	pop	{r4, r5, r6, pc}
 80006c4:	f1c4 040c 	rsb	r4, r4, #12
 80006c8:	f1c4 0520 	rsb	r5, r4, #32
 80006cc:	fa00 f304 	lsl.w	r3, r0, r4
 80006d0:	fa20 f005 	lsr.w	r0, r0, r5
 80006d4:	fa01 f204 	lsl.w	r2, r1, r4
 80006d8:	ea40 0002 	orr.w	r0, r0, r2
 80006dc:	f001 4100 	and.w	r1, r1, #2147483648	@ 0x80000000
 80006e0:	eb10 70d3 	adds.w	r0, r0, r3, lsr #31
 80006e4:	f141 0100 	adc.w	r1, r1, #0
 80006e8:	ea5e 0e43 	orrs.w	lr, lr, r3, lsl #1
 80006ec:	bf08      	it	eq
 80006ee:	ea20 70d3 	biceq.w	r0, r0, r3, lsr #31
 80006f2:	bd70      	pop	{r4, r5, r6, pc}
 80006f4:	f1c4 0520 	rsb	r5, r4, #32
 80006f8:	fa00 f205 	lsl.w	r2, r0, r5
 80006fc:	ea4e 0e02 	orr.w	lr, lr, r2
 8000700:	fa20 f304 	lsr.w	r3, r0, r4
 8000704:	fa01 f205 	lsl.w	r2, r1, r5
 8000708:	ea43 0302 	orr.w	r3, r3, r2
 800070c:	fa21 f004 	lsr.w	r0, r1, r4
 8000710:	f001 4100 	and.w	r1, r1, #2147483648	@ 0x80000000
 8000714:	fa21 f204 	lsr.w	r2, r1, r4
 8000718:	ea20 0002 	bic.w	r0, r0, r2
 800071c:	eb00 70d3 	add.w	r0, r0, r3, lsr #31
 8000720:	ea5e 0e43 	orrs.w	lr, lr, r3, lsl #1
 8000724:	bf08      	it	eq
 8000726:	ea20 70d3 	biceq.w	r0, r0, r3, lsr #31
 800072a:	bd70      	pop	{r4, r5, r6, pc}
 800072c:	f094 0f00 	teq	r4, #0
 8000730:	d10f      	bne.n	8000752 <__aeabi_dmul+0x1c2>
 8000732:	f001 4600 	and.w	r6, r1, #2147483648	@ 0x80000000
 8000736:	0040      	lsls	r0, r0, #1
 8000738:	eb41 0101 	adc.w	r1, r1, r1
 800073c:	f411 1f80 	tst.w	r1, #1048576	@ 0x100000
 8000740:	bf08      	it	eq
 8000742:	3c01      	subeq	r4, #1
 8000744:	d0f7      	beq.n	8000736 <__aeabi_dmul+0x1a6>
 8000746:	ea41 0106 	orr.w	r1, r1, r6
 800074a:	f095 0f00 	teq	r5, #0
 800074e:	bf18      	it	ne
 8000750:	4770      	bxne	lr
 8000752:	f003 4600 	and.w	r6, r3, #2147483648	@ 0x80000000
 8000756:	0052      	lsls	r2, r2, #1
 8000758:	eb43 0303 	adc.w	r3, r3, r3
 800075c:	f413 1f80 	tst.w	r3, #1048576	@ 0x100000
 8000760:	bf08      	it	eq
 8000762:	3d01      	subeq	r5, #1
 8000764:	d0f7      	beq.n	8000756 <__aeabi_dmul+0x1c6>
 8000766:	ea43 0306 	orr.w	r3, r3, r6
 800076a:	4770      	bx	lr
 800076c:	ea94 0f0c 	teq	r4, ip
 8000770:	ea0c 5513 	and.w	r5, ip, r3, lsr #20
 8000774:	bf18      	it	ne
 8000776:	ea95 0f0c 	teqne	r5, ip
 800077a:	d00c      	beq.n	8000796 <__aeabi_dmul+0x206>
 800077c:	ea50 0641 	orrs.w	r6, r0, r1, lsl #1
 8000780:	bf18      	it	ne
 8000782:	ea52 0643 	orrsne.w	r6, r2, r3, lsl #1
 8000786:	d1d1      	bne.n	800072c <__aeabi_dmul+0x19c>
 8000788:	ea81 0103 	eor.w	r1, r1, r3
 800078c:	f001 4100 	and.w	r1, r1, #2147483648	@ 0x80000000
 8000790:	f04f 0000 	mov.w	r0, #0
 8000794:	bd70      	pop	{r4, r5, r6, pc}
 8000796:	ea50 0641 	orrs.w	r6, r0, r1, lsl #1
 800079a:	bf06      	itte	eq
 800079c:	4610      	moveq	r0, r2
 800079e:	4619      	moveq	r1, r3
 80007a0:	ea52 0643 	orrsne.w	r6, r2, r3, lsl #1
 80007a4:	d019      	beq.n	80007da <__aeabi_dmul+0x24a>
 80007a6:	ea94 0f0c 	teq	r4, ip
 80007aa:	d102      	bne.n	80007b2 <__aeabi_dmul+0x222>
 80007ac:	ea50 3601 	orrs.w	r6, r0, r1, lsl #12
 80007b0:	d113      	bne.n	80007da <__aeabi_dmul+0x24a>
 80007b2:	ea95 0f0c 	teq	r5, ip
 80007b6:	d105      	bne.n	80007c4 <__aeabi_dmul+0x234>
 80007b8:	ea52 3603 	orrs.w	r6, r2, r3, lsl #12
 80007bc:	bf1c      	itt	ne
 80007be:	4610      	movne	r0, r2
 80007c0:	4619      	movne	r1, r3
 80007c2:	d10a      	bne.n	80007da <__aeabi_dmul+0x24a>
 80007c4:	ea81 0103 	eor.w	r1, r1, r3
 80007c8:	f001 4100 	and.w	r1, r1, #2147483648	@ 0x80000000
 80007cc:	f041 41fe 	orr.w	r1, r1, #2130706432	@ 0x7f000000
 80007d0:	f441 0170 	orr.w	r1, r1, #15728640	@ 0xf00000
 80007d4:	f04f 0000 	mov.w	r0, #0
 80007d8:	bd70      	pop	{r4, r5, r6, pc}
 80007da:	f041 41fe 	orr.w	r1, r1, #2130706432	@ 0x7f000000
 80007de:	f441 0178 	orr.w	r1, r1, #16252928	@ 0xf80000
 80007e2:	bd70      	pop	{r4, r5, r6, pc}

080007e4 <__aeabi_ddiv>:
 80007e4:	b570      	push	{r4, r5, r6, lr}
 80007e6:	f04f 0cff 	mov.w	ip, #255	@ 0xff
 80007ea:	f44c 6ce0 	orr.w	ip, ip, #1792	@ 0x700
 80007ee:	ea1c 5411 	ands.w	r4, ip, r1, lsr #20
 80007f2:	bf1d      	ittte	ne
 80007f4:	ea1c 5513 	andsne.w	r5, ip, r3, lsr #20
 80007f8:	ea94 0f0c 	teqne	r4, ip
 80007fc:	ea95 0f0c 	teqne	r5, ip
 8000800:	f000 f8a7 	bleq	8000952 <__aeabi_ddiv+0x16e>
 8000804:	eba4 0405 	sub.w	r4, r4, r5
 8000808:	ea81 0e03 	eor.w	lr, r1, r3
 800080c:	ea52 3503 	orrs.w	r5, r2, r3, lsl #12
 8000810:	ea4f 3101 	mov.w	r1, r1, lsl #12
 8000814:	f000 8088 	beq.w	8000928 <__aeabi_ddiv+0x144>
 8000818:	ea4f 3303 	mov.w	r3, r3, lsl #12
 800081c:	f04f 5580 	mov.w	r5, #268435456	@ 0x10000000
 8000820:	ea45 1313 	orr.w	r3, r5, r3, lsr #4
 8000824:	ea43 6312 	orr.w	r3, r3, r2, lsr #24
 8000828:	ea4f 2202 	mov.w	r2, r2, lsl #8
 800082c:	ea45 1511 	orr.w	r5, r5, r1, lsr #4
 8000830:	ea45 6510 	orr.w	r5, r5, r0, lsr #24
 8000834:	ea4f 2600 	mov.w	r6, r0, lsl #8
 8000838:	f00e 4100 	and.w	r1, lr, #2147483648	@ 0x80000000
 800083c:	429d      	cmp	r5, r3
 800083e:	bf08      	it	eq
 8000840:	4296      	cmpeq	r6, r2
 8000842:	f144 04fd 	adc.w	r4, r4, #253	@ 0xfd
 8000846:	f504 7440 	add.w	r4, r4, #768	@ 0x300
 800084a:	d202      	bcs.n	8000852 <__aeabi_ddiv+0x6e>
 800084c:	085b      	lsrs	r3, r3, #1
 800084e:	ea4f 0232 	mov.w	r2, r2, rrx
 8000852:	1ab6      	subs	r6, r6, r2
 8000854:	eb65 0503 	sbc.w	r5, r5, r3
 8000858:	085b      	lsrs	r3, r3, #1
 800085a:	ea4f 0232 	mov.w	r2, r2, rrx
 800085e:	f44f 1080 	mov.w	r0, #1048576	@ 0x100000
 8000862:	f44f 2c00 	mov.w	ip, #524288	@ 0x80000
 8000866:	ebb6 0e02 	subs.w	lr, r6, r2
 800086a:	eb75 0e03 	sbcs.w	lr, r5, r3
 800086e:	bf22      	ittt	cs
 8000870:	1ab6      	subcs	r6, r6, r2
 8000872:	4675      	movcs	r5, lr
 8000874:	ea40 000c 	orrcs.w	r0, r0, ip
 8000878:	085b      	lsrs	r3, r3, #1
 800087a:	ea4f 0232 	mov.w	r2, r2, rrx
 800087e:	ebb6 0e02 	subs.w	lr, r6, r2
 8000882:	eb75 0e03 	sbcs.w	lr, r5, r3
 8000886:	bf22      	ittt	cs
 8000888:	1ab6      	subcs	r6, r6, r2
 800088a:	4675      	movcs	r5, lr
 800088c:	ea40 005c 	orrcs.w	r0, r0, ip, lsr #1
 8000890:	085b      	lsrs	r3, r3, #1
 8000892:	ea4f 0232 	mov.w	r2, r2, rrx
 8000896:	ebb6 0e02 	subs.w	lr, r6, r2
 800089a:	eb75 0e03 	sbcs.w	lr, r5, r3
 800089e:	bf22      	ittt	cs
 80008a0:	1ab6      	subcs	r6, r6, r2
 80008a2:	4675      	movcs	r5, lr
 80008a4:	ea40 009c 	orrcs.w	r0, r0, ip, lsr #2
 80008a8:	085b      	lsrs	r3, r3, #1
 80008aa:	ea4f 0232 	mov.w	r2, r2, rrx
 80008ae:	ebb6 0e02 	subs.w	lr, r6, r2
 80008b2:	eb75 0e03 	sbcs.w	lr, r5, r3
 80008b6:	bf22      	ittt	cs
 80008b8:	1ab6      	subcs	r6, r6, r2
 80008ba:	4675      	movcs	r5, lr
 80008bc:	ea40 00dc 	orrcs.w	r0, r0, ip, lsr #3
 80008c0:	ea55 0e06 	orrs.w	lr, r5, r6
 80008c4:	d018      	beq.n	80008f8 <__aeabi_ddiv+0x114>
 80008c6:	ea4f 1505 	mov.w	r5, r5, lsl #4
 80008ca:	ea45 7516 	orr.w	r5, r5, r6, lsr #28
 80008ce:	ea4f 1606 	mov.w	r6, r6, lsl #4
 80008d2:	ea4f 03c3 	mov.w	r3, r3, lsl #3
 80008d6:	ea43 7352 	orr.w	r3, r3, r2, lsr #29
 80008da:	ea4f 02c2 	mov.w	r2, r2, lsl #3
 80008de:	ea5f 1c1c 	movs.w	ip, ip, lsr #4
 80008e2:	d1c0      	bne.n	8000866 <__aeabi_ddiv+0x82>
 80008e4:	f411 1f80 	tst.w	r1, #1048576	@ 0x100000
 80008e8:	d10b      	bne.n	8000902 <__aeabi_ddiv+0x11e>
 80008ea:	ea41 0100 	orr.w	r1, r1, r0
 80008ee:	f04f 0000 	mov.w	r0, #0
 80008f2:	f04f 4c00 	mov.w	ip, #2147483648	@ 0x80000000
 80008f6:	e7b6      	b.n	8000866 <__aeabi_ddiv+0x82>
 80008f8:	f411 1f80 	tst.w	r1, #1048576	@ 0x100000
 80008fc:	bf04      	itt	eq
 80008fe:	4301      	orreq	r1, r0
 8000900:	2000      	moveq	r0, #0
 8000902:	f1b4 0cfd 	subs.w	ip, r4, #253	@ 0xfd
 8000906:	bf88      	it	hi
 8000908:	f5bc 6fe0 	cmphi.w	ip, #1792	@ 0x700
 800090c:	f63f aeaf 	bhi.w	800066e <__aeabi_dmul+0xde>
 8000910:	ebb5 0c03 	subs.w	ip, r5, r3
 8000914:	bf04      	itt	eq
 8000916:	ebb6 0c02 	subseq.w	ip, r6, r2
 800091a:	ea5f 0c50 	movseq.w	ip, r0, lsr #1
 800091e:	f150 0000 	adcs.w	r0, r0, #0
 8000922:	eb41 5104 	adc.w	r1, r1, r4, lsl #20
 8000926:	bd70      	pop	{r4, r5, r6, pc}
 8000928:	f00e 4e00 	and.w	lr, lr, #2147483648	@ 0x80000000
 800092c:	ea4e 3111 	orr.w	r1, lr, r1, lsr #12
 8000930:	eb14 045c 	adds.w	r4, r4, ip, lsr #1
 8000934:	bfc2      	ittt	gt
 8000936:	ebd4 050c 	rsbsgt	r5, r4, ip
 800093a:	ea41 5104 	orrgt.w	r1, r1, r4, lsl #20
 800093e:	bd70      	popgt	{r4, r5, r6, pc}
 8000940:	f441 1180 	orr.w	r1, r1, #1048576	@ 0x100000
 8000944:	f04f 0e00 	mov.w	lr, #0
 8000948:	3c01      	subs	r4, #1
 800094a:	e690      	b.n	800066e <__aeabi_dmul+0xde>
 800094c:	ea45 0e06 	orr.w	lr, r5, r6
 8000950:	e68d      	b.n	800066e <__aeabi_dmul+0xde>
 8000952:	ea0c 5513 	and.w	r5, ip, r3, lsr #20
 8000956:	ea94 0f0c 	teq	r4, ip
 800095a:	bf08      	it	eq
 800095c:	ea95 0f0c 	teqeq	r5, ip
 8000960:	f43f af3b 	beq.w	80007da <__aeabi_dmul+0x24a>
 8000964:	ea94 0f0c 	teq	r4, ip
 8000968:	d10a      	bne.n	8000980 <__aeabi_ddiv+0x19c>
 800096a:	ea50 3401 	orrs.w	r4, r0, r1, lsl #12
 800096e:	f47f af34 	bne.w	80007da <__aeabi_dmul+0x24a>
 8000972:	ea95 0f0c 	teq	r5, ip
 8000976:	f47f af25 	bne.w	80007c4 <__aeabi_dmul+0x234>
 800097a:	4610      	mov	r0, r2
 800097c:	4619      	mov	r1, r3
 800097e:	e72c      	b.n	80007da <__aeabi_dmul+0x24a>
 8000980:	ea95 0f0c 	teq	r5, ip
 8000984:	d106      	bne.n	8000994 <__aeabi_ddiv+0x1b0>
 8000986:	ea52 3503 	orrs.w	r5, r2, r3, lsl #12
 800098a:	f43f aefd 	beq.w	8000788 <__aeabi_dmul+0x1f8>
 800098e:	4610      	mov	r0, r2
 8000990:	4619      	mov	r1, r3
 8000992:	e722      	b.n	80007da <__aeabi_dmul+0x24a>
 8000994:	ea50 0641 	orrs.w	r6, r0, r1, lsl #1
 8000998:	bf18      	it	ne
 800099a:	ea52 0643 	orrsne.w	r6, r2, r3, lsl #1
 800099e:	f47f aec5 	bne.w	800072c <__aeabi_dmul+0x19c>
 80009a2:	ea50 0441 	orrs.w	r4, r0, r1, lsl #1
 80009a6:	f47f af0d 	bne.w	80007c4 <__aeabi_dmul+0x234>
 80009aa:	ea52 0543 	orrs.w	r5, r2, r3, lsl #1
 80009ae:	f47f aeeb 	bne.w	8000788 <__aeabi_dmul+0x1f8>
 80009b2:	e712      	b.n	80007da <__aeabi_dmul+0x24a>

080009b4 <__gedf2>:
 80009b4:	f04f 3cff 	mov.w	ip, #4294967295
 80009b8:	e006      	b.n	80009c8 <__cmpdf2+0x4>
 80009ba:	bf00      	nop

080009bc <__ledf2>:
 80009bc:	f04f 0c01 	mov.w	ip, #1
 80009c0:	e002      	b.n	80009c8 <__cmpdf2+0x4>
 80009c2:	bf00      	nop

080009c4 <__cmpdf2>:
 80009c4:	f04f 0c01 	mov.w	ip, #1
 80009c8:	f84d cd04 	str.w	ip, [sp, #-4]!
 80009cc:	ea4f 0c41 	mov.w	ip, r1, lsl #1
 80009d0:	ea7f 5c6c 	mvns.w	ip, ip, asr #21
 80009d4:	ea4f 0c43 	mov.w	ip, r3, lsl #1
 80009d8:	bf18      	it	ne
 80009da:	ea7f 5c6c 	mvnsne.w	ip, ip, asr #21
 80009de:	d01b      	beq.n	8000a18 <__cmpdf2+0x54>
 80009e0:	b001      	add	sp, #4
 80009e2:	ea50 0c41 	orrs.w	ip, r0, r1, lsl #1
 80009e6:	bf0c      	ite	eq
 80009e8:	ea52 0c43 	orrseq.w	ip, r2, r3, lsl #1
 80009ec:	ea91 0f03 	teqne	r1, r3
 80009f0:	bf02      	ittt	eq
 80009f2:	ea90 0f02 	teqeq	r0, r2
 80009f6:	2000      	moveq	r0, #0
 80009f8:	4770      	bxeq	lr
 80009fa:	f110 0f00 	cmn.w	r0, #0
 80009fe:	ea91 0f03 	teq	r1, r3
 8000a02:	bf58      	it	pl
 8000a04:	4299      	cmppl	r1, r3
 8000a06:	bf08      	it	eq
 8000a08:	4290      	cmpeq	r0, r2
 8000a0a:	bf2c      	ite	cs
 8000a0c:	17d8      	asrcs	r0, r3, #31
 8000a0e:	ea6f 70e3 	mvncc.w	r0, r3, asr #31
 8000a12:	f040 0001 	orr.w	r0, r0, #1
 8000a16:	4770      	bx	lr
 8000a18:	ea4f 0c41 	mov.w	ip, r1, lsl #1
 8000a1c:	ea7f 5c6c 	mvns.w	ip, ip, asr #21
 8000a20:	d102      	bne.n	8000a28 <__cmpdf2+0x64>
 8000a22:	ea50 3c01 	orrs.w	ip, r0, r1, lsl #12
 8000a26:	d107      	bne.n	8000a38 <__cmpdf2+0x74>
 8000a28:	ea4f 0c43 	mov.w	ip, r3, lsl #1
 8000a2c:	ea7f 5c6c 	mvns.w	ip, ip, asr #21
 8000a30:	d1d6      	bne.n	80009e0 <__cmpdf2+0x1c>
 8000a32:	ea52 3c03 	orrs.w	ip, r2, r3, lsl #12
 8000a36:	d0d3      	beq.n	80009e0 <__cmpdf2+0x1c>
 8000a38:	f85d 0b04 	ldr.w	r0, [sp], #4
 8000a3c:	4770      	bx	lr
 8000a3e:	bf00      	nop

08000a40 <__aeabi_cdrcmple>:
 8000a40:	4684      	mov	ip, r0
 8000a42:	4610      	mov	r0, r2
 8000a44:	4662      	mov	r2, ip
 8000a46:	468c      	mov	ip, r1
 8000a48:	4619      	mov	r1, r3
 8000a4a:	4663      	mov	r3, ip
 8000a4c:	e000      	b.n	8000a50 <__aeabi_cdcmpeq>
 8000a4e:	bf00      	nop

08000a50 <__aeabi_cdcmpeq>:
 8000a50:	b501      	push	{r0, lr}
 8000a52:	f7ff ffb7 	bl	80009c4 <__cmpdf2>
 8000a56:	2800      	cmp	r0, #0
 8000a58:	bf48      	it	mi
 8000a5a:	f110 0f00 	cmnmi.w	r0, #0
 8000a5e:	bd01      	pop	{r0, pc}

08000a60 <__aeabi_dcmpeq>:
 8000a60:	f84d ed08 	str.w	lr, [sp, #-8]!
 8000a64:	f7ff fff4 	bl	8000a50 <__aeabi_cdcmpeq>
 8000a68:	bf0c      	ite	eq
 8000a6a:	2001      	moveq	r0, #1
 8000a6c:	2000      	movne	r0, #0
 8000a6e:	f85d fb08 	ldr.w	pc, [sp], #8
 8000a72:	bf00      	nop

08000a74 <__aeabi_dcmplt>:
 8000a74:	f84d ed08 	str.w	lr, [sp, #-8]!
 8000a78:	f7ff ffea 	bl	8000a50 <__aeabi_cdcmpeq>
 8000a7c:	bf34      	ite	cc
 8000a7e:	2001      	movcc	r0, #1
 8000a80:	2000      	movcs	r0, #0
 8000a82:	f85d fb08 	ldr.w	pc, [sp], #8
 8000a86:	bf00      	nop

08000a88 <__aeabi_dcmple>:
 8000a88:	f84d ed08 	str.w	lr, [sp, #-8]!
 8000a8c:	f7ff ffe0 	bl	8000a50 <__aeabi_cdcmpeq>
 8000a90:	bf94      	ite	ls
 8000a92:	2001      	movls	r0, #1
 8000a94:	2000      	movhi	r0, #0
 8000a96:	f85d fb08 	ldr.w	pc, [sp], #8
 8000a9a:	bf00      	nop

08000a9c <__aeabi_dcmpge>:
 8000a9c:	f84d ed08 	str.w	lr, [sp, #-8]!
 8000aa0:	f7ff ffce 	bl	8000a40 <__aeabi_cdrcmple>
 8000aa4:	bf94      	ite	ls
 8000aa6:	2001      	movls	r0, #1
 8000aa8:	2000      	movhi	r0, #0
 8000aaa:	f85d fb08 	ldr.w	pc, [sp], #8
 8000aae:	bf00      	nop

08000ab0 <__aeabi_dcmpgt>:
 8000ab0:	f84d ed08 	str.w	lr, [sp, #-8]!
 8000ab4:	f7ff ffc4 	bl	8000a40 <__aeabi_cdrcmple>
 8000ab8:	bf34      	ite	cc
 8000aba:	2001      	movcc	r0, #1
 8000abc:	2000      	movcs	r0, #0
 8000abe:	f85d fb08 	ldr.w	pc, [sp], #8
 8000ac2:	bf00      	nop

08000ac4 <__aeabi_d2iz>:
 8000ac4:	ea4f 0241 	mov.w	r2, r1, lsl #1
 8000ac8:	f512 1200 	adds.w	r2, r2, #2097152	@ 0x200000
 8000acc:	d215      	bcs.n	8000afa <__aeabi_d2iz+0x36>
 8000ace:	d511      	bpl.n	8000af4 <__aeabi_d2iz+0x30>
 8000ad0:	f46f 7378 	mvn.w	r3, #992	@ 0x3e0
 8000ad4:	ebb3 5262 	subs.w	r2, r3, r2, asr #21
 8000ad8:	d912      	bls.n	8000b00 <__aeabi_d2iz+0x3c>
 8000ada:	ea4f 23c1 	mov.w	r3, r1, lsl #11
 8000ade:	f043 4300 	orr.w	r3, r3, #2147483648	@ 0x80000000
 8000ae2:	ea43 5350 	orr.w	r3, r3, r0, lsr #21
 8000ae6:	f011 4f00 	tst.w	r1, #2147483648	@ 0x80000000
 8000aea:	fa23 f002 	lsr.w	r0, r3, r2
 8000aee:	bf18      	it	ne
 8000af0:	4240      	negne	r0, r0
 8000af2:	4770      	bx	lr
 8000af4:	f04f 0000 	mov.w	r0, #0
 8000af8:	4770      	bx	lr
 8000afa:	ea50 3001 	orrs.w	r0, r0, r1, lsl #12
 8000afe:	d105      	bne.n	8000b0c <__aeabi_d2iz+0x48>
 8000b00:	f011 4000 	ands.w	r0, r1, #2147483648	@ 0x80000000
 8000b04:	bf08      	it	eq
 8000b06:	f06f 4000 	mvneq.w	r0, #2147483648	@ 0x80000000
 8000b0a:	4770      	bx	lr
 8000b0c:	f04f 0000 	mov.w	r0, #0
 8000b10:	4770      	bx	lr
 8000b12:	bf00      	nop

08000b14 <__aeabi_d2f>:
 8000b14:	ea4f 0241 	mov.w	r2, r1, lsl #1
 8000b18:	f1b2 43e0 	subs.w	r3, r2, #1879048192	@ 0x70000000
 8000b1c:	bf24      	itt	cs
 8000b1e:	f5b3 1c00 	subscs.w	ip, r3, #2097152	@ 0x200000
 8000b22:	f1dc 5cfe 	rsbscs	ip, ip, #532676608	@ 0x1fc00000
 8000b26:	d90d      	bls.n	8000b44 <__aeabi_d2f+0x30>
 8000b28:	f001 4c00 	and.w	ip, r1, #2147483648	@ 0x80000000
 8000b2c:	ea4f 02c0 	mov.w	r2, r0, lsl #3
 8000b30:	ea4c 7050 	orr.w	r0, ip, r0, lsr #29
 8000b34:	f1b2 4f00 	cmp.w	r2, #2147483648	@ 0x80000000
 8000b38:	eb40 0083 	adc.w	r0, r0, r3, lsl #2
 8000b3c:	bf08      	it	eq
 8000b3e:	f020 0001 	biceq.w	r0, r0, #1
 8000b42:	4770      	bx	lr
 8000b44:	f011 4f80 	tst.w	r1, #1073741824	@ 0x40000000
 8000b48:	d121      	bne.n	8000b8e <__aeabi_d2f+0x7a>
 8000b4a:	f113 7238 	adds.w	r2, r3, #48234496	@ 0x2e00000
 8000b4e:	bfbc      	itt	lt
 8000b50:	f001 4000 	andlt.w	r0, r1, #2147483648	@ 0x80000000
 8000b54:	4770      	bxlt	lr
 8000b56:	f441 1180 	orr.w	r1, r1, #1048576	@ 0x100000
 8000b5a:	ea4f 5252 	mov.w	r2, r2, lsr #21
 8000b5e:	f1c2 0218 	rsb	r2, r2, #24
 8000b62:	f1c2 0c20 	rsb	ip, r2, #32
 8000b66:	fa10 f30c 	lsls.w	r3, r0, ip
 8000b6a:	fa20 f002 	lsr.w	r0, r0, r2
 8000b6e:	bf18      	it	ne
 8000b70:	f040 0001 	orrne.w	r0, r0, #1
 8000b74:	ea4f 23c1 	mov.w	r3, r1, lsl #11
 8000b78:	ea4f 23d3 	mov.w	r3, r3, lsr #11
 8000b7c:	fa03 fc0c 	lsl.w	ip, r3, ip
 8000b80:	ea40 000c 	orr.w	r0, r0, ip
 8000b84:	fa23 f302 	lsr.w	r3, r3, r2
 8000b88:	ea4f 0343 	mov.w	r3, r3, lsl #1
 8000b8c:	e7cc      	b.n	8000b28 <__aeabi_d2f+0x14>
 8000b8e:	ea7f 5362 	mvns.w	r3, r2, asr #21
 8000b92:	d107      	bne.n	8000ba4 <__aeabi_d2f+0x90>
 8000b94:	ea50 3301 	orrs.w	r3, r0, r1, lsl #12
 8000b98:	bf1e      	ittt	ne
 8000b9a:	f04f 40fe 	movne.w	r0, #2130706432	@ 0x7f000000
 8000b9e:	f440 0040 	orrne.w	r0, r0, #12582912	@ 0xc00000
 8000ba2:	4770      	bxne	lr
 8000ba4:	f001 4000 	and.w	r0, r1, #2147483648	@ 0x80000000
 8000ba8:	f040 40fe 	orr.w	r0, r0, #2130706432	@ 0x7f000000
 8000bac:	f440 0000 	orr.w	r0, r0, #8388608	@ 0x800000
 8000bb0:	4770      	bx	lr
 8000bb2:	bf00      	nop

08000bb4 <kalman_run>:
static void ComputeErrorCovarianceMatrix(ErrorCovarianceMatrix* error, const PredictionMatrix* predict, const ProcessNoiseMatrix* noise);
static void UpdateStateVector(StateVector* state, const KalmanGainMatrix* kalman, const ResidualErrorVector* residualerror, const CorrectedGyro* gyro, const TrigCache* trig, const float dt);
static void UpdateErrorCovarianceMatrix(ErrorCovarianceMatrix* error, const KalmanGainMatrix* kalman);

//=== Kalman Filter ===//
void kalman_run(float dt, StateVector* state_vector, ErrorCovarianceMatrix* error_covariance_matrix, const GyroSample* gyro, const AccelSample* accel, const ProcessNoiseMatrix* process_noise_matrix, const MeasurementNoiseMatrix* measurement_noise_matrix) {
 8000bb4:	b580      	push	{r7, lr}
 8000bb6:	b0b6      	sub	sp, #216	@ 0xd8
 8000bb8:	af02      	add	r7, sp, #8
 8000bba:	ed87 0a05 	vstr	s0, [r7, #20]
 8000bbe:	6138      	str	r0, [r7, #16]
 8000bc0:	60f9      	str	r1, [r7, #12]
 8000bc2:	60ba      	str	r2, [r7, #8]
 8000bc4:	607b      	str	r3, [r7, #4]
	
	// Sanitize inputs at start of each cycle (Recover from transient NaN)
	SanitizeStateVector(state_vector);
 8000bc6:	6938      	ldr	r0, [r7, #16]
 8000bc8:	f000 fb77 	bl	80012ba <SanitizeStateVector>
	SanitizeErrorCovariance(error_covariance_matrix);
 8000bcc:	68f8      	ldr	r0, [r7, #12]
 8000bce:	f000 fba3 	bl	8001318 <SanitizeErrorCovariance>

	// GYRO PORTION
	CorrectedGyro correct_gyro = ComputeCorrectedValues(state_vector, gyro);
 8000bd2:	68b9      	ldr	r1, [r7, #8]
 8000bd4:	6938      	ldr	r0, [r7, #16]
 8000bd6:	f000 fbe7 	bl	80013a8 <ComputeCorrectedValues>
 8000bda:	eef0 6a40 	vmov.f32	s13, s0
 8000bde:	eeb0 7a60 	vmov.f32	s14, s1
 8000be2:	eef0 7a41 	vmov.f32	s15, s2
 8000be6:	edc7 6a31 	vstr	s13, [r7, #196]	@ 0xc4
 8000bea:	ed87 7a32 	vstr	s14, [r7, #200]	@ 0xc8
 8000bee:	edc7 7a33 	vstr	s15, [r7, #204]	@ 0xcc
	TrigCache trig = ComputeTrigValues(state_vector->vector[ROLL], state_vector->vector[PITCH]);
 8000bf2:	693b      	ldr	r3, [r7, #16]
 8000bf4:	edd3 7a00 	vldr	s15, [r3]
 8000bf8:	693b      	ldr	r3, [r7, #16]
 8000bfa:	ed93 7a01 	vldr	s14, [r3, #4]
 8000bfe:	eef0 0a47 	vmov.f32	s1, s14
 8000c02:	eeb0 0a67 	vmov.f32	s0, s15
 8000c06:	f000 fc0d 	bl	8001424 <ComputeTrigValues>
 8000c0a:	eeb0 6a40 	vmov.f32	s12, s0
 8000c0e:	eef0 6a60 	vmov.f32	s13, s1
 8000c12:	eeb0 7a41 	vmov.f32	s14, s2
 8000c16:	eef0 7a61 	vmov.f32	s15, s3
 8000c1a:	ed87 6a2d 	vstr	s12, [r7, #180]	@ 0xb4
 8000c1e:	edc7 6a2e 	vstr	s13, [r7, #184]	@ 0xb8
 8000c22:	ed87 7a2f 	vstr	s14, [r7, #188]	@ 0xbc
 8000c26:	edc7 7a30 	vstr	s15, [r7, #192]	@ 0xc0
	#ifdef DEBUG_KALMAN
		printf("Trig: sin_r=%f, cos_r=%f, tan_p=%f, sec2_p=%f\n", trig.sin_r, trig.cos_r, trig.tan_p, trig.sec2_p);
	#endif // DEBUG_KALMAN

	PredictionMatrix prediction_matrix = PredictionMatrix_Construct(&correct_gyro, &trig, dt);
 8000c2a:	f107 0350 	add.w	r3, r7, #80	@ 0x50
 8000c2e:	f107 02b4 	add.w	r2, r7, #180	@ 0xb4
 8000c32:	f107 01c4 	add.w	r1, r7, #196	@ 0xc4
 8000c36:	ed97 0a05 	vldr	s0, [r7, #20]
 8000c3a:	4618      	mov	r0, r3
 8000c3c:	f000 f93b 	bl	8000eb6 <PredictionMatrix_Construct>
			}
			printf("]\n");
		}
	#endif // DEBUG_KALMAN

	ComputeErrorCovarianceMatrix(error_covariance_matrix, &prediction_matrix, process_noise_matrix);
 8000c40:	f107 0350 	add.w	r3, r7, #80	@ 0x50
 8000c44:	f8d7 20d8 	ldr.w	r2, [r7, #216]	@ 0xd8
 8000c48:	4619      	mov	r1, r3
 8000c4a:	68f8      	ldr	r0, [r7, #12]
 8000c4c:	f000 fc87 	bl	800155e <ComputeErrorCovarianceMatrix>

	// ACC PORTION
	MeasuredVector measured_vector = MeasuredVector_Construct(accel);
 8000c50:	6878      	ldr	r0, [r7, #4]
 8000c52:	f000 f8ac 	bl	8000dae <MeasuredVector_Construct>
 8000c56:	eeb0 7a40 	vmov.f32	s14, s0
 8000c5a:	eef0 7a60 	vmov.f32	s15, s1
 8000c5e:	ed87 7a12 	vstr	s14, [r7, #72]	@ 0x48
 8000c62:	edc7 7a13 	vstr	s15, [r7, #76]	@ 0x4c
	#ifdef DEBUG_KALMAN
		printf("Z = {%f, %f}\n", measured_vector.vector[0], measured_vector.vector[1]);
	#endif // DEBUG_KALMAN

	ResidualErrorVector residual_error_vector =  ResidualErrorVector_Construct(state_vector, &measured_vector);
 8000c66:	f107 0348 	add.w	r3, r7, #72	@ 0x48
 8000c6a:	4619      	mov	r1, r3
 8000c6c:	6938      	ldr	r0, [r7, #16]
 8000c6e:	f000 f8f2 	bl	8000e56 <ResidualErrorVector_Construct>
 8000c72:	eeb0 7a40 	vmov.f32	s14, s0
 8000c76:	eef0 7a60 	vmov.f32	s15, s1
 8000c7a:	ed87 7a10 	vstr	s14, [r7, #64]	@ 0x40
 8000c7e:	edc7 7a11 	vstr	s15, [r7, #68]	@ 0x44
	#ifdef DEBUG_KALMAN
		printf("Y = {%f, %f}\n", residual_error_vector.vector[0], residual_error_vector.vector[1]);
	#endif // DEBUG_KALMAN

	// KALMAN CALC
	KalmanGainMatrix kalman_gain_matrix = KalmanGainMatrix_Construct(error_covariance_matrix, measurement_noise_matrix);
 8000c82:	f107 0318 	add.w	r3, r7, #24
 8000c86:	f8d7 20dc 	ldr.w	r2, [r7, #220]	@ 0xdc
 8000c8a:	68f9      	ldr	r1, [r7, #12]
 8000c8c:	4618      	mov	r0, r3
 8000c8e:	f000 f9bf 	bl	8001010 <KalmanGainMatrix_Construct>
			printf("[%f, %f]\n", kalman_gain_matrix.matrix[i][0], kalman_gain_matrix.matrix[i][1]);
		}
	#endif // DEBUG_KALMAN

	// UPDATE STATE AND ERROR MATRIX
	UpdateStateVector(state_vector, &kalman_gain_matrix, &residual_error_vector, &correct_gyro, &trig, dt);
 8000c92:	f107 00c4 	add.w	r0, r7, #196	@ 0xc4
 8000c96:	f107 0240 	add.w	r2, r7, #64	@ 0x40
 8000c9a:	f107 0118 	add.w	r1, r7, #24
 8000c9e:	f107 03b4 	add.w	r3, r7, #180	@ 0xb4
 8000ca2:	9300      	str	r3, [sp, #0]
 8000ca4:	ed97 0a05 	vldr	s0, [r7, #20]
 8000ca8:	4603      	mov	r3, r0
 8000caa:	6938      	ldr	r0, [r7, #16]
 8000cac:	f000 fd77 	bl	800179e <UpdateStateVector>
	UpdateErrorCovarianceMatrix(error_covariance_matrix, &kalman_gain_matrix);
 8000cb0:	f107 0318 	add.w	r3, r7, #24
 8000cb4:	4619      	mov	r1, r3
 8000cb6:	68f8      	ldr	r0, [r7, #12]
 8000cb8:	f000 fe26 	bl	8001908 <UpdateErrorCovarianceMatrix>
}
 8000cbc:	bf00      	nop
 8000cbe:	37d0      	adds	r7, #208	@ 0xd0
 8000cc0:	46bd      	mov	sp, r7
 8000cc2:	bd80      	pop	{r7, pc}

08000cc4 <StateVector_Construct>:

//=== Constructors ===//
StateVector StateVector_Construct() {
 8000cc4:	b4b0      	push	{r4, r5, r7}
 8000cc6:	b089      	sub	sp, #36	@ 0x24
 8000cc8:	af00      	add	r7, sp, #0
 8000cca:	6078      	str	r0, [r7, #4]
	StateVector state;

	for (int i = 0; i < MATRIX_SIZE; i++) {
 8000ccc:	2300      	movs	r3, #0
 8000cce:	61fb      	str	r3, [r7, #28]
 8000cd0:	e00a      	b.n	8000ce8 <StateVector_Construct+0x24>
		state.vector[i] = 0;
 8000cd2:	69fb      	ldr	r3, [r7, #28]
 8000cd4:	009b      	lsls	r3, r3, #2
 8000cd6:	3320      	adds	r3, #32
 8000cd8:	443b      	add	r3, r7
 8000cda:	3b18      	subs	r3, #24
 8000cdc:	f04f 0200 	mov.w	r2, #0
 8000ce0:	601a      	str	r2, [r3, #0]
	for (int i = 0; i < MATRIX_SIZE; i++) {
 8000ce2:	69fb      	ldr	r3, [r7, #28]
 8000ce4:	3301      	adds	r3, #1
 8000ce6:	61fb      	str	r3, [r7, #28]
 8000ce8:	69fb      	ldr	r3, [r7, #28]
 8000cea:	2b04      	cmp	r3, #4
 8000cec:	ddf1      	ble.n	8000cd2 <StateVector_Construct+0xe>
	}

	return state;
 8000cee:	687b      	ldr	r3, [r7, #4]
 8000cf0:	461d      	mov	r5, r3
 8000cf2:	f107 0408 	add.w	r4, r7, #8
 8000cf6:	cc0f      	ldmia	r4!, {r0, r1, r2, r3}
 8000cf8:	c50f      	stmia	r5!, {r0, r1, r2, r3}
 8000cfa:	6823      	ldr	r3, [r4, #0]
 8000cfc:	602b      	str	r3, [r5, #0]
}
 8000cfe:	6878      	ldr	r0, [r7, #4]
 8000d00:	3724      	adds	r7, #36	@ 0x24
 8000d02:	46bd      	mov	sp, r7
 8000d04:	bcb0      	pop	{r4, r5, r7}
 8000d06:	4770      	bx	lr

08000d08 <ProcessNoiseMatrix_Construct>:

ProcessNoiseMatrix ProcessNoiseMatrix_Construct() {
 8000d08:	b580      	push	{r7, lr}
 8000d0a:	b09c      	sub	sp, #112	@ 0x70
 8000d0c:	af00      	add	r7, sp, #0
 8000d0e:	6078      	str	r0, [r7, #4]
	ProcessNoiseMatrix noise;
    FillIdentity(&noise.matrix[0][0], MATRIX_SIZE); // 5x5
 8000d10:	f107 030c 	add.w	r3, r7, #12
 8000d14:	2105      	movs	r1, #5
 8000d16:	4618      	mov	r0, r3
 8000d18:	f000 fbee 	bl	80014f8 <FillIdentity>
	return noise;
 8000d1c:	687b      	ldr	r3, [r7, #4]
 8000d1e:	4618      	mov	r0, r3
 8000d20:	f107 030c 	add.w	r3, r7, #12
 8000d24:	2264      	movs	r2, #100	@ 0x64
 8000d26:	4619      	mov	r1, r3
 8000d28:	f007 fe4a 	bl	80089c0 <memcpy>
}
 8000d2c:	6878      	ldr	r0, [r7, #4]
 8000d2e:	3770      	adds	r7, #112	@ 0x70
 8000d30:	46bd      	mov	sp, r7
 8000d32:	bd80      	pop	{r7, pc}

08000d34 <ErrorCovarianceMatrix_Construct>:

ErrorCovarianceMatrix ErrorCovarianceMatrix_Construct() {
 8000d34:	b580      	push	{r7, lr}
 8000d36:	b09c      	sub	sp, #112	@ 0x70
 8000d38:	af00      	add	r7, sp, #0
 8000d3a:	6078      	str	r0, [r7, #4]
    ErrorCovarianceMatrix covariance;
    FillIdentity(&covariance.matrix[0][0], MATRIX_SIZE); // 5x5
 8000d3c:	f107 030c 	add.w	r3, r7, #12
 8000d40:	2105      	movs	r1, #5
 8000d42:	4618      	mov	r0, r3
 8000d44:	f000 fbd8 	bl	80014f8 <FillIdentity>
    return covariance;
 8000d48:	687b      	ldr	r3, [r7, #4]
 8000d4a:	4618      	mov	r0, r3
 8000d4c:	f107 030c 	add.w	r3, r7, #12
 8000d50:	2264      	movs	r2, #100	@ 0x64
 8000d52:	4619      	mov	r1, r3
 8000d54:	f007 fe34 	bl	80089c0 <memcpy>
}
 8000d58:	6878      	ldr	r0, [r7, #4]
 8000d5a:	3770      	adds	r7, #112	@ 0x70
 8000d5c:	46bd      	mov	sp, r7
 8000d5e:	bd80      	pop	{r7, pc}

08000d60 <MeasurementNoiseMatrix_Construct>:

MeasurementNoiseMatrix MeasurementNoiseMatrix_Construct() {
 8000d60:	b590      	push	{r4, r7, lr}
 8000d62:	b08d      	sub	sp, #52	@ 0x34
 8000d64:	af00      	add	r7, sp, #0
    MeasurementNoiseMatrix noise;
    FillIdentity(&noise.matrix[0][0], VECTOR_SIZE); // 2x2
 8000d66:	f107 0310 	add.w	r3, r7, #16
 8000d6a:	2102      	movs	r1, #2
 8000d6c:	4618      	mov	r0, r3
 8000d6e:	f000 fbc3 	bl	80014f8 <FillIdentity>
    return noise;
 8000d72:	f107 0420 	add.w	r4, r7, #32
 8000d76:	f107 0310 	add.w	r3, r7, #16
 8000d7a:	cb0f      	ldmia	r3, {r0, r1, r2, r3}
 8000d7c:	e884 000f 	stmia.w	r4, {r0, r1, r2, r3}
 8000d80:	6a38      	ldr	r0, [r7, #32]
 8000d82:	6a79      	ldr	r1, [r7, #36]	@ 0x24
 8000d84:	6aba      	ldr	r2, [r7, #40]	@ 0x28
 8000d86:	6afb      	ldr	r3, [r7, #44]	@ 0x2c
 8000d88:	ee06 0a10 	vmov	s12, r0
 8000d8c:	ee06 1a90 	vmov	s13, r1
 8000d90:	ee07 2a10 	vmov	s14, r2
 8000d94:	ee07 3a90 	vmov	s15, r3
}
 8000d98:	eeb0 0a46 	vmov.f32	s0, s12
 8000d9c:	eef0 0a66 	vmov.f32	s1, s13
 8000da0:	eeb0 1a47 	vmov.f32	s2, s14
 8000da4:	eef0 1a67 	vmov.f32	s3, s15
 8000da8:	3734      	adds	r7, #52	@ 0x34
 8000daa:	46bd      	mov	sp, r7
 8000dac:	bd90      	pop	{r4, r7, pc}

08000dae <MeasuredVector_Construct>:

MeasuredVector MeasuredVector_Construct(const AccelSample* accl) {
 8000dae:	b580      	push	{r7, lr}
 8000db0:	ed2d 8b02 	vpush	{d8}
 8000db4:	b088      	sub	sp, #32
 8000db6:	af00      	add	r7, sp, #0
 8000db8:	60f8      	str	r0, [r7, #12]
	MeasuredVector measured;
	measured.vector[ROLL]  = atan2f(accl->ax, sqrtf(accl->ay*accl->ay + accl->az*accl->az));
 8000dba:	68fb      	ldr	r3, [r7, #12]
 8000dbc:	ed93 8a00 	vldr	s16, [r3]
 8000dc0:	68fb      	ldr	r3, [r7, #12]
 8000dc2:	ed93 7a01 	vldr	s14, [r3, #4]
 8000dc6:	68fb      	ldr	r3, [r7, #12]
 8000dc8:	edd3 7a01 	vldr	s15, [r3, #4]
 8000dcc:	ee27 7a27 	vmul.f32	s14, s14, s15
 8000dd0:	68fb      	ldr	r3, [r7, #12]
 8000dd2:	edd3 6a02 	vldr	s13, [r3, #8]
 8000dd6:	68fb      	ldr	r3, [r7, #12]
 8000dd8:	edd3 7a02 	vldr	s15, [r3, #8]
 8000ddc:	ee66 7aa7 	vmul.f32	s15, s13, s15
 8000de0:	ee77 7a27 	vadd.f32	s15, s14, s15
 8000de4:	eeb0 0a67 	vmov.f32	s0, s15
 8000de8:	f007 fe06 	bl	80089f8 <sqrtf>
 8000dec:	eef0 7a40 	vmov.f32	s15, s0
 8000df0:	eef0 0a67 	vmov.f32	s1, s15
 8000df4:	eeb0 0a48 	vmov.f32	s0, s16
 8000df8:	f007 fdfb 	bl	80089f2 <atan2f>
 8000dfc:	eef0 7a40 	vmov.f32	s15, s0
 8000e00:	edc7 7a04 	vstr	s15, [r7, #16]
	measured.vector[PITCH] = atan2f(-accl->ay, accl->az);
 8000e04:	68fb      	ldr	r3, [r7, #12]
 8000e06:	edd3 7a01 	vldr	s15, [r3, #4]
 8000e0a:	eef1 7a67 	vneg.f32	s15, s15
 8000e0e:	68fb      	ldr	r3, [r7, #12]
 8000e10:	ed93 7a02 	vldr	s14, [r3, #8]
 8000e14:	eef0 0a47 	vmov.f32	s1, s14
 8000e18:	eeb0 0a67 	vmov.f32	s0, s15
 8000e1c:	f007 fde9 	bl	80089f2 <atan2f>
 8000e20:	eef0 7a40 	vmov.f32	s15, s0
 8000e24:	edc7 7a05 	vstr	s15, [r7, #20]
	return measured;
 8000e28:	f107 0318 	add.w	r3, r7, #24
 8000e2c:	f107 0210 	add.w	r2, r7, #16
 8000e30:	e892 0003 	ldmia.w	r2, {r0, r1}
 8000e34:	e883 0003 	stmia.w	r3, {r0, r1}
 8000e38:	69ba      	ldr	r2, [r7, #24]
 8000e3a:	69fb      	ldr	r3, [r7, #28]
 8000e3c:	ee07 2a10 	vmov	s14, r2
 8000e40:	ee07 3a90 	vmov	s15, r3
}
 8000e44:	eeb0 0a47 	vmov.f32	s0, s14
 8000e48:	eef0 0a67 	vmov.f32	s1, s15
 8000e4c:	3720      	adds	r7, #32
 8000e4e:	46bd      	mov	sp, r7
 8000e50:	ecbd 8b02 	vpop	{d8}
 8000e54:	bd80      	pop	{r7, pc}

08000e56 <ResidualErrorVector_Construct>:

ResidualErrorVector ResidualErrorVector_Construct(const StateVector* state, const MeasuredVector* measured) {
 8000e56:	b480      	push	{r7}
 8000e58:	b089      	sub	sp, #36	@ 0x24
 8000e5a:	af00      	add	r7, sp, #0
 8000e5c:	60f8      	str	r0, [r7, #12]
 8000e5e:	60b9      	str	r1, [r7, #8]
	// NOTE: Function works when H = {{1,0,0,0,0},{0,1,0,0,0}}

	ResidualErrorVector residual;

	residual.vector[ROLL] = measured->vector[ROLL] - state->vector[ROLL];
 8000e60:	68bb      	ldr	r3, [r7, #8]
 8000e62:	ed93 7a00 	vldr	s14, [r3]
 8000e66:	68fb      	ldr	r3, [r7, #12]
 8000e68:	edd3 7a00 	vldr	s15, [r3]
 8000e6c:	ee77 7a67 	vsub.f32	s15, s14, s15
 8000e70:	edc7 7a04 	vstr	s15, [r7, #16]
	residual.vector[PITCH] = measured->vector[PITCH] - state->vector[PITCH];
 8000e74:	68bb      	ldr	r3, [r7, #8]
 8000e76:	ed93 7a01 	vldr	s14, [r3, #4]
 8000e7a:	68fb      	ldr	r3, [r7, #12]
 8000e7c:	edd3 7a01 	vldr	s15, [r3, #4]
 8000e80:	ee77 7a67 	vsub.f32	s15, s14, s15
 8000e84:	edc7 7a05 	vstr	s15, [r7, #20]

	return residual;
 8000e88:	f107 0318 	add.w	r3, r7, #24
 8000e8c:	f107 0210 	add.w	r2, r7, #16
 8000e90:	e892 0003 	ldmia.w	r2, {r0, r1}
 8000e94:	e883 0003 	stmia.w	r3, {r0, r1}
 8000e98:	69ba      	ldr	r2, [r7, #24]
 8000e9a:	69fb      	ldr	r3, [r7, #28]
 8000e9c:	ee07 2a10 	vmov	s14, r2
 8000ea0:	ee07 3a90 	vmov	s15, r3
}
 8000ea4:	eeb0 0a47 	vmov.f32	s0, s14
 8000ea8:	eef0 0a67 	vmov.f32	s1, s15
 8000eac:	3724      	adds	r7, #36	@ 0x24
 8000eae:	46bd      	mov	sp, r7
 8000eb0:	f85d 7b04 	ldr.w	r7, [sp], #4
 8000eb4:	4770      	bx	lr

08000eb6 <PredictionMatrix_Construct>:

PredictionMatrix PredictionMatrix_Construct(const CorrectedGyro* gyro, const TrigCache* trig, const float dt) {
 8000eb6:	b580      	push	{r7, lr}
 8000eb8:	b09e      	sub	sp, #120	@ 0x78
 8000eba:	af00      	add	r7, sp, #0
 8000ebc:	60f8      	str	r0, [r7, #12]
 8000ebe:	60b9      	str	r1, [r7, #8]
 8000ec0:	607a      	str	r2, [r7, #4]
 8000ec2:	ed87 0a00 	vstr	s0, [r7]
	PredictionMatrix predict;

	// Create identity matrix
    FillIdentity(&predict.matrix[0][0], MATRIX_SIZE); // 5x5
 8000ec6:	f107 0314 	add.w	r3, r7, #20
 8000eca:	2105      	movs	r1, #5
 8000ecc:	4618      	mov	r0, r3
 8000ece:	f000 fb13 	bl	80014f8 <FillIdentity>

	// Set prediction matrix values
	predict.matrix[0][0] += dt*trig->tan_p*(gyro->Gy*trig->cos_r - gyro->Gz*trig->sin_r);
 8000ed2:	ed97 7a05 	vldr	s14, [r7, #20]
 8000ed6:	687b      	ldr	r3, [r7, #4]
 8000ed8:	edd3 6a02 	vldr	s13, [r3, #8]
 8000edc:	edd7 7a00 	vldr	s15, [r7]
 8000ee0:	ee66 6aa7 	vmul.f32	s13, s13, s15
 8000ee4:	68bb      	ldr	r3, [r7, #8]
 8000ee6:	ed93 6a01 	vldr	s12, [r3, #4]
 8000eea:	687b      	ldr	r3, [r7, #4]
 8000eec:	edd3 7a01 	vldr	s15, [r3, #4]
 8000ef0:	ee26 6a27 	vmul.f32	s12, s12, s15
 8000ef4:	68bb      	ldr	r3, [r7, #8]
 8000ef6:	edd3 5a02 	vldr	s11, [r3, #8]
 8000efa:	687b      	ldr	r3, [r7, #4]
 8000efc:	edd3 7a00 	vldr	s15, [r3]
 8000f00:	ee65 7aa7 	vmul.f32	s15, s11, s15
 8000f04:	ee76 7a67 	vsub.f32	s15, s12, s15
 8000f08:	ee66 7aa7 	vmul.f32	s15, s13, s15
 8000f0c:	ee77 7a27 	vadd.f32	s15, s14, s15
 8000f10:	edc7 7a05 	vstr	s15, [r7, #20]
	predict.matrix[0][1] = (gyro->Gy*trig->sin_r + gyro->Gz*trig->cos_r)*dt*trig->sec2_p;
 8000f14:	68bb      	ldr	r3, [r7, #8]
 8000f16:	ed93 7a01 	vldr	s14, [r3, #4]
 8000f1a:	687b      	ldr	r3, [r7, #4]
 8000f1c:	edd3 7a00 	vldr	s15, [r3]
 8000f20:	ee27 7a27 	vmul.f32	s14, s14, s15
 8000f24:	68bb      	ldr	r3, [r7, #8]
 8000f26:	edd3 6a02 	vldr	s13, [r3, #8]
 8000f2a:	687b      	ldr	r3, [r7, #4]
 8000f2c:	edd3 7a01 	vldr	s15, [r3, #4]
 8000f30:	ee66 7aa7 	vmul.f32	s15, s13, s15
 8000f34:	ee37 7a27 	vadd.f32	s14, s14, s15
 8000f38:	edd7 7a00 	vldr	s15, [r7]
 8000f3c:	ee27 7a27 	vmul.f32	s14, s14, s15
 8000f40:	687b      	ldr	r3, [r7, #4]
 8000f42:	edd3 7a03 	vldr	s15, [r3, #12]
 8000f46:	ee67 7a27 	vmul.f32	s15, s14, s15
 8000f4a:	edc7 7a06 	vstr	s15, [r7, #24]
	predict.matrix[0][2] = -dt;
 8000f4e:	edd7 7a00 	vldr	s15, [r7]
 8000f52:	eef1 7a67 	vneg.f32	s15, s15
 8000f56:	edc7 7a07 	vstr	s15, [r7, #28]
	predict.matrix[0][3] = -trig->sin_r*trig->tan_p*dt;
 8000f5a:	687b      	ldr	r3, [r7, #4]
 8000f5c:	edd3 7a00 	vldr	s15, [r3]
 8000f60:	eeb1 7a67 	vneg.f32	s14, s15
 8000f64:	687b      	ldr	r3, [r7, #4]
 8000f66:	edd3 7a02 	vldr	s15, [r3, #8]
 8000f6a:	ee27 7a27 	vmul.f32	s14, s14, s15
 8000f6e:	edd7 7a00 	vldr	s15, [r7]
 8000f72:	ee67 7a27 	vmul.f32	s15, s14, s15
 8000f76:	edc7 7a08 	vstr	s15, [r7, #32]
	predict.matrix[0][4] = -trig->cos_r*trig->tan_p*dt;
 8000f7a:	687b      	ldr	r3, [r7, #4]
 8000f7c:	edd3 7a01 	vldr	s15, [r3, #4]
 8000f80:	eeb1 7a67 	vneg.f32	s14, s15
 8000f84:	687b      	ldr	r3, [r7, #4]
 8000f86:	edd3 7a02 	vldr	s15, [r3, #8]
 8000f8a:	ee27 7a27 	vmul.f32	s14, s14, s15
 8000f8e:	edd7 7a00 	vldr	s15, [r7]
 8000f92:	ee67 7a27 	vmul.f32	s15, s14, s15
 8000f96:	edc7 7a09 	vstr	s15, [r7, #36]	@ 0x24

	predict.matrix[1][0] = -(gyro->Gy*trig->sin_r + gyro->Gz*trig->cos_r)*dt;
 8000f9a:	68bb      	ldr	r3, [r7, #8]
 8000f9c:	ed93 7a01 	vldr	s14, [r3, #4]
 8000fa0:	687b      	ldr	r3, [r7, #4]
 8000fa2:	edd3 7a00 	vldr	s15, [r3]
 8000fa6:	ee27 7a27 	vmul.f32	s14, s14, s15
 8000faa:	68bb      	ldr	r3, [r7, #8]
 8000fac:	edd3 6a02 	vldr	s13, [r3, #8]
 8000fb0:	687b      	ldr	r3, [r7, #4]
 8000fb2:	edd3 7a01 	vldr	s15, [r3, #4]
 8000fb6:	ee66 7aa7 	vmul.f32	s15, s13, s15
 8000fba:	ee77 7a27 	vadd.f32	s15, s14, s15
 8000fbe:	eeb1 7a67 	vneg.f32	s14, s15
 8000fc2:	edd7 7a00 	vldr	s15, [r7]
 8000fc6:	ee67 7a27 	vmul.f32	s15, s14, s15
 8000fca:	edc7 7a0a 	vstr	s15, [r7, #40]	@ 0x28
	predict.matrix[1][3] = -trig->cos_r*dt;
 8000fce:	687b      	ldr	r3, [r7, #4]
 8000fd0:	edd3 7a01 	vldr	s15, [r3, #4]
 8000fd4:	eeb1 7a67 	vneg.f32	s14, s15
 8000fd8:	edd7 7a00 	vldr	s15, [r7]
 8000fdc:	ee67 7a27 	vmul.f32	s15, s14, s15
 8000fe0:	edc7 7a0d 	vstr	s15, [r7, #52]	@ 0x34
	predict.matrix[1][4] = trig->sin_r*dt;
 8000fe4:	687b      	ldr	r3, [r7, #4]
 8000fe6:	ed93 7a00 	vldr	s14, [r3]
 8000fea:	edd7 7a00 	vldr	s15, [r7]
 8000fee:	ee67 7a27 	vmul.f32	s15, s14, s15
 8000ff2:	edc7 7a0e 	vstr	s15, [r7, #56]	@ 0x38

	return predict;
 8000ff6:	68fb      	ldr	r3, [r7, #12]
 8000ff8:	4618      	mov	r0, r3
 8000ffa:	f107 0314 	add.w	r3, r7, #20
 8000ffe:	2264      	movs	r2, #100	@ 0x64
 8001000:	4619      	mov	r1, r3
 8001002:	f007 fcdd 	bl	80089c0 <memcpy>
}
 8001006:	68f8      	ldr	r0, [r7, #12]
 8001008:	3778      	adds	r7, #120	@ 0x78
 800100a:	46bd      	mov	sp, r7
 800100c:	bd80      	pop	{r7, pc}
	...

08001010 <KalmanGainMatrix_Construct>:

KalmanGainMatrix KalmanGainMatrix_Construct(const ErrorCovarianceMatrix* error, const MeasurementNoiseMatrix* measurednoise) {
 8001010:	b5b0      	push	{r4, r5, r7, lr}
 8001012:	b09e      	sub	sp, #120	@ 0x78
 8001014:	af00      	add	r7, sp, #0
 8001016:	60f8      	str	r0, [r7, #12]
 8001018:	60b9      	str	r1, [r7, #8]
 800101a:	607a      	str	r2, [r7, #4]
	// NOTE: Function works when H = {{1,0,0,0,0},{0,1,0,0,0}}
	KalmanGainMatrix kalman;

	// Compute Innovation Covariance (S = HP(H^T)+R)
	float S[VECTOR_SIZE][VECTOR_SIZE];
    int S_bad = 0;
 800101c:	2300      	movs	r3, #0
 800101e:	677b      	str	r3, [r7, #116]	@ 0x74

	// Addition
	for (int i = 0; i < VECTOR_SIZE; i++) {
 8001020:	2300      	movs	r3, #0
 8001022:	673b      	str	r3, [r7, #112]	@ 0x70
 8001024:	e051      	b.n	80010ca <KalmanGainMatrix_Construct+0xba>
		for (int j = 0; j < VECTOR_SIZE; j++) {
 8001026:	2300      	movs	r3, #0
 8001028:	66fb      	str	r3, [r7, #108]	@ 0x6c
 800102a:	e048      	b.n	80010be <KalmanGainMatrix_Construct+0xae>
			S[i][j] = error->matrix[i][j] + measurednoise->matrix[i][j];
 800102c:	68b9      	ldr	r1, [r7, #8]
 800102e:	6f3a      	ldr	r2, [r7, #112]	@ 0x70
 8001030:	4613      	mov	r3, r2
 8001032:	009b      	lsls	r3, r3, #2
 8001034:	4413      	add	r3, r2
 8001036:	6efa      	ldr	r2, [r7, #108]	@ 0x6c
 8001038:	4413      	add	r3, r2
 800103a:	009b      	lsls	r3, r3, #2
 800103c:	440b      	add	r3, r1
 800103e:	ed93 7a00 	vldr	s14, [r3]
 8001042:	687a      	ldr	r2, [r7, #4]
 8001044:	6f3b      	ldr	r3, [r7, #112]	@ 0x70
 8001046:	0059      	lsls	r1, r3, #1
 8001048:	6efb      	ldr	r3, [r7, #108]	@ 0x6c
 800104a:	440b      	add	r3, r1
 800104c:	009b      	lsls	r3, r3, #2
 800104e:	4413      	add	r3, r2
 8001050:	edd3 7a00 	vldr	s15, [r3]
 8001054:	ee77 7a27 	vadd.f32	s15, s14, s15
 8001058:	6f3b      	ldr	r3, [r7, #112]	@ 0x70
 800105a:	005a      	lsls	r2, r3, #1
 800105c:	6efb      	ldr	r3, [r7, #108]	@ 0x6c
 800105e:	4413      	add	r3, r2
 8001060:	009b      	lsls	r3, r3, #2
 8001062:	3378      	adds	r3, #120	@ 0x78
 8001064:	443b      	add	r3, r7
 8001066:	3b58      	subs	r3, #88	@ 0x58
 8001068:	edc3 7a00 	vstr	s15, [r3]
            if (isnan_f(S[i][j]) || fabsf(S[i][j]) > 1e10f) {
 800106c:	6f3b      	ldr	r3, [r7, #112]	@ 0x70
 800106e:	005a      	lsls	r2, r3, #1
 8001070:	6efb      	ldr	r3, [r7, #108]	@ 0x6c
 8001072:	4413      	add	r3, r2
 8001074:	009b      	lsls	r3, r3, #2
 8001076:	3378      	adds	r3, #120	@ 0x78
 8001078:	443b      	add	r3, r7
 800107a:	3b58      	subs	r3, #88	@ 0x58
 800107c:	edd3 7a00 	vldr	s15, [r3]
 8001080:	eeb0 0a67 	vmov.f32	s0, s15
 8001084:	f000 f902 	bl	800128c <isnan_f>
 8001088:	4603      	mov	r3, r0
 800108a:	2b00      	cmp	r3, #0
 800108c:	d112      	bne.n	80010b4 <KalmanGainMatrix_Construct+0xa4>
 800108e:	6f3b      	ldr	r3, [r7, #112]	@ 0x70
 8001090:	005a      	lsls	r2, r3, #1
 8001092:	6efb      	ldr	r3, [r7, #108]	@ 0x6c
 8001094:	4413      	add	r3, r2
 8001096:	009b      	lsls	r3, r3, #2
 8001098:	3378      	adds	r3, #120	@ 0x78
 800109a:	443b      	add	r3, r7
 800109c:	3b58      	subs	r3, #88	@ 0x58
 800109e:	edd3 7a00 	vldr	s15, [r3]
 80010a2:	eef0 7ae7 	vabs.f32	s15, s15
 80010a6:	ed9f 7a77 	vldr	s14, [pc, #476]	@ 8001284 <KalmanGainMatrix_Construct+0x274>
 80010aa:	eef4 7ac7 	vcmpe.f32	s15, s14
 80010ae:	eef1 fa10 	vmrs	APSR_nzcv, fpscr
 80010b2:	dd01      	ble.n	80010b8 <KalmanGainMatrix_Construct+0xa8>
                S_bad = 1;
 80010b4:	2301      	movs	r3, #1
 80010b6:	677b      	str	r3, [r7, #116]	@ 0x74
		for (int j = 0; j < VECTOR_SIZE; j++) {
 80010b8:	6efb      	ldr	r3, [r7, #108]	@ 0x6c
 80010ba:	3301      	adds	r3, #1
 80010bc:	66fb      	str	r3, [r7, #108]	@ 0x6c
 80010be:	6efb      	ldr	r3, [r7, #108]	@ 0x6c
 80010c0:	2b01      	cmp	r3, #1
 80010c2:	ddb3      	ble.n	800102c <KalmanGainMatrix_Construct+0x1c>
	for (int i = 0; i < VECTOR_SIZE; i++) {
 80010c4:	6f3b      	ldr	r3, [r7, #112]	@ 0x70
 80010c6:	3301      	adds	r3, #1
 80010c8:	673b      	str	r3, [r7, #112]	@ 0x70
 80010ca:	6f3b      	ldr	r3, [r7, #112]	@ 0x70
 80010cc:	2b01      	cmp	r3, #1
 80010ce:	ddaa      	ble.n	8001026 <KalmanGainMatrix_Construct+0x16>
            }
		}
	}

	const float DET_MIN = 1e-9f;
 80010d0:	4b6d      	ldr	r3, [pc, #436]	@ (8001288 <KalmanGainMatrix_Construct+0x278>)
 80010d2:	663b      	str	r3, [r7, #96]	@ 0x60
	float det = S[0][0]*S[1][1] - S[0][1]*S[1][0];
 80010d4:	ed97 7a08 	vldr	s14, [r7, #32]
 80010d8:	edd7 7a0b 	vldr	s15, [r7, #44]	@ 0x2c
 80010dc:	ee27 7a27 	vmul.f32	s14, s14, s15
 80010e0:	edd7 6a09 	vldr	s13, [r7, #36]	@ 0x24
 80010e4:	edd7 7a0a 	vldr	s15, [r7, #40]	@ 0x28
 80010e8:	ee66 7aa7 	vmul.f32	s15, s13, s15
 80010ec:	ee77 7a67 	vsub.f32	s15, s14, s15
 80010f0:	edc7 7a17 	vstr	s15, [r7, #92]	@ 0x5c

	// If S is corrupt or near-singular, skip the measurement update
	if (S_bad || isnan_f(det) || fabsf(det) < DET_MIN) {
 80010f4:	6f7b      	ldr	r3, [r7, #116]	@ 0x74
 80010f6:	2b00      	cmp	r3, #0
 80010f8:	d111      	bne.n	800111e <KalmanGainMatrix_Construct+0x10e>
 80010fa:	ed97 0a17 	vldr	s0, [r7, #92]	@ 0x5c
 80010fe:	f000 f8c5 	bl	800128c <isnan_f>
 8001102:	4603      	mov	r3, r0
 8001104:	2b00      	cmp	r3, #0
 8001106:	d10a      	bne.n	800111e <KalmanGainMatrix_Construct+0x10e>
 8001108:	edd7 7a17 	vldr	s15, [r7, #92]	@ 0x5c
 800110c:	eef0 7ae7 	vabs.f32	s15, s15
 8001110:	ed97 7a18 	vldr	s14, [r7, #96]	@ 0x60
 8001114:	eeb4 7ae7 	vcmpe.f32	s14, s15
 8001118:	eef1 fa10 	vmrs	APSR_nzcv, fpscr
 800111c:	dd25      	ble.n	800116a <KalmanGainMatrix_Construct+0x15a>
		for (int i = 0; i < MATRIX_SIZE; i++) {
 800111e:	2300      	movs	r3, #0
 8001120:	66bb      	str	r3, [r7, #104]	@ 0x68
 8001122:	e012      	b.n	800114a <KalmanGainMatrix_Construct+0x13a>
			kalman.matrix[i][0] = 0.0f;
 8001124:	6ebb      	ldr	r3, [r7, #104]	@ 0x68
 8001126:	00db      	lsls	r3, r3, #3
 8001128:	3378      	adds	r3, #120	@ 0x78
 800112a:	443b      	add	r3, r7
 800112c:	3b48      	subs	r3, #72	@ 0x48
 800112e:	f04f 0200 	mov.w	r2, #0
 8001132:	601a      	str	r2, [r3, #0]
			kalman.matrix[i][1] = 0.0f;
 8001134:	6ebb      	ldr	r3, [r7, #104]	@ 0x68
 8001136:	00db      	lsls	r3, r3, #3
 8001138:	3378      	adds	r3, #120	@ 0x78
 800113a:	443b      	add	r3, r7
 800113c:	3b44      	subs	r3, #68	@ 0x44
 800113e:	f04f 0200 	mov.w	r2, #0
 8001142:	601a      	str	r2, [r3, #0]
		for (int i = 0; i < MATRIX_SIZE; i++) {
 8001144:	6ebb      	ldr	r3, [r7, #104]	@ 0x68
 8001146:	3301      	adds	r3, #1
 8001148:	66bb      	str	r3, [r7, #104]	@ 0x68
 800114a:	6ebb      	ldr	r3, [r7, #104]	@ 0x68
 800114c:	2b04      	cmp	r3, #4
 800114e:	dde9      	ble.n	8001124 <KalmanGainMatrix_Construct+0x114>
		}
		return kalman;
 8001150:	68fb      	ldr	r3, [r7, #12]
 8001152:	461d      	mov	r5, r3
 8001154:	f107 0430 	add.w	r4, r7, #48	@ 0x30
 8001158:	cc0f      	ldmia	r4!, {r0, r1, r2, r3}
 800115a:	c50f      	stmia	r5!, {r0, r1, r2, r3}
 800115c:	cc0f      	ldmia	r4!, {r0, r1, r2, r3}
 800115e:	c50f      	stmia	r5!, {r0, r1, r2, r3}
 8001160:	e894 0003 	ldmia.w	r4, {r0, r1}
 8001164:	e885 0003 	stmia.w	r5, {r0, r1}
 8001168:	e088      	b.n	800127c <KalmanGainMatrix_Construct+0x26c>
	}

	// Invert S (2x2 closed form)
	float inv_det = 1.0f / det;
 800116a:	eef7 6a00 	vmov.f32	s13, #112	@ 0x3f800000  1.0
 800116e:	ed97 7a17 	vldr	s14, [r7, #92]	@ 0x5c
 8001172:	eec6 7a87 	vdiv.f32	s15, s13, s14
 8001176:	edc7 7a16 	vstr	s15, [r7, #88]	@ 0x58
	float S_inv[VECTOR_SIZE][VECTOR_SIZE];
	S_inv[0][0] =  S[1][1] * inv_det;
 800117a:	ed97 7a0b 	vldr	s14, [r7, #44]	@ 0x2c
 800117e:	edd7 7a16 	vldr	s15, [r7, #88]	@ 0x58
 8001182:	ee67 7a27 	vmul.f32	s15, s14, s15
 8001186:	edc7 7a04 	vstr	s15, [r7, #16]
	S_inv[1][1] =  S[0][0] * inv_det;
 800118a:	ed97 7a08 	vldr	s14, [r7, #32]
 800118e:	edd7 7a16 	vldr	s15, [r7, #88]	@ 0x58
 8001192:	ee67 7a27 	vmul.f32	s15, s14, s15
 8001196:	edc7 7a07 	vstr	s15, [r7, #28]
	S_inv[0][1] = -S[0][1] * inv_det;
 800119a:	edd7 7a09 	vldr	s15, [r7, #36]	@ 0x24
 800119e:	eeb1 7a67 	vneg.f32	s14, s15
 80011a2:	edd7 7a16 	vldr	s15, [r7, #88]	@ 0x58
 80011a6:	ee67 7a27 	vmul.f32	s15, s14, s15
 80011aa:	edc7 7a05 	vstr	s15, [r7, #20]
	S_inv[1][0] = -S[1][0] * inv_det;
 80011ae:	edd7 7a0a 	vldr	s15, [r7, #40]	@ 0x28
 80011b2:	eeb1 7a67 	vneg.f32	s14, s15
 80011b6:	edd7 7a16 	vldr	s15, [r7, #88]	@ 0x58
 80011ba:	ee67 7a27 	vmul.f32	s15, s14, s15
 80011be:	edc7 7a06 	vstr	s15, [r7, #24]

	// Compute Kalman Gain (K=P(H^T)(S^-1))
	for (int i = 0; i < MATRIX_SIZE; i++) {
 80011c2:	2300      	movs	r3, #0
 80011c4:	667b      	str	r3, [r7, #100]	@ 0x64
 80011c6:	e04a      	b.n	800125e <KalmanGainMatrix_Construct+0x24e>
		kalman.matrix[i][0] = error->matrix[i][0]*S_inv[0][0] + error->matrix[i][1]*S_inv[1][0];
 80011c8:	68b9      	ldr	r1, [r7, #8]
 80011ca:	6e7a      	ldr	r2, [r7, #100]	@ 0x64
 80011cc:	4613      	mov	r3, r2
 80011ce:	009b      	lsls	r3, r3, #2
 80011d0:	4413      	add	r3, r2
 80011d2:	009b      	lsls	r3, r3, #2
 80011d4:	440b      	add	r3, r1
 80011d6:	ed93 7a00 	vldr	s14, [r3]
 80011da:	edd7 7a04 	vldr	s15, [r7, #16]
 80011de:	ee27 7a27 	vmul.f32	s14, s14, s15
 80011e2:	68b9      	ldr	r1, [r7, #8]
 80011e4:	6e7a      	ldr	r2, [r7, #100]	@ 0x64
 80011e6:	4613      	mov	r3, r2
 80011e8:	009b      	lsls	r3, r3, #2
 80011ea:	4413      	add	r3, r2
 80011ec:	009b      	lsls	r3, r3, #2
 80011ee:	440b      	add	r3, r1
 80011f0:	3304      	adds	r3, #4
 80011f2:	edd3 6a00 	vldr	s13, [r3]
 80011f6:	edd7 7a06 	vldr	s15, [r7, #24]
 80011fa:	ee66 7aa7 	vmul.f32	s15, s13, s15
 80011fe:	ee77 7a27 	vadd.f32	s15, s14, s15
 8001202:	6e7b      	ldr	r3, [r7, #100]	@ 0x64
 8001204:	00db      	lsls	r3, r3, #3
 8001206:	3378      	adds	r3, #120	@ 0x78
 8001208:	443b      	add	r3, r7
 800120a:	3b48      	subs	r3, #72	@ 0x48
 800120c:	edc3 7a00 	vstr	s15, [r3]
		kalman.matrix[i][1] = error->matrix[i][0]*S_inv[0][1] + error->matrix[i][1]*S_inv[1][1];
 8001210:	68b9      	ldr	r1, [r7, #8]
 8001212:	6e7a      	ldr	r2, [r7, #100]	@ 0x64
 8001214:	4613      	mov	r3, r2
 8001216:	009b      	lsls	r3, r3, #2
 8001218:	4413      	add	r3, r2
 800121a:	009b      	lsls	r3, r3, #2
 800121c:	440b      	add	r3, r1
 800121e:	ed93 7a00 	vldr	s14, [r3]
 8001222:	edd7 7a05 	vldr	s15, [r7, #20]
 8001226:	ee27 7a27 	vmul.f32	s14, s14, s15
 800122a:	68b9      	ldr	r1, [r7, #8]
 800122c:	6e7a      	ldr	r2, [r7, #100]	@ 0x64
 800122e:	4613      	mov	r3, r2
 8001230:	009b      	lsls	r3, r3, #2
 8001232:	4413      	add	r3, r2
 8001234:	009b      	lsls	r3, r3, #2
 8001236:	440b      	add	r3, r1
 8001238:	3304      	adds	r3, #4
 800123a:	edd3 6a00 	vldr	s13, [r3]
 800123e:	edd7 7a07 	vldr	s15, [r7, #28]
 8001242:	ee66 7aa7 	vmul.f32	s15, s13, s15
 8001246:	ee77 7a27 	vadd.f32	s15, s14, s15
 800124a:	6e7b      	ldr	r3, [r7, #100]	@ 0x64
 800124c:	00db      	lsls	r3, r3, #3
 800124e:	3378      	adds	r3, #120	@ 0x78
 8001250:	443b      	add	r3, r7
 8001252:	3b44      	subs	r3, #68	@ 0x44
 8001254:	edc3 7a00 	vstr	s15, [r3]
	for (int i = 0; i < MATRIX_SIZE; i++) {
 8001258:	6e7b      	ldr	r3, [r7, #100]	@ 0x64
 800125a:	3301      	adds	r3, #1
 800125c:	667b      	str	r3, [r7, #100]	@ 0x64
 800125e:	6e7b      	ldr	r3, [r7, #100]	@ 0x64
 8001260:	2b04      	cmp	r3, #4
 8001262:	ddb1      	ble.n	80011c8 <KalmanGainMatrix_Construct+0x1b8>
	}

	return kalman;
 8001264:	68fb      	ldr	r3, [r7, #12]
 8001266:	461d      	mov	r5, r3
 8001268:	f107 0430 	add.w	r4, r7, #48	@ 0x30
 800126c:	cc0f      	ldmia	r4!, {r0, r1, r2, r3}
 800126e:	c50f      	stmia	r5!, {r0, r1, r2, r3}
 8001270:	cc0f      	ldmia	r4!, {r0, r1, r2, r3}
 8001272:	c50f      	stmia	r5!, {r0, r1, r2, r3}
 8001274:	e894 0003 	ldmia.w	r4, {r0, r1}
 8001278:	e885 0003 	stmia.w	r5, {r0, r1}
}
 800127c:	68f8      	ldr	r0, [r7, #12]
 800127e:	3778      	adds	r7, #120	@ 0x78
 8001280:	46bd      	mov	sp, r7
 8001282:	bdb0      	pop	{r4, r5, r7, pc}
 8001284:	501502f9 	.word	0x501502f9
 8001288:	3089705f 	.word	0x3089705f

0800128c <isnan_f>:

//=== Static Helper Functions ===//

static int isnan_f(float x) {
 800128c:	b480      	push	{r7}
 800128e:	b083      	sub	sp, #12
 8001290:	af00      	add	r7, sp, #0
 8001292:	ed87 0a01 	vstr	s0, [r7, #4]
    return x != x;
 8001296:	ed97 7a01 	vldr	s14, [r7, #4]
 800129a:	edd7 7a01 	vldr	s15, [r7, #4]
 800129e:	eeb4 7a67 	vcmp.f32	s14, s15
 80012a2:	eef1 fa10 	vmrs	APSR_nzcv, fpscr
 80012a6:	bf14      	ite	ne
 80012a8:	2301      	movne	r3, #1
 80012aa:	2300      	moveq	r3, #0
 80012ac:	b2db      	uxtb	r3, r3
}
 80012ae:	4618      	mov	r0, r3
 80012b0:	370c      	adds	r7, #12
 80012b2:	46bd      	mov	sp, r7
 80012b4:	f85d 7b04 	ldr.w	r7, [sp], #4
 80012b8:	4770      	bx	lr

080012ba <SanitizeStateVector>:

static void SanitizeStateVector(StateVector* state) {
 80012ba:	b580      	push	{r7, lr}
 80012bc:	b084      	sub	sp, #16
 80012be:	af00      	add	r7, sp, #0
 80012c0:	6078      	str	r0, [r7, #4]
	for (int i = 0; i < MATRIX_SIZE; i++) {
 80012c2:	2300      	movs	r3, #0
 80012c4:	60fb      	str	r3, [r7, #12]
 80012c6:	e020      	b.n	800130a <SanitizeStateVector+0x50>
		if (isnan_f(state->vector[i])) {
 80012c8:	687a      	ldr	r2, [r7, #4]
 80012ca:	68fb      	ldr	r3, [r7, #12]
 80012cc:	009b      	lsls	r3, r3, #2
 80012ce:	4413      	add	r3, r2
 80012d0:	edd3 7a00 	vldr	s15, [r3]
 80012d4:	eeb0 0a67 	vmov.f32	s0, s15
 80012d8:	f7ff ffd8 	bl	800128c <isnan_f>
 80012dc:	4603      	mov	r3, r0
 80012de:	2b00      	cmp	r3, #0
 80012e0:	d010      	beq.n	8001304 <SanitizeStateVector+0x4a>
			// State is corrupt - reset to zero
			for (int j = 0; j < MATRIX_SIZE; j++) {
 80012e2:	2300      	movs	r3, #0
 80012e4:	60bb      	str	r3, [r7, #8]
 80012e6:	e009      	b.n	80012fc <SanitizeStateVector+0x42>
				state->vector[j] = 0.0f;
 80012e8:	687a      	ldr	r2, [r7, #4]
 80012ea:	68bb      	ldr	r3, [r7, #8]
 80012ec:	009b      	lsls	r3, r3, #2
 80012ee:	4413      	add	r3, r2
 80012f0:	f04f 0200 	mov.w	r2, #0
 80012f4:	601a      	str	r2, [r3, #0]
			for (int j = 0; j < MATRIX_SIZE; j++) {
 80012f6:	68bb      	ldr	r3, [r7, #8]
 80012f8:	3301      	adds	r3, #1
 80012fa:	60bb      	str	r3, [r7, #8]
 80012fc:	68bb      	ldr	r3, [r7, #8]
 80012fe:	2b04      	cmp	r3, #4
 8001300:	ddf2      	ble.n	80012e8 <SanitizeStateVector+0x2e>
			}
			return;
 8001302:	e005      	b.n	8001310 <SanitizeStateVector+0x56>
	for (int i = 0; i < MATRIX_SIZE; i++) {
 8001304:	68fb      	ldr	r3, [r7, #12]
 8001306:	3301      	adds	r3, #1
 8001308:	60fb      	str	r3, [r7, #12]
 800130a:	68fb      	ldr	r3, [r7, #12]
 800130c:	2b04      	cmp	r3, #4
 800130e:	dddb      	ble.n	80012c8 <SanitizeStateVector+0xe>
		}
	}
}
 8001310:	3710      	adds	r7, #16
 8001312:	46bd      	mov	sp, r7
 8001314:	bd80      	pop	{r7, pc}
	...

08001318 <SanitizeErrorCovariance>:

static void SanitizeErrorCovariance(ErrorCovarianceMatrix* error) {
 8001318:	b580      	push	{r7, lr}
 800131a:	b084      	sub	sp, #16
 800131c:	af00      	add	r7, sp, #0
 800131e:	6078      	str	r0, [r7, #4]
	for (int i = 0; i < MATRIX_SIZE; i++) {
 8001320:	2300      	movs	r3, #0
 8001322:	60fb      	str	r3, [r7, #12]
 8001324:	e037      	b.n	8001396 <SanitizeErrorCovariance+0x7e>
		for (int j = 0; j < MATRIX_SIZE; j++) {
 8001326:	2300      	movs	r3, #0
 8001328:	60bb      	str	r3, [r7, #8]
 800132a:	e02e      	b.n	800138a <SanitizeErrorCovariance+0x72>
			if (isnan_f(error->matrix[i][j]) || fabsf(error->matrix[i][j]) > 1e10f) {
 800132c:	6879      	ldr	r1, [r7, #4]
 800132e:	68fa      	ldr	r2, [r7, #12]
 8001330:	4613      	mov	r3, r2
 8001332:	009b      	lsls	r3, r3, #2
 8001334:	4413      	add	r3, r2
 8001336:	68ba      	ldr	r2, [r7, #8]
 8001338:	4413      	add	r3, r2
 800133a:	009b      	lsls	r3, r3, #2
 800133c:	440b      	add	r3, r1
 800133e:	edd3 7a00 	vldr	s15, [r3]
 8001342:	eeb0 0a67 	vmov.f32	s0, s15
 8001346:	f7ff ffa1 	bl	800128c <isnan_f>
 800134a:	4603      	mov	r3, r0
 800134c:	2b00      	cmp	r3, #0
 800134e:	d113      	bne.n	8001378 <SanitizeErrorCovariance+0x60>
 8001350:	6879      	ldr	r1, [r7, #4]
 8001352:	68fa      	ldr	r2, [r7, #12]
 8001354:	4613      	mov	r3, r2
 8001356:	009b      	lsls	r3, r3, #2
 8001358:	4413      	add	r3, r2
 800135a:	68ba      	ldr	r2, [r7, #8]
 800135c:	4413      	add	r3, r2
 800135e:	009b      	lsls	r3, r3, #2
 8001360:	440b      	add	r3, r1
 8001362:	edd3 7a00 	vldr	s15, [r3]
 8001366:	eef0 7ae7 	vabs.f32	s15, s15
 800136a:	ed9f 7a0e 	vldr	s14, [pc, #56]	@ 80013a4 <SanitizeErrorCovariance+0x8c>
 800136e:	eef4 7ac7 	vcmpe.f32	s15, s14
 8001372:	eef1 fa10 	vmrs	APSR_nzcv, fpscr
 8001376:	dd05      	ble.n	8001384 <SanitizeErrorCovariance+0x6c>
				// P is corrupt - reset to identity (pessimistic but recoverable)
				FillIdentity(&error->matrix[0][0], MATRIX_SIZE);
 8001378:	687b      	ldr	r3, [r7, #4]
 800137a:	2105      	movs	r1, #5
 800137c:	4618      	mov	r0, r3
 800137e:	f000 f8bb 	bl	80014f8 <FillIdentity>
				return;
 8001382:	e00b      	b.n	800139c <SanitizeErrorCovariance+0x84>
		for (int j = 0; j < MATRIX_SIZE; j++) {
 8001384:	68bb      	ldr	r3, [r7, #8]
 8001386:	3301      	adds	r3, #1
 8001388:	60bb      	str	r3, [r7, #8]
 800138a:	68bb      	ldr	r3, [r7, #8]
 800138c:	2b04      	cmp	r3, #4
 800138e:	ddcd      	ble.n	800132c <SanitizeErrorCovariance+0x14>
	for (int i = 0; i < MATRIX_SIZE; i++) {
 8001390:	68fb      	ldr	r3, [r7, #12]
 8001392:	3301      	adds	r3, #1
 8001394:	60fb      	str	r3, [r7, #12]
 8001396:	68fb      	ldr	r3, [r7, #12]
 8001398:	2b04      	cmp	r3, #4
 800139a:	ddc4      	ble.n	8001326 <SanitizeErrorCovariance+0xe>
			}
		}
	}
}
 800139c:	3710      	adds	r7, #16
 800139e:	46bd      	mov	sp, r7
 80013a0:	bd80      	pop	{r7, pc}
 80013a2:	bf00      	nop
 80013a4:	501502f9 	.word	0x501502f9

080013a8 <ComputeCorrectedValues>:

static CorrectedGyro ComputeCorrectedValues(const StateVector* state, const GyroSample* gyro) {
 80013a8:	b480      	push	{r7}
 80013aa:	b08d      	sub	sp, #52	@ 0x34
 80013ac:	af00      	add	r7, sp, #0
 80013ae:	6178      	str	r0, [r7, #20]
 80013b0:	6139      	str	r1, [r7, #16]
	CorrectedGyro correctedgyro;

	correctedgyro.Gx = gyro->gx - state->vector[X_AXIS];
 80013b2:	693b      	ldr	r3, [r7, #16]
 80013b4:	ed93 7a00 	vldr	s14, [r3]
 80013b8:	697b      	ldr	r3, [r7, #20]
 80013ba:	edd3 7a02 	vldr	s15, [r3, #8]
 80013be:	ee77 7a67 	vsub.f32	s15, s14, s15
 80013c2:	edc7 7a06 	vstr	s15, [r7, #24]
	correctedgyro.Gy = gyro->gy - state->vector[Y_AXIS];
 80013c6:	693b      	ldr	r3, [r7, #16]
 80013c8:	ed93 7a01 	vldr	s14, [r3, #4]
 80013cc:	697b      	ldr	r3, [r7, #20]
 80013ce:	edd3 7a03 	vldr	s15, [r3, #12]
 80013d2:	ee77 7a67 	vsub.f32	s15, s14, s15
 80013d6:	edc7 7a07 	vstr	s15, [r7, #28]
	correctedgyro.Gz = gyro->gz - state->vector[Z_AXIS];
 80013da:	693b      	ldr	r3, [r7, #16]
 80013dc:	ed93 7a02 	vldr	s14, [r3, #8]
 80013e0:	697b      	ldr	r3, [r7, #20]
 80013e2:	edd3 7a04 	vldr	s15, [r3, #16]
 80013e6:	ee77 7a67 	vsub.f32	s15, s14, s15
 80013ea:	edc7 7a08 	vstr	s15, [r7, #32]

	return correctedgyro;
 80013ee:	f107 0324 	add.w	r3, r7, #36	@ 0x24
 80013f2:	f107 0218 	add.w	r2, r7, #24
 80013f6:	ca07      	ldmia	r2, {r0, r1, r2}
 80013f8:	e883 0007 	stmia.w	r3, {r0, r1, r2}
 80013fc:	6a79      	ldr	r1, [r7, #36]	@ 0x24
 80013fe:	6aba      	ldr	r2, [r7, #40]	@ 0x28
 8001400:	6afb      	ldr	r3, [r7, #44]	@ 0x2c
 8001402:	ee06 1a90 	vmov	s13, r1
 8001406:	ee07 2a10 	vmov	s14, r2
 800140a:	ee07 3a90 	vmov	s15, r3
}
 800140e:	eeb0 0a66 	vmov.f32	s0, s13
 8001412:	eef0 0a47 	vmov.f32	s1, s14
 8001416:	eeb0 1a67 	vmov.f32	s2, s15
 800141a:	3734      	adds	r7, #52	@ 0x34
 800141c:	46bd      	mov	sp, r7
 800141e:	f85d 7b04 	ldr.w	r7, [sp], #4
 8001422:	4770      	bx	lr

08001424 <ComputeTrigValues>:

static TrigCache ComputeTrigValues(const float roll, const float pitch) {
 8001424:	b590      	push	{r4, r7, lr}
 8001426:	b093      	sub	sp, #76	@ 0x4c
 8001428:	af00      	add	r7, sp, #0
 800142a:	ed87 0a05 	vstr	s0, [r7, #20]
 800142e:	edc7 0a04 	vstr	s1, [r7, #16]
    TrigCache trig;

    const float COS_P_MIN = 1e-4f;  // ~89.994 deg
 8001432:	4b30      	ldr	r3, [pc, #192]	@ (80014f4 <ComputeTrigValues+0xd0>)
 8001434:	643b      	str	r3, [r7, #64]	@ 0x40

    trig.cos_r = cosf(roll);
 8001436:	ed97 0a05 	vldr	s0, [r7, #20]
 800143a:	f007 fafb 	bl	8008a34 <cosf>
 800143e:	eef0 7a40 	vmov.f32	s15, s0
 8001442:	edc7 7a08 	vstr	s15, [r7, #32]
    trig.sin_r = sinf(roll);
 8001446:	ed97 0a05 	vldr	s0, [r7, #20]
 800144a:	f007 fb37 	bl	8008abc <sinf>
 800144e:	eef0 7a40 	vmov.f32	s15, s0
 8001452:	edc7 7a07 	vstr	s15, [r7, #28]

    float cos_p = cosf(pitch);
 8001456:	ed97 0a04 	vldr	s0, [r7, #16]
 800145a:	f007 faeb 	bl	8008a34 <cosf>
 800145e:	ed87 0a11 	vstr	s0, [r7, #68]	@ 0x44
    float sin_p = sinf(pitch);
 8001462:	ed97 0a04 	vldr	s0, [r7, #16]
 8001466:	f007 fb29 	bl	8008abc <sinf>
 800146a:	ed87 0a0f 	vstr	s0, [r7, #60]	@ 0x3c

    // Guard only the true singularity
    if (fabsf(cos_p) < COS_P_MIN) { cos_p = copysignf(COS_P_MIN, cos_p); }
 800146e:	edd7 7a11 	vldr	s15, [r7, #68]	@ 0x44
 8001472:	eef0 7ae7 	vabs.f32	s15, s15
 8001476:	ed97 7a10 	vldr	s14, [r7, #64]	@ 0x40
 800147a:	eeb4 7ae7 	vcmpe.f32	s14, s15
 800147e:	eef1 fa10 	vmrs	APSR_nzcv, fpscr
 8001482:	dd07      	ble.n	8001494 <ComputeTrigValues+0x70>
 8001484:	edd7 0a11 	vldr	s1, [r7, #68]	@ 0x44
 8001488:	ed97 0a10 	vldr	s0, [r7, #64]	@ 0x40
 800148c:	f007 faa6 	bl	80089dc <copysignf>
 8001490:	ed87 0a11 	vstr	s0, [r7, #68]	@ 0x44

    trig.tan_p  = sin_p / cos_p;
 8001494:	edd7 6a0f 	vldr	s13, [r7, #60]	@ 0x3c
 8001498:	ed97 7a11 	vldr	s14, [r7, #68]	@ 0x44
 800149c:	eec6 7a87 	vdiv.f32	s15, s13, s14
 80014a0:	edc7 7a09 	vstr	s15, [r7, #36]	@ 0x24
    trig.sec2_p = 1.0f / (cos_p * cos_p);
 80014a4:	edd7 7a11 	vldr	s15, [r7, #68]	@ 0x44
 80014a8:	ee27 7aa7 	vmul.f32	s14, s15, s15
 80014ac:	eef7 6a00 	vmov.f32	s13, #112	@ 0x3f800000  1.0
 80014b0:	eec6 7a87 	vdiv.f32	s15, s13, s14
 80014b4:	edc7 7a0a 	vstr	s15, [r7, #40]	@ 0x28

    return trig;
 80014b8:	f107 042c 	add.w	r4, r7, #44	@ 0x2c
 80014bc:	f107 031c 	add.w	r3, r7, #28
 80014c0:	cb0f      	ldmia	r3, {r0, r1, r2, r3}
 80014c2:	e884 000f 	stmia.w	r4, {r0, r1, r2, r3}
 80014c6:	6af8      	ldr	r0, [r7, #44]	@ 0x2c
 80014c8:	6b39      	ldr	r1, [r7, #48]	@ 0x30
 80014ca:	6b7a      	ldr	r2, [r7, #52]	@ 0x34
 80014cc:	6bbb      	ldr	r3, [r7, #56]	@ 0x38
 80014ce:	ee06 0a10 	vmov	s12, r0
 80014d2:	ee06 1a90 	vmov	s13, r1
 80014d6:	ee07 2a10 	vmov	s14, r2
 80014da:	ee07 3a90 	vmov	s15, r3
}
 80014de:	eeb0 0a46 	vmov.f32	s0, s12
 80014e2:	eef0 0a66 	vmov.f32	s1, s13
 80014e6:	eeb0 1a47 	vmov.f32	s2, s14
 80014ea:	eef0 1a67 	vmov.f32	s3, s15
 80014ee:	374c      	adds	r7, #76	@ 0x4c
 80014f0:	46bd      	mov	sp, r7
 80014f2:	bd90      	pop	{r4, r7, pc}
 80014f4:	38d1b717 	.word	0x38d1b717

080014f8 <FillIdentity>:

static void FillIdentity(float* matrix, int size) {
 80014f8:	b480      	push	{r7}
 80014fa:	b085      	sub	sp, #20
 80014fc:	af00      	add	r7, sp, #0
 80014fe:	6078      	str	r0, [r7, #4]
 8001500:	6039      	str	r1, [r7, #0]
    for (int i = 0; i < size; i++) {
 8001502:	2300      	movs	r3, #0
 8001504:	60fb      	str	r3, [r7, #12]
 8001506:	e01f      	b.n	8001548 <FillIdentity+0x50>
        for (int j = 0; j < size; j++) {
 8001508:	2300      	movs	r3, #0
 800150a:	60bb      	str	r3, [r7, #8]
 800150c:	e015      	b.n	800153a <FillIdentity+0x42>
            matrix[i * size + j] = (i == j) ? 1.0f : 0.0f;
 800150e:	68fa      	ldr	r2, [r7, #12]
 8001510:	68bb      	ldr	r3, [r7, #8]
 8001512:	429a      	cmp	r2, r3
 8001514:	d102      	bne.n	800151c <FillIdentity+0x24>
 8001516:	f04f 527e 	mov.w	r2, #1065353216	@ 0x3f800000
 800151a:	e001      	b.n	8001520 <FillIdentity+0x28>
 800151c:	f04f 0200 	mov.w	r2, #0
 8001520:	68fb      	ldr	r3, [r7, #12]
 8001522:	6839      	ldr	r1, [r7, #0]
 8001524:	fb03 f101 	mul.w	r1, r3, r1
 8001528:	68bb      	ldr	r3, [r7, #8]
 800152a:	440b      	add	r3, r1
 800152c:	009b      	lsls	r3, r3, #2
 800152e:	6879      	ldr	r1, [r7, #4]
 8001530:	440b      	add	r3, r1
 8001532:	601a      	str	r2, [r3, #0]
        for (int j = 0; j < size; j++) {
 8001534:	68bb      	ldr	r3, [r7, #8]
 8001536:	3301      	adds	r3, #1
 8001538:	60bb      	str	r3, [r7, #8]
 800153a:	68ba      	ldr	r2, [r7, #8]
 800153c:	683b      	ldr	r3, [r7, #0]
 800153e:	429a      	cmp	r2, r3
 8001540:	dbe5      	blt.n	800150e <FillIdentity+0x16>
    for (int i = 0; i < size; i++) {
 8001542:	68fb      	ldr	r3, [r7, #12]
 8001544:	3301      	adds	r3, #1
 8001546:	60fb      	str	r3, [r7, #12]
 8001548:	68fa      	ldr	r2, [r7, #12]
 800154a:	683b      	ldr	r3, [r7, #0]
 800154c:	429a      	cmp	r2, r3
 800154e:	dbdb      	blt.n	8001508 <FillIdentity+0x10>
        }
    }
}
 8001550:	bf00      	nop
 8001552:	bf00      	nop
 8001554:	3714      	adds	r7, #20
 8001556:	46bd      	mov	sp, r7
 8001558:	f85d 7b04 	ldr.w	r7, [sp], #4
 800155c:	4770      	bx	lr

0800155e <ComputeErrorCovarianceMatrix>:

static void ComputeErrorCovarianceMatrix(ErrorCovarianceMatrix* error, const PredictionMatrix* predict, const ProcessNoiseMatrix* noise) {
 800155e:	b580      	push	{r7, lr}
 8001560:	b0be      	sub	sp, #248	@ 0xf8
 8001562:	af00      	add	r7, sp, #0
 8001564:	60f8      	str	r0, [r7, #12]
 8001566:	60b9      	str	r1, [r7, #8]
 8001568:	607a      	str	r2, [r7, #4]
	float A[MATRIX_SIZE][MATRIX_SIZE] = {0};
 800156a:	f107 0374 	add.w	r3, r7, #116	@ 0x74
 800156e:	2264      	movs	r2, #100	@ 0x64
 8001570:	2100      	movs	r1, #0
 8001572:	4618      	mov	r0, r3
 8001574:	f007 f9f2 	bl	800895c <memset>
	float B[MATRIX_SIZE][MATRIX_SIZE] = {0};
 8001578:	f107 0310 	add.w	r3, r7, #16
 800157c:	2264      	movs	r2, #100	@ 0x64
 800157e:	2100      	movs	r1, #0
 8001580:	4618      	mov	r0, r3
 8001582:	f007 f9eb 	bl	800895c <memset>

	// Multiplication
    for (int i = 0; i < MATRIX_SIZE; i++) { // Loop through each row of mat1
 8001586:	2300      	movs	r3, #0
 8001588:	f8c7 30f4 	str.w	r3, [r7, #244]	@ 0xf4
 800158c:	e058      	b.n	8001640 <ComputeErrorCovarianceMatrix+0xe2>
        for (int j = 0; j < MATRIX_SIZE; j++) { // Loop through each column of mat2
 800158e:	2300      	movs	r3, #0
 8001590:	f8c7 30f0 	str.w	r3, [r7, #240]	@ 0xf0
 8001594:	e04b      	b.n	800162e <ComputeErrorCovarianceMatrix+0xd0>
            for (int k = 0; k < MATRIX_SIZE; k++) { // Compute the dot product of row mat1[i] and column mat2[][j]
 8001596:	2300      	movs	r3, #0
 8001598:	f8c7 30ec 	str.w	r3, [r7, #236]	@ 0xec
 800159c:	e03e      	b.n	800161c <ComputeErrorCovarianceMatrix+0xbe>
                A[i][j] += predict->matrix[i][k] * error->matrix[k][j];
 800159e:	f8d7 20f4 	ldr.w	r2, [r7, #244]	@ 0xf4
 80015a2:	4613      	mov	r3, r2
 80015a4:	009b      	lsls	r3, r3, #2
 80015a6:	4413      	add	r3, r2
 80015a8:	f8d7 20f0 	ldr.w	r2, [r7, #240]	@ 0xf0
 80015ac:	4413      	add	r3, r2
 80015ae:	009b      	lsls	r3, r3, #2
 80015b0:	33f8      	adds	r3, #248	@ 0xf8
 80015b2:	443b      	add	r3, r7
 80015b4:	3b84      	subs	r3, #132	@ 0x84
 80015b6:	ed93 7a00 	vldr	s14, [r3]
 80015ba:	68b9      	ldr	r1, [r7, #8]
 80015bc:	f8d7 20f4 	ldr.w	r2, [r7, #244]	@ 0xf4
 80015c0:	4613      	mov	r3, r2
 80015c2:	009b      	lsls	r3, r3, #2
 80015c4:	4413      	add	r3, r2
 80015c6:	f8d7 20ec 	ldr.w	r2, [r7, #236]	@ 0xec
 80015ca:	4413      	add	r3, r2
 80015cc:	009b      	lsls	r3, r3, #2
 80015ce:	440b      	add	r3, r1
 80015d0:	edd3 6a00 	vldr	s13, [r3]
 80015d4:	68f9      	ldr	r1, [r7, #12]
 80015d6:	f8d7 20ec 	ldr.w	r2, [r7, #236]	@ 0xec
 80015da:	4613      	mov	r3, r2
 80015dc:	009b      	lsls	r3, r3, #2
 80015de:	4413      	add	r3, r2
 80015e0:	f8d7 20f0 	ldr.w	r2, [r7, #240]	@ 0xf0
 80015e4:	4413      	add	r3, r2
 80015e6:	009b      	lsls	r3, r3, #2
 80015e8:	440b      	add	r3, r1
 80015ea:	edd3 7a00 	vldr	s15, [r3]
 80015ee:	ee66 7aa7 	vmul.f32	s15, s13, s15
 80015f2:	ee77 7a27 	vadd.f32	s15, s14, s15
 80015f6:	f8d7 20f4 	ldr.w	r2, [r7, #244]	@ 0xf4
 80015fa:	4613      	mov	r3, r2
 80015fc:	009b      	lsls	r3, r3, #2
 80015fe:	4413      	add	r3, r2
 8001600:	f8d7 20f0 	ldr.w	r2, [r7, #240]	@ 0xf0
 8001604:	4413      	add	r3, r2
 8001606:	009b      	lsls	r3, r3, #2
 8001608:	33f8      	adds	r3, #248	@ 0xf8
 800160a:	443b      	add	r3, r7
 800160c:	3b84      	subs	r3, #132	@ 0x84
 800160e:	edc3 7a00 	vstr	s15, [r3]
            for (int k = 0; k < MATRIX_SIZE; k++) { // Compute the dot product of row mat1[i] and column mat2[][j]
 8001612:	f8d7 30ec 	ldr.w	r3, [r7, #236]	@ 0xec
 8001616:	3301      	adds	r3, #1
 8001618:	f8c7 30ec 	str.w	r3, [r7, #236]	@ 0xec
 800161c:	f8d7 30ec 	ldr.w	r3, [r7, #236]	@ 0xec
 8001620:	2b04      	cmp	r3, #4
 8001622:	ddbc      	ble.n	800159e <ComputeErrorCovarianceMatrix+0x40>
        for (int j = 0; j < MATRIX_SIZE; j++) { // Loop through each column of mat2
 8001624:	f8d7 30f0 	ldr.w	r3, [r7, #240]	@ 0xf0
 8001628:	3301      	adds	r3, #1
 800162a:	f8c7 30f0 	str.w	r3, [r7, #240]	@ 0xf0
 800162e:	f8d7 30f0 	ldr.w	r3, [r7, #240]	@ 0xf0
 8001632:	2b04      	cmp	r3, #4
 8001634:	ddaf      	ble.n	8001596 <ComputeErrorCovarianceMatrix+0x38>
    for (int i = 0; i < MATRIX_SIZE; i++) { // Loop through each row of mat1
 8001636:	f8d7 30f4 	ldr.w	r3, [r7, #244]	@ 0xf4
 800163a:	3301      	adds	r3, #1
 800163c:	f8c7 30f4 	str.w	r3, [r7, #244]	@ 0xf4
 8001640:	f8d7 30f4 	ldr.w	r3, [r7, #244]	@ 0xf4
 8001644:	2b04      	cmp	r3, #4
 8001646:	dda2      	ble.n	800158e <ComputeErrorCovarianceMatrix+0x30>
            }
        }
    }

	// Multiplication
    for (int i = 0; i < MATRIX_SIZE; i++) { // Loop through each row of mat1
 8001648:	2300      	movs	r3, #0
 800164a:	f8c7 30e8 	str.w	r3, [r7, #232]	@ 0xe8
 800164e:	e059      	b.n	8001704 <ComputeErrorCovarianceMatrix+0x1a6>
        for (int j = 0; j < MATRIX_SIZE; j++) { // Loop through each column of mat2
 8001650:	2300      	movs	r3, #0
 8001652:	f8c7 30e4 	str.w	r3, [r7, #228]	@ 0xe4
 8001656:	e04c      	b.n	80016f2 <ComputeErrorCovarianceMatrix+0x194>
            for (int k = 0; k < MATRIX_SIZE; k++) { // Compute the dot product of row mat1[i] and column mat2[][j]
 8001658:	2300      	movs	r3, #0
 800165a:	f8c7 30e0 	str.w	r3, [r7, #224]	@ 0xe0
 800165e:	e03f      	b.n	80016e0 <ComputeErrorCovarianceMatrix+0x182>
            	B[i][j] += A[i][k] * predict->matrix[j][k]; // Using Transpose of predict
 8001660:	f8d7 20e8 	ldr.w	r2, [r7, #232]	@ 0xe8
 8001664:	4613      	mov	r3, r2
 8001666:	009b      	lsls	r3, r3, #2
 8001668:	4413      	add	r3, r2
 800166a:	f8d7 20e4 	ldr.w	r2, [r7, #228]	@ 0xe4
 800166e:	4413      	add	r3, r2
 8001670:	009b      	lsls	r3, r3, #2
 8001672:	33f8      	adds	r3, #248	@ 0xf8
 8001674:	443b      	add	r3, r7
 8001676:	3be8      	subs	r3, #232	@ 0xe8
 8001678:	ed93 7a00 	vldr	s14, [r3]
 800167c:	f8d7 20e8 	ldr.w	r2, [r7, #232]	@ 0xe8
 8001680:	4613      	mov	r3, r2
 8001682:	009b      	lsls	r3, r3, #2
 8001684:	4413      	add	r3, r2
 8001686:	f8d7 20e0 	ldr.w	r2, [r7, #224]	@ 0xe0
 800168a:	4413      	add	r3, r2
 800168c:	009b      	lsls	r3, r3, #2
 800168e:	33f8      	adds	r3, #248	@ 0xf8
 8001690:	443b      	add	r3, r7
 8001692:	3b84      	subs	r3, #132	@ 0x84
 8001694:	edd3 6a00 	vldr	s13, [r3]
 8001698:	68b9      	ldr	r1, [r7, #8]
 800169a:	f8d7 20e4 	ldr.w	r2, [r7, #228]	@ 0xe4
 800169e:	4613      	mov	r3, r2
 80016a0:	009b      	lsls	r3, r3, #2
 80016a2:	4413      	add	r3, r2
 80016a4:	f8d7 20e0 	ldr.w	r2, [r7, #224]	@ 0xe0
 80016a8:	4413      	add	r3, r2
 80016aa:	009b      	lsls	r3, r3, #2
 80016ac:	440b      	add	r3, r1
 80016ae:	edd3 7a00 	vldr	s15, [r3]
 80016b2:	ee66 7aa7 	vmul.f32	s15, s13, s15
 80016b6:	ee77 7a27 	vadd.f32	s15, s14, s15
 80016ba:	f8d7 20e8 	ldr.w	r2, [r7, #232]	@ 0xe8
 80016be:	4613      	mov	r3, r2
 80016c0:	009b      	lsls	r3, r3, #2
 80016c2:	4413      	add	r3, r2
 80016c4:	f8d7 20e4 	ldr.w	r2, [r7, #228]	@ 0xe4
 80016c8:	4413      	add	r3, r2
 80016ca:	009b      	lsls	r3, r3, #2
 80016cc:	33f8      	adds	r3, #248	@ 0xf8
 80016ce:	443b      	add	r3, r7
 80016d0:	3be8      	subs	r3, #232	@ 0xe8
 80016d2:	edc3 7a00 	vstr	s15, [r3]
            for (int k = 0; k < MATRIX_SIZE; k++) { // Compute the dot product of row mat1[i] and column mat2[][j]
 80016d6:	f8d7 30e0 	ldr.w	r3, [r7, #224]	@ 0xe0
 80016da:	3301      	adds	r3, #1
 80016dc:	f8c7 30e0 	str.w	r3, [r7, #224]	@ 0xe0
 80016e0:	f8d7 30e0 	ldr.w	r3, [r7, #224]	@ 0xe0
 80016e4:	2b04      	cmp	r3, #4
 80016e6:	ddbb      	ble.n	8001660 <ComputeErrorCovarianceMatrix+0x102>
        for (int j = 0; j < MATRIX_SIZE; j++) { // Loop through each column of mat2
 80016e8:	f8d7 30e4 	ldr.w	r3, [r7, #228]	@ 0xe4
 80016ec:	3301      	adds	r3, #1
 80016ee:	f8c7 30e4 	str.w	r3, [r7, #228]	@ 0xe4
 80016f2:	f8d7 30e4 	ldr.w	r3, [r7, #228]	@ 0xe4
 80016f6:	2b04      	cmp	r3, #4
 80016f8:	ddae      	ble.n	8001658 <ComputeErrorCovarianceMatrix+0xfa>
    for (int i = 0; i < MATRIX_SIZE; i++) { // Loop through each row of mat1
 80016fa:	f8d7 30e8 	ldr.w	r3, [r7, #232]	@ 0xe8
 80016fe:	3301      	adds	r3, #1
 8001700:	f8c7 30e8 	str.w	r3, [r7, #232]	@ 0xe8
 8001704:	f8d7 30e8 	ldr.w	r3, [r7, #232]	@ 0xe8
 8001708:	2b04      	cmp	r3, #4
 800170a:	dda1      	ble.n	8001650 <ComputeErrorCovarianceMatrix+0xf2>
            }
        }
    }

	// Addition
    for (int i = 0; i < MATRIX_SIZE; i++) {
 800170c:	2300      	movs	r3, #0
 800170e:	f8c7 30dc 	str.w	r3, [r7, #220]	@ 0xdc
 8001712:	e03b      	b.n	800178c <ComputeErrorCovarianceMatrix+0x22e>
    	for (int j = 0; j < MATRIX_SIZE; j++) {
 8001714:	2300      	movs	r3, #0
 8001716:	f8c7 30d8 	str.w	r3, [r7, #216]	@ 0xd8
 800171a:	e02e      	b.n	800177a <ComputeErrorCovarianceMatrix+0x21c>
    		error->matrix[i][j] = B[i][j] + noise->matrix[i][j];
 800171c:	f8d7 20dc 	ldr.w	r2, [r7, #220]	@ 0xdc
 8001720:	4613      	mov	r3, r2
 8001722:	009b      	lsls	r3, r3, #2
 8001724:	4413      	add	r3, r2
 8001726:	f8d7 20d8 	ldr.w	r2, [r7, #216]	@ 0xd8
 800172a:	4413      	add	r3, r2
 800172c:	009b      	lsls	r3, r3, #2
 800172e:	33f8      	adds	r3, #248	@ 0xf8
 8001730:	443b      	add	r3, r7
 8001732:	3be8      	subs	r3, #232	@ 0xe8
 8001734:	ed93 7a00 	vldr	s14, [r3]
 8001738:	6879      	ldr	r1, [r7, #4]
 800173a:	f8d7 20dc 	ldr.w	r2, [r7, #220]	@ 0xdc
 800173e:	4613      	mov	r3, r2
 8001740:	009b      	lsls	r3, r3, #2
 8001742:	4413      	add	r3, r2
 8001744:	f8d7 20d8 	ldr.w	r2, [r7, #216]	@ 0xd8
 8001748:	4413      	add	r3, r2
 800174a:	009b      	lsls	r3, r3, #2
 800174c:	440b      	add	r3, r1
 800174e:	edd3 7a00 	vldr	s15, [r3]
 8001752:	ee77 7a27 	vadd.f32	s15, s14, s15
 8001756:	68f9      	ldr	r1, [r7, #12]
 8001758:	f8d7 20dc 	ldr.w	r2, [r7, #220]	@ 0xdc
 800175c:	4613      	mov	r3, r2
 800175e:	009b      	lsls	r3, r3, #2
 8001760:	4413      	add	r3, r2
 8001762:	f8d7 20d8 	ldr.w	r2, [r7, #216]	@ 0xd8
 8001766:	4413      	add	r3, r2
 8001768:	009b      	lsls	r3, r3, #2
 800176a:	440b      	add	r3, r1
 800176c:	edc3 7a00 	vstr	s15, [r3]
    	for (int j = 0; j < MATRIX_SIZE; j++) {
 8001770:	f8d7 30d8 	ldr.w	r3, [r7, #216]	@ 0xd8
 8001774:	3301      	adds	r3, #1
 8001776:	f8c7 30d8 	str.w	r3, [r7, #216]	@ 0xd8
 800177a:	f8d7 30d8 	ldr.w	r3, [r7, #216]	@ 0xd8
 800177e:	2b04      	cmp	r3, #4
 8001780:	ddcc      	ble.n	800171c <ComputeErrorCovarianceMatrix+0x1be>
    for (int i = 0; i < MATRIX_SIZE; i++) {
 8001782:	f8d7 30dc 	ldr.w	r3, [r7, #220]	@ 0xdc
 8001786:	3301      	adds	r3, #1
 8001788:	f8c7 30dc 	str.w	r3, [r7, #220]	@ 0xdc
 800178c:	f8d7 30dc 	ldr.w	r3, [r7, #220]	@ 0xdc
 8001790:	2b04      	cmp	r3, #4
 8001792:	ddbf      	ble.n	8001714 <ComputeErrorCovarianceMatrix+0x1b6>
    	}
    }
}
 8001794:	bf00      	nop
 8001796:	bf00      	nop
 8001798:	37f8      	adds	r7, #248	@ 0xf8
 800179a:	46bd      	mov	sp, r7
 800179c:	bd80      	pop	{r7, pc}

0800179e <UpdateStateVector>:

static void UpdateStateVector(StateVector* state, const KalmanGainMatrix* kalman, const ResidualErrorVector* residualerror, const CorrectedGyro* gyro, const TrigCache* trig, const float dt) {
 800179e:	b480      	push	{r7}
 80017a0:	b095      	sub	sp, #84	@ 0x54
 80017a2:	af00      	add	r7, sp, #0
 80017a4:	6178      	str	r0, [r7, #20]
 80017a6:	6139      	str	r1, [r7, #16]
 80017a8:	60fa      	str	r2, [r7, #12]
 80017aa:	60bb      	str	r3, [r7, #8]
 80017ac:	ed87 0a01 	vstr	s0, [r7, #4]
	StateVector state_l, state_d;
	for (int i = 2; i < MATRIX_SIZE; i++) {
 80017b0:	2302      	movs	r3, #2
 80017b2:	64fb      	str	r3, [r7, #76]	@ 0x4c
 80017b4:	e00d      	b.n	80017d2 <UpdateStateVector+0x34>
		state_l.vector[i] = state->vector[i];
 80017b6:	697a      	ldr	r2, [r7, #20]
 80017b8:	6cfb      	ldr	r3, [r7, #76]	@ 0x4c
 80017ba:	009b      	lsls	r3, r3, #2
 80017bc:	4413      	add	r3, r2
 80017be:	681a      	ldr	r2, [r3, #0]
 80017c0:	6cfb      	ldr	r3, [r7, #76]	@ 0x4c
 80017c2:	009b      	lsls	r3, r3, #2
 80017c4:	3350      	adds	r3, #80	@ 0x50
 80017c6:	443b      	add	r3, r7
 80017c8:	3b20      	subs	r3, #32
 80017ca:	601a      	str	r2, [r3, #0]
	for (int i = 2; i < MATRIX_SIZE; i++) {
 80017cc:	6cfb      	ldr	r3, [r7, #76]	@ 0x4c
 80017ce:	3301      	adds	r3, #1
 80017d0:	64fb      	str	r3, [r7, #76]	@ 0x4c
 80017d2:	6cfb      	ldr	r3, [r7, #76]	@ 0x4c
 80017d4:	2b04      	cmp	r3, #4
 80017d6:	ddee      	ble.n	80017b6 <UpdateStateVector+0x18>
	}

	// Calculate new predicted roll & pitch
	state_l.vector[ROLL] = state->vector[ROLL] + (gyro->Gx + gyro->Gy*trig->sin_r*trig->tan_p + gyro->Gz*trig->cos_r*trig->tan_p)*dt;
 80017d8:	697b      	ldr	r3, [r7, #20]
 80017da:	ed93 7a00 	vldr	s14, [r3]
 80017de:	68bb      	ldr	r3, [r7, #8]
 80017e0:	edd3 6a00 	vldr	s13, [r3]
 80017e4:	68bb      	ldr	r3, [r7, #8]
 80017e6:	ed93 6a01 	vldr	s12, [r3, #4]
 80017ea:	6dbb      	ldr	r3, [r7, #88]	@ 0x58
 80017ec:	edd3 7a00 	vldr	s15, [r3]
 80017f0:	ee26 6a27 	vmul.f32	s12, s12, s15
 80017f4:	6dbb      	ldr	r3, [r7, #88]	@ 0x58
 80017f6:	edd3 7a02 	vldr	s15, [r3, #8]
 80017fa:	ee66 7a27 	vmul.f32	s15, s12, s15
 80017fe:	ee76 6aa7 	vadd.f32	s13, s13, s15
 8001802:	68bb      	ldr	r3, [r7, #8]
 8001804:	ed93 6a02 	vldr	s12, [r3, #8]
 8001808:	6dbb      	ldr	r3, [r7, #88]	@ 0x58
 800180a:	edd3 7a01 	vldr	s15, [r3, #4]
 800180e:	ee26 6a27 	vmul.f32	s12, s12, s15
 8001812:	6dbb      	ldr	r3, [r7, #88]	@ 0x58
 8001814:	edd3 7a02 	vldr	s15, [r3, #8]
 8001818:	ee66 7a27 	vmul.f32	s15, s12, s15
 800181c:	ee76 6aa7 	vadd.f32	s13, s13, s15
 8001820:	edd7 7a01 	vldr	s15, [r7, #4]
 8001824:	ee66 7aa7 	vmul.f32	s15, s13, s15
 8001828:	ee77 7a27 	vadd.f32	s15, s14, s15
 800182c:	edc7 7a0c 	vstr	s15, [r7, #48]	@ 0x30
	state_l.vector[PITCH] = state->vector[PITCH] + (gyro->Gy*trig->cos_r - gyro->Gz*trig->sin_r)*dt;
 8001830:	697b      	ldr	r3, [r7, #20]
 8001832:	ed93 7a01 	vldr	s14, [r3, #4]
 8001836:	68bb      	ldr	r3, [r7, #8]
 8001838:	edd3 6a01 	vldr	s13, [r3, #4]
 800183c:	6dbb      	ldr	r3, [r7, #88]	@ 0x58
 800183e:	edd3 7a01 	vldr	s15, [r3, #4]
 8001842:	ee66 6aa7 	vmul.f32	s13, s13, s15
 8001846:	68bb      	ldr	r3, [r7, #8]
 8001848:	ed93 6a02 	vldr	s12, [r3, #8]
 800184c:	6dbb      	ldr	r3, [r7, #88]	@ 0x58
 800184e:	edd3 7a00 	vldr	s15, [r3]
 8001852:	ee66 7a27 	vmul.f32	s15, s12, s15
 8001856:	ee76 6ae7 	vsub.f32	s13, s13, s15
 800185a:	edd7 7a01 	vldr	s15, [r7, #4]
 800185e:	ee66 7aa7 	vmul.f32	s15, s13, s15
 8001862:	ee77 7a27 	vadd.f32	s15, s14, s15
 8001866:	edc7 7a0d 	vstr	s15, [r7, #52]	@ 0x34
			state_l.vector[0], state_l.vector[1], state_l.vector[2],
			state_l.vector[3], state_l.vector[4]);
	#endif // DEBUG_KALMAN

	// Calculate delta x = Ky
	for (int i = 0; i < MATRIX_SIZE; i++) {
 800186a:	2300      	movs	r3, #0
 800186c:	64bb      	str	r3, [r7, #72]	@ 0x48
 800186e:	e022      	b.n	80018b6 <UpdateStateVector+0x118>
		state_d.vector[i] = kalman->matrix[i][0]*residualerror->vector[0] + kalman->matrix[i][1]*residualerror->vector[1];
 8001870:	693a      	ldr	r2, [r7, #16]
 8001872:	6cbb      	ldr	r3, [r7, #72]	@ 0x48
 8001874:	00db      	lsls	r3, r3, #3
 8001876:	4413      	add	r3, r2
 8001878:	ed93 7a00 	vldr	s14, [r3]
 800187c:	68fb      	ldr	r3, [r7, #12]
 800187e:	edd3 7a00 	vldr	s15, [r3]
 8001882:	ee27 7a27 	vmul.f32	s14, s14, s15
 8001886:	693a      	ldr	r2, [r7, #16]
 8001888:	6cbb      	ldr	r3, [r7, #72]	@ 0x48
 800188a:	00db      	lsls	r3, r3, #3
 800188c:	4413      	add	r3, r2
 800188e:	3304      	adds	r3, #4
 8001890:	edd3 6a00 	vldr	s13, [r3]
 8001894:	68fb      	ldr	r3, [r7, #12]
 8001896:	edd3 7a01 	vldr	s15, [r3, #4]
 800189a:	ee66 7aa7 	vmul.f32	s15, s13, s15
 800189e:	ee77 7a27 	vadd.f32	s15, s14, s15
 80018a2:	6cbb      	ldr	r3, [r7, #72]	@ 0x48
 80018a4:	009b      	lsls	r3, r3, #2
 80018a6:	3350      	adds	r3, #80	@ 0x50
 80018a8:	443b      	add	r3, r7
 80018aa:	3b34      	subs	r3, #52	@ 0x34
 80018ac:	edc3 7a00 	vstr	s15, [r3]
	for (int i = 0; i < MATRIX_SIZE; i++) {
 80018b0:	6cbb      	ldr	r3, [r7, #72]	@ 0x48
 80018b2:	3301      	adds	r3, #1
 80018b4:	64bb      	str	r3, [r7, #72]	@ 0x48
 80018b6:	6cbb      	ldr	r3, [r7, #72]	@ 0x48
 80018b8:	2b04      	cmp	r3, #4
 80018ba:	ddd9      	ble.n	8001870 <UpdateStateVector+0xd2>
			state_d.vector[0], state_d.vector[1], state_d.vector[2],
			state_d.vector[3], state_d.vector[4]);
	#endif // DEBUG_KALMAN

	// Update State vector (x- + delta x)
	for (int i = 0; i < MATRIX_SIZE; i++) {
 80018bc:	2300      	movs	r3, #0
 80018be:	647b      	str	r3, [r7, #68]	@ 0x44
 80018c0:	e018      	b.n	80018f4 <UpdateStateVector+0x156>
		state->vector[i] = state_l.vector[i] + state_d.vector[i];
 80018c2:	6c7b      	ldr	r3, [r7, #68]	@ 0x44
 80018c4:	009b      	lsls	r3, r3, #2
 80018c6:	3350      	adds	r3, #80	@ 0x50
 80018c8:	443b      	add	r3, r7
 80018ca:	3b20      	subs	r3, #32
 80018cc:	ed93 7a00 	vldr	s14, [r3]
 80018d0:	6c7b      	ldr	r3, [r7, #68]	@ 0x44
 80018d2:	009b      	lsls	r3, r3, #2
 80018d4:	3350      	adds	r3, #80	@ 0x50
 80018d6:	443b      	add	r3, r7
 80018d8:	3b34      	subs	r3, #52	@ 0x34
 80018da:	edd3 7a00 	vldr	s15, [r3]
 80018de:	ee77 7a27 	vadd.f32	s15, s14, s15
 80018e2:	697a      	ldr	r2, [r7, #20]
 80018e4:	6c7b      	ldr	r3, [r7, #68]	@ 0x44
 80018e6:	009b      	lsls	r3, r3, #2
 80018e8:	4413      	add	r3, r2
 80018ea:	edc3 7a00 	vstr	s15, [r3]
	for (int i = 0; i < MATRIX_SIZE; i++) {
 80018ee:	6c7b      	ldr	r3, [r7, #68]	@ 0x44
 80018f0:	3301      	adds	r3, #1
 80018f2:	647b      	str	r3, [r7, #68]	@ 0x44
 80018f4:	6c7b      	ldr	r3, [r7, #68]	@ 0x44
 80018f6:	2b04      	cmp	r3, #4
 80018f8:	dde3      	ble.n	80018c2 <UpdateStateVector+0x124>
	}
}
 80018fa:	bf00      	nop
 80018fc:	bf00      	nop
 80018fe:	3754      	adds	r7, #84	@ 0x54
 8001900:	46bd      	mov	sp, r7
 8001902:	f85d 7b04 	ldr.w	r7, [sp], #4
 8001906:	4770      	bx	lr

08001908 <UpdateErrorCovarianceMatrix>:

static void UpdateErrorCovarianceMatrix(ErrorCovarianceMatrix* error, const KalmanGainMatrix* kalman) {
 8001908:	b580      	push	{r7, lr}
 800190a:	b0ba      	sub	sp, #232	@ 0xe8
 800190c:	af00      	add	r7, sp, #0
 800190e:	6078      	str	r0, [r7, #4]
 8001910:	6039      	str	r1, [r7, #0]
	// NOTE: Function works when H = {{1,0,0,0,0},{0,1,0,0,0}}

	float A[MATRIX_SIZE][MATRIX_SIZE] = {0};
 8001912:	f107 036c 	add.w	r3, r7, #108	@ 0x6c
 8001916:	2264      	movs	r2, #100	@ 0x64
 8001918:	2100      	movs	r1, #0
 800191a:	4618      	mov	r0, r3
 800191c:	f007 f81e 	bl	800895c <memset>
	float B[MATRIX_SIZE][MATRIX_SIZE] = {0};
 8001920:	f107 0308 	add.w	r3, r7, #8
 8001924:	2264      	movs	r2, #100	@ 0x64
 8001926:	2100      	movs	r1, #0
 8001928:	4618      	mov	r0, r3
 800192a:	f007 f817 	bl	800895c <memset>

	// Compute (I - KH)
	for (int i = 0; i < MATRIX_SIZE; i++) {
 800192e:	2300      	movs	r3, #0
 8001930:	f8c7 30e4 	str.w	r3, [r7, #228]	@ 0xe4
 8001934:	e06b      	b.n	8001a0e <UpdateErrorCovarianceMatrix+0x106>
		A[i][0] = -1.f * kalman->matrix[i][0];
 8001936:	683a      	ldr	r2, [r7, #0]
 8001938:	f8d7 30e4 	ldr.w	r3, [r7, #228]	@ 0xe4
 800193c:	00db      	lsls	r3, r3, #3
 800193e:	4413      	add	r3, r2
 8001940:	edd3 7a00 	vldr	s15, [r3]
 8001944:	eef1 7a67 	vneg.f32	s15, s15
 8001948:	f8d7 20e4 	ldr.w	r2, [r7, #228]	@ 0xe4
 800194c:	4613      	mov	r3, r2
 800194e:	009b      	lsls	r3, r3, #2
 8001950:	4413      	add	r3, r2
 8001952:	009b      	lsls	r3, r3, #2
 8001954:	33e8      	adds	r3, #232	@ 0xe8
 8001956:	443b      	add	r3, r7
 8001958:	3b7c      	subs	r3, #124	@ 0x7c
 800195a:	edc3 7a00 	vstr	s15, [r3]
		A[i][1] = -1.f * kalman->matrix[i][1];
 800195e:	683a      	ldr	r2, [r7, #0]
 8001960:	f8d7 30e4 	ldr.w	r3, [r7, #228]	@ 0xe4
 8001964:	00db      	lsls	r3, r3, #3
 8001966:	4413      	add	r3, r2
 8001968:	3304      	adds	r3, #4
 800196a:	edd3 7a00 	vldr	s15, [r3]
 800196e:	eef1 7a67 	vneg.f32	s15, s15
 8001972:	f8d7 20e4 	ldr.w	r2, [r7, #228]	@ 0xe4
 8001976:	4613      	mov	r3, r2
 8001978:	009b      	lsls	r3, r3, #2
 800197a:	4413      	add	r3, r2
 800197c:	009b      	lsls	r3, r3, #2
 800197e:	33e8      	adds	r3, #232	@ 0xe8
 8001980:	443b      	add	r3, r7
 8001982:	3b78      	subs	r3, #120	@ 0x78
 8001984:	edc3 7a00 	vstr	s15, [r3]
		A[i][2] = 0;
 8001988:	f8d7 20e4 	ldr.w	r2, [r7, #228]	@ 0xe4
 800198c:	4613      	mov	r3, r2
 800198e:	009b      	lsls	r3, r3, #2
 8001990:	4413      	add	r3, r2
 8001992:	009b      	lsls	r3, r3, #2
 8001994:	33e8      	adds	r3, #232	@ 0xe8
 8001996:	443b      	add	r3, r7
 8001998:	3b74      	subs	r3, #116	@ 0x74
 800199a:	f04f 0200 	mov.w	r2, #0
 800199e:	601a      	str	r2, [r3, #0]
		A[i][3] = 0;
 80019a0:	f8d7 20e4 	ldr.w	r2, [r7, #228]	@ 0xe4
 80019a4:	4613      	mov	r3, r2
 80019a6:	009b      	lsls	r3, r3, #2
 80019a8:	4413      	add	r3, r2
 80019aa:	009b      	lsls	r3, r3, #2
 80019ac:	33e8      	adds	r3, #232	@ 0xe8
 80019ae:	443b      	add	r3, r7
 80019b0:	3b70      	subs	r3, #112	@ 0x70
 80019b2:	f04f 0200 	mov.w	r2, #0
 80019b6:	601a      	str	r2, [r3, #0]
		A[i][4] = 0;
 80019b8:	f8d7 20e4 	ldr.w	r2, [r7, #228]	@ 0xe4
 80019bc:	4613      	mov	r3, r2
 80019be:	009b      	lsls	r3, r3, #2
 80019c0:	4413      	add	r3, r2
 80019c2:	009b      	lsls	r3, r3, #2
 80019c4:	33e8      	adds	r3, #232	@ 0xe8
 80019c6:	443b      	add	r3, r7
 80019c8:	3b6c      	subs	r3, #108	@ 0x6c
 80019ca:	f04f 0200 	mov.w	r2, #0
 80019ce:	601a      	str	r2, [r3, #0]

		A[i][i] += 1.f;
 80019d0:	f8d7 20e4 	ldr.w	r2, [r7, #228]	@ 0xe4
 80019d4:	4613      	mov	r3, r2
 80019d6:	005b      	lsls	r3, r3, #1
 80019d8:	4413      	add	r3, r2
 80019da:	00db      	lsls	r3, r3, #3
 80019dc:	33e8      	adds	r3, #232	@ 0xe8
 80019de:	443b      	add	r3, r7
 80019e0:	3b7c      	subs	r3, #124	@ 0x7c
 80019e2:	edd3 7a00 	vldr	s15, [r3]
 80019e6:	eeb7 7a00 	vmov.f32	s14, #112	@ 0x3f800000  1.0
 80019ea:	ee77 7a87 	vadd.f32	s15, s15, s14
 80019ee:	f8d7 20e4 	ldr.w	r2, [r7, #228]	@ 0xe4
 80019f2:	4613      	mov	r3, r2
 80019f4:	005b      	lsls	r3, r3, #1
 80019f6:	4413      	add	r3, r2
 80019f8:	00db      	lsls	r3, r3, #3
 80019fa:	33e8      	adds	r3, #232	@ 0xe8
 80019fc:	443b      	add	r3, r7
 80019fe:	3b7c      	subs	r3, #124	@ 0x7c
 8001a00:	edc3 7a00 	vstr	s15, [r3]
	for (int i = 0; i < MATRIX_SIZE; i++) {
 8001a04:	f8d7 30e4 	ldr.w	r3, [r7, #228]	@ 0xe4
 8001a08:	3301      	adds	r3, #1
 8001a0a:	f8c7 30e4 	str.w	r3, [r7, #228]	@ 0xe4
 8001a0e:	f8d7 30e4 	ldr.w	r3, [r7, #228]	@ 0xe4
 8001a12:	2b04      	cmp	r3, #4
 8001a14:	dd8f      	ble.n	8001936 <UpdateErrorCovarianceMatrix+0x2e>
	}

	// Multiplication: O(125) Time, O(25) Space
    for (int i = 0; i < MATRIX_SIZE; i++) { // Loop through each row of mat1
 8001a16:	2300      	movs	r3, #0
 8001a18:	f8c7 30e0 	str.w	r3, [r7, #224]	@ 0xe0
 8001a1c:	e059      	b.n	8001ad2 <UpdateErrorCovarianceMatrix+0x1ca>
        for (int j = 0; j < MATRIX_SIZE; j++) { // Loop through each column of mat2
 8001a1e:	2300      	movs	r3, #0
 8001a20:	f8c7 30dc 	str.w	r3, [r7, #220]	@ 0xdc
 8001a24:	e04c      	b.n	8001ac0 <UpdateErrorCovarianceMatrix+0x1b8>
            for (int k = 0; k < MATRIX_SIZE; k++) { // Compute the dot product of row mat1[i] and column mat2[][j]
 8001a26:	2300      	movs	r3, #0
 8001a28:	f8c7 30d8 	str.w	r3, [r7, #216]	@ 0xd8
 8001a2c:	e03f      	b.n	8001aae <UpdateErrorCovarianceMatrix+0x1a6>
            	B[i][j] += A[i][k] * error->matrix[k][j];
 8001a2e:	f8d7 20e0 	ldr.w	r2, [r7, #224]	@ 0xe0
 8001a32:	4613      	mov	r3, r2
 8001a34:	009b      	lsls	r3, r3, #2
 8001a36:	4413      	add	r3, r2
 8001a38:	f8d7 20dc 	ldr.w	r2, [r7, #220]	@ 0xdc
 8001a3c:	4413      	add	r3, r2
 8001a3e:	009b      	lsls	r3, r3, #2
 8001a40:	33e8      	adds	r3, #232	@ 0xe8
 8001a42:	443b      	add	r3, r7
 8001a44:	3be0      	subs	r3, #224	@ 0xe0
 8001a46:	ed93 7a00 	vldr	s14, [r3]
 8001a4a:	f8d7 20e0 	ldr.w	r2, [r7, #224]	@ 0xe0
 8001a4e:	4613      	mov	r3, r2
 8001a50:	009b      	lsls	r3, r3, #2
 8001a52:	4413      	add	r3, r2
 8001a54:	f8d7 20d8 	ldr.w	r2, [r7, #216]	@ 0xd8
 8001a58:	4413      	add	r3, r2
 8001a5a:	009b      	lsls	r3, r3, #2
 8001a5c:	33e8      	adds	r3, #232	@ 0xe8
 8001a5e:	443b      	add	r3, r7
 8001a60:	3b7c      	subs	r3, #124	@ 0x7c
 8001a62:	edd3 6a00 	vldr	s13, [r3]
 8001a66:	6879      	ldr	r1, [r7, #4]
 8001a68:	f8d7 20d8 	ldr.w	r2, [r7, #216]	@ 0xd8
 8001a6c:	4613      	mov	r3, r2
 8001a6e:	009b      	lsls	r3, r3, #2
 8001a70:	4413      	add	r3, r2
 8001a72:	f8d7 20dc 	ldr.w	r2, [r7, #220]	@ 0xdc
 8001a76:	4413      	add	r3, r2
 8001a78:	009b      	lsls	r3, r3, #2
 8001a7a:	440b      	add	r3, r1
 8001a7c:	edd3 7a00 	vldr	s15, [r3]
 8001a80:	ee66 7aa7 	vmul.f32	s15, s13, s15
 8001a84:	ee77 7a27 	vadd.f32	s15, s14, s15
 8001a88:	f8d7 20e0 	ldr.w	r2, [r7, #224]	@ 0xe0
 8001a8c:	4613      	mov	r3, r2
 8001a8e:	009b      	lsls	r3, r3, #2
 8001a90:	4413      	add	r3, r2
 8001a92:	f8d7 20dc 	ldr.w	r2, [r7, #220]	@ 0xdc
 8001a96:	4413      	add	r3, r2
 8001a98:	009b      	lsls	r3, r3, #2
 8001a9a:	33e8      	adds	r3, #232	@ 0xe8
 8001a9c:	443b      	add	r3, r7
 8001a9e:	3be0      	subs	r3, #224	@ 0xe0
 8001aa0:	edc3 7a00 	vstr	s15, [r3]
            for (int k = 0; k < MATRIX_SIZE; k++) { // Compute the dot product of row mat1[i] and column mat2[][j]
 8001aa4:	f8d7 30d8 	ldr.w	r3, [r7, #216]	@ 0xd8
 8001aa8:	3301      	adds	r3, #1
 8001aaa:	f8c7 30d8 	str.w	r3, [r7, #216]	@ 0xd8
 8001aae:	f8d7 30d8 	ldr.w	r3, [r7, #216]	@ 0xd8
 8001ab2:	2b04      	cmp	r3, #4
 8001ab4:	ddbb      	ble.n	8001a2e <UpdateErrorCovarianceMatrix+0x126>
        for (int j = 0; j < MATRIX_SIZE; j++) { // Loop through each column of mat2
 8001ab6:	f8d7 30dc 	ldr.w	r3, [r7, #220]	@ 0xdc
 8001aba:	3301      	adds	r3, #1
 8001abc:	f8c7 30dc 	str.w	r3, [r7, #220]	@ 0xdc
 8001ac0:	f8d7 30dc 	ldr.w	r3, [r7, #220]	@ 0xdc
 8001ac4:	2b04      	cmp	r3, #4
 8001ac6:	ddae      	ble.n	8001a26 <UpdateErrorCovarianceMatrix+0x11e>
    for (int i = 0; i < MATRIX_SIZE; i++) { // Loop through each row of mat1
 8001ac8:	f8d7 30e0 	ldr.w	r3, [r7, #224]	@ 0xe0
 8001acc:	3301      	adds	r3, #1
 8001ace:	f8c7 30e0 	str.w	r3, [r7, #224]	@ 0xe0
 8001ad2:	f8d7 30e0 	ldr.w	r3, [r7, #224]	@ 0xe0
 8001ad6:	2b04      	cmp	r3, #4
 8001ad8:	dda1      	ble.n	8001a1e <UpdateErrorCovarianceMatrix+0x116>
            }
        }
    }

    // Copy: O(25) Time, O(1) Space
    for (int i = 0; i < MATRIX_SIZE; i++) {
 8001ada:	2300      	movs	r3, #0
 8001adc:	f8c7 30d4 	str.w	r3, [r7, #212]	@ 0xd4
 8001ae0:	e02a      	b.n	8001b38 <UpdateErrorCovarianceMatrix+0x230>
        for (int j = 0; j < MATRIX_SIZE; j++) {
 8001ae2:	2300      	movs	r3, #0
 8001ae4:	f8c7 30d0 	str.w	r3, [r7, #208]	@ 0xd0
 8001ae8:	e01d      	b.n	8001b26 <UpdateErrorCovarianceMatrix+0x21e>
			error->matrix[i][j] = B[i][j];
 8001aea:	f8d7 20d4 	ldr.w	r2, [r7, #212]	@ 0xd4
 8001aee:	4613      	mov	r3, r2
 8001af0:	009b      	lsls	r3, r3, #2
 8001af2:	4413      	add	r3, r2
 8001af4:	f8d7 20d0 	ldr.w	r2, [r7, #208]	@ 0xd0
 8001af8:	4413      	add	r3, r2
 8001afa:	009b      	lsls	r3, r3, #2
 8001afc:	33e8      	adds	r3, #232	@ 0xe8
 8001afe:	443b      	add	r3, r7
 8001b00:	3be0      	subs	r3, #224	@ 0xe0
 8001b02:	6819      	ldr	r1, [r3, #0]
 8001b04:	6878      	ldr	r0, [r7, #4]
 8001b06:	f8d7 20d4 	ldr.w	r2, [r7, #212]	@ 0xd4
 8001b0a:	4613      	mov	r3, r2
 8001b0c:	009b      	lsls	r3, r3, #2
 8001b0e:	4413      	add	r3, r2
 8001b10:	f8d7 20d0 	ldr.w	r2, [r7, #208]	@ 0xd0
 8001b14:	4413      	add	r3, r2
 8001b16:	009b      	lsls	r3, r3, #2
 8001b18:	4403      	add	r3, r0
 8001b1a:	6019      	str	r1, [r3, #0]
        for (int j = 0; j < MATRIX_SIZE; j++) {
 8001b1c:	f8d7 30d0 	ldr.w	r3, [r7, #208]	@ 0xd0
 8001b20:	3301      	adds	r3, #1
 8001b22:	f8c7 30d0 	str.w	r3, [r7, #208]	@ 0xd0
 8001b26:	f8d7 30d0 	ldr.w	r3, [r7, #208]	@ 0xd0
 8001b2a:	2b04      	cmp	r3, #4
 8001b2c:	dddd      	ble.n	8001aea <UpdateErrorCovarianceMatrix+0x1e2>
    for (int i = 0; i < MATRIX_SIZE; i++) {
 8001b2e:	f8d7 30d4 	ldr.w	r3, [r7, #212]	@ 0xd4
 8001b32:	3301      	adds	r3, #1
 8001b34:	f8c7 30d4 	str.w	r3, [r7, #212]	@ 0xd4
 8001b38:	f8d7 30d4 	ldr.w	r3, [r7, #212]	@ 0xd4
 8001b3c:	2b04      	cmp	r3, #4
 8001b3e:	ddd0      	ble.n	8001ae2 <UpdateErrorCovarianceMatrix+0x1da>
        }
    }
}
 8001b40:	bf00      	nop
 8001b42:	bf00      	nop
 8001b44:	37e8      	adds	r7, #232	@ 0xe8
 8001b46:	46bd      	mov	sp, r7
 8001b48:	bd80      	pop	{r7, pc}
	...

08001b4c <HAL_ADC_ConvCpltCallback>:
/* Private user code ---------------------------------------------------------*/
/* USER CODE BEGIN 0 */

/* --- ADC conversion complete callback (called from DMA ISR) --- */
void HAL_ADC_ConvCpltCallback(ADC_HandleTypeDef *hadc)
{
 8001b4c:	b480      	push	{r7}
 8001b4e:	b083      	sub	sp, #12
 8001b50:	af00      	add	r7, sp, #0
 8001b52:	6078      	str	r0, [r7, #4]
    if (hadc->Instance == ADC1)
 8001b54:	687b      	ldr	r3, [r7, #4]
 8001b56:	681b      	ldr	r3, [r3, #0]
 8001b58:	f1b3 4fa0 	cmp.w	r3, #1342177280	@ 0x50000000
 8001b5c:	d124      	bne.n	8001ba8 <HAL_ADC_ConvCpltCallback+0x5c>
    {
        accel_y = ((float)adc_buf[0] - ACCEL_Y_ZERO_G) / ACCEL_Y_SENS;
 8001b5e:	4b21      	ldr	r3, [pc, #132]	@ (8001be4 <HAL_ADC_ConvCpltCallback+0x98>)
 8001b60:	881b      	ldrh	r3, [r3, #0]
 8001b62:	b29b      	uxth	r3, r3
 8001b64:	ee07 3a90 	vmov	s15, r3
 8001b68:	eef8 7a67 	vcvt.f32.u32	s15, s15
 8001b6c:	ed9f 7a1e 	vldr	s14, [pc, #120]	@ 8001be8 <HAL_ADC_ConvCpltCallback+0x9c>
 8001b70:	ee37 7ac7 	vsub.f32	s14, s15, s14
 8001b74:	eddf 6a1d 	vldr	s13, [pc, #116]	@ 8001bec <HAL_ADC_ConvCpltCallback+0xa0>
 8001b78:	eec7 7a26 	vdiv.f32	s15, s14, s13
 8001b7c:	4b1c      	ldr	r3, [pc, #112]	@ (8001bf0 <HAL_ADC_ConvCpltCallback+0xa4>)
 8001b7e:	edc3 7a00 	vstr	s15, [r3]
        accel_z = ((float)adc_buf[1] - ACCEL_Z_ZERO_G) / ACCEL_Z_SENS;
 8001b82:	4b18      	ldr	r3, [pc, #96]	@ (8001be4 <HAL_ADC_ConvCpltCallback+0x98>)
 8001b84:	885b      	ldrh	r3, [r3, #2]
 8001b86:	b29b      	uxth	r3, r3
 8001b88:	ee07 3a90 	vmov	s15, r3
 8001b8c:	eef8 7a67 	vcvt.f32.u32	s15, s15
 8001b90:	ed9f 7a15 	vldr	s14, [pc, #84]	@ 8001be8 <HAL_ADC_ConvCpltCallback+0x9c>
 8001b94:	ee37 7ac7 	vsub.f32	s14, s15, s14
 8001b98:	eddf 6a14 	vldr	s13, [pc, #80]	@ 8001bec <HAL_ADC_ConvCpltCallback+0xa0>
 8001b9c:	eec7 7a26 	vdiv.f32	s15, s14, s13
 8001ba0:	4b14      	ldr	r3, [pc, #80]	@ (8001bf4 <HAL_ADC_ConvCpltCallback+0xa8>)
 8001ba2:	edc3 7a00 	vstr	s15, [r3]
    }
    else if (hadc->Instance == ADC2)
    {
        accel_x = ((float)adc_x - ACCEL_X_ZERO_G) / ACCEL_X_SENS;
    }
}
 8001ba6:	e016      	b.n	8001bd6 <HAL_ADC_ConvCpltCallback+0x8a>
    else if (hadc->Instance == ADC2)
 8001ba8:	687b      	ldr	r3, [r7, #4]
 8001baa:	681b      	ldr	r3, [r3, #0]
 8001bac:	4a12      	ldr	r2, [pc, #72]	@ (8001bf8 <HAL_ADC_ConvCpltCallback+0xac>)
 8001bae:	4293      	cmp	r3, r2
 8001bb0:	d111      	bne.n	8001bd6 <HAL_ADC_ConvCpltCallback+0x8a>
        accel_x = ((float)adc_x - ACCEL_X_ZERO_G) / ACCEL_X_SENS;
 8001bb2:	4b12      	ldr	r3, [pc, #72]	@ (8001bfc <HAL_ADC_ConvCpltCallback+0xb0>)
 8001bb4:	881b      	ldrh	r3, [r3, #0]
 8001bb6:	b29b      	uxth	r3, r3
 8001bb8:	ee07 3a90 	vmov	s15, r3
 8001bbc:	eef8 7a67 	vcvt.f32.u32	s15, s15
 8001bc0:	ed9f 7a0f 	vldr	s14, [pc, #60]	@ 8001c00 <HAL_ADC_ConvCpltCallback+0xb4>
 8001bc4:	ee37 7ac7 	vsub.f32	s14, s15, s14
 8001bc8:	eddf 6a0e 	vldr	s13, [pc, #56]	@ 8001c04 <HAL_ADC_ConvCpltCallback+0xb8>
 8001bcc:	eec7 7a26 	vdiv.f32	s15, s14, s13
 8001bd0:	4b0d      	ldr	r3, [pc, #52]	@ (8001c08 <HAL_ADC_ConvCpltCallback+0xbc>)
 8001bd2:	edc3 7a00 	vstr	s15, [r3]
}
 8001bd6:	bf00      	nop
 8001bd8:	370c      	adds	r7, #12
 8001bda:	46bd      	mov	sp, r7
 8001bdc:	f85d 7b04 	ldr.w	r7, [sp], #4
 8001be0:	4770      	bx	lr
 8001be2:	bf00      	nop
 8001be4:	200003c4 	.word	0x200003c4
 8001be8:	468bd600 	.word	0x468bd600
 8001bec:	45783000 	.word	0x45783000
 8001bf0:	200003d0 	.word	0x200003d0
 8001bf4:	200003d4 	.word	0x200003d4
 8001bf8:	50000100 	.word	0x50000100
 8001bfc:	200003c8 	.word	0x200003c8
 8001c00:	46870c00 	.word	0x46870c00
 8001c04:	4572f000 	.word	0x4572f000
 8001c08:	200003cc 	.word	0x200003cc
 8001c0c:	00000000 	.word	0x00000000

08001c10 <HAL_SPI_RxCpltCallback>:

/* --- SPI gyroscope callback --- */
void HAL_SPI_RxCpltCallback(SPI_HandleTypeDef *hspi)
{
 8001c10:	b580      	push	{r7, lr}
 8001c12:	b084      	sub	sp, #16
 8001c14:	af00      	add	r7, sp, #0
 8001c16:	6078      	str	r0, [r7, #4]
    if (hspi == &hspi1)
 8001c18:	687b      	ldr	r3, [r7, #4]
 8001c1a:	4a4d      	ldr	r2, [pc, #308]	@ (8001d50 <HAL_SPI_RxCpltCallback+0x140>)
 8001c1c:	4293      	cmp	r3, r2
 8001c1e:	f040 808d 	bne.w	8001d3c <HAL_SPI_RxCpltCallback+0x12c>
    {
        IMU_CS_HIGH();
 8001c22:	2201      	movs	r2, #1
 8001c24:	2110      	movs	r1, #16
 8001c26:	f04f 4090 	mov.w	r0, #1207959552	@ 0x48000000
 8001c2a:	f003 fd2b 	bl	8005684 <HAL_GPIO_WritePin>

        int16_t raw_x = (int16_t)((gyro_dma_buf[0] << 8) | gyro_dma_buf[1]);
 8001c2e:	4b49      	ldr	r3, [pc, #292]	@ (8001d54 <HAL_SPI_RxCpltCallback+0x144>)
 8001c30:	781b      	ldrb	r3, [r3, #0]
 8001c32:	b21b      	sxth	r3, r3
 8001c34:	021b      	lsls	r3, r3, #8
 8001c36:	b21a      	sxth	r2, r3
 8001c38:	4b46      	ldr	r3, [pc, #280]	@ (8001d54 <HAL_SPI_RxCpltCallback+0x144>)
 8001c3a:	785b      	ldrb	r3, [r3, #1]
 8001c3c:	b21b      	sxth	r3, r3
 8001c3e:	4313      	orrs	r3, r2
 8001c40:	81fb      	strh	r3, [r7, #14]
        int16_t raw_y = (int16_t)((gyro_dma_buf[2] << 8) | gyro_dma_buf[3]);
 8001c42:	4b44      	ldr	r3, [pc, #272]	@ (8001d54 <HAL_SPI_RxCpltCallback+0x144>)
 8001c44:	789b      	ldrb	r3, [r3, #2]
 8001c46:	b21b      	sxth	r3, r3
 8001c48:	021b      	lsls	r3, r3, #8
 8001c4a:	b21a      	sxth	r2, r3
 8001c4c:	4b41      	ldr	r3, [pc, #260]	@ (8001d54 <HAL_SPI_RxCpltCallback+0x144>)
 8001c4e:	78db      	ldrb	r3, [r3, #3]
 8001c50:	b21b      	sxth	r3, r3
 8001c52:	4313      	orrs	r3, r2
 8001c54:	81bb      	strh	r3, [r7, #12]
        int16_t raw_z = (int16_t)((gyro_dma_buf[4] << 8) | gyro_dma_buf[5]);
 8001c56:	4b3f      	ldr	r3, [pc, #252]	@ (8001d54 <HAL_SPI_RxCpltCallback+0x144>)
 8001c58:	791b      	ldrb	r3, [r3, #4]
 8001c5a:	b21b      	sxth	r3, r3
 8001c5c:	021b      	lsls	r3, r3, #8
 8001c5e:	b21a      	sxth	r2, r3
 8001c60:	4b3c      	ldr	r3, [pc, #240]	@ (8001d54 <HAL_SPI_RxCpltCallback+0x144>)
 8001c62:	795b      	ldrb	r3, [r3, #5]
 8001c64:	b21b      	sxth	r3, r3
 8001c66:	4313      	orrs	r3, r2
 8001c68:	817b      	strh	r3, [r7, #10]

        gyro_x = (float)raw_x / 131.0f * (M_PI / 180.0f);
 8001c6a:	f9b7 300e 	ldrsh.w	r3, [r7, #14]
 8001c6e:	ee07 3a90 	vmov	s15, r3
 8001c72:	eef8 7ae7 	vcvt.f32.s32	s15, s15
 8001c76:	ed9f 7a38 	vldr	s14, [pc, #224]	@ 8001d58 <HAL_SPI_RxCpltCallback+0x148>
 8001c7a:	eec7 6a87 	vdiv.f32	s13, s15, s14
 8001c7e:	ee16 0a90 	vmov	r0, s13
 8001c82:	f7fe fc2d 	bl	80004e0 <__aeabi_f2d>
 8001c86:	a330      	add	r3, pc, #192	@ (adr r3, 8001d48 <HAL_SPI_RxCpltCallback+0x138>)
 8001c88:	e9d3 2300 	ldrd	r2, r3, [r3]
 8001c8c:	f7fe fc80 	bl	8000590 <__aeabi_dmul>
 8001c90:	4602      	mov	r2, r0
 8001c92:	460b      	mov	r3, r1
 8001c94:	4610      	mov	r0, r2
 8001c96:	4619      	mov	r1, r3
 8001c98:	f7fe ff3c 	bl	8000b14 <__aeabi_d2f>
 8001c9c:	4603      	mov	r3, r0
 8001c9e:	4a2f      	ldr	r2, [pc, #188]	@ (8001d5c <HAL_SPI_RxCpltCallback+0x14c>)
 8001ca0:	6013      	str	r3, [r2, #0]
        gyro_y = (float)raw_y / 131.0f * (M_PI / 180.0f);
 8001ca2:	f9b7 300c 	ldrsh.w	r3, [r7, #12]
 8001ca6:	ee07 3a90 	vmov	s15, r3
 8001caa:	eef8 7ae7 	vcvt.f32.s32	s15, s15
 8001cae:	ed9f 7a2a 	vldr	s14, [pc, #168]	@ 8001d58 <HAL_SPI_RxCpltCallback+0x148>
 8001cb2:	eec7 6a87 	vdiv.f32	s13, s15, s14
 8001cb6:	ee16 0a90 	vmov	r0, s13
 8001cba:	f7fe fc11 	bl	80004e0 <__aeabi_f2d>
 8001cbe:	a322      	add	r3, pc, #136	@ (adr r3, 8001d48 <HAL_SPI_RxCpltCallback+0x138>)
 8001cc0:	e9d3 2300 	ldrd	r2, r3, [r3]
 8001cc4:	f7fe fc64 	bl	8000590 <__aeabi_dmul>
 8001cc8:	4602      	mov	r2, r0
 8001cca:	460b      	mov	r3, r1
 8001ccc:	4610      	mov	r0, r2
 8001cce:	4619      	mov	r1, r3
 8001cd0:	f7fe ff20 	bl	8000b14 <__aeabi_d2f>
 8001cd4:	4603      	mov	r3, r0
 8001cd6:	4a22      	ldr	r2, [pc, #136]	@ (8001d60 <HAL_SPI_RxCpltCallback+0x150>)
 8001cd8:	6013      	str	r3, [r2, #0]
        gyro_z = (float)raw_z / 131.0f * (M_PI / 180.0f);
 8001cda:	f9b7 300a 	ldrsh.w	r3, [r7, #10]
 8001cde:	ee07 3a90 	vmov	s15, r3
 8001ce2:	eef8 7ae7 	vcvt.f32.s32	s15, s15
 8001ce6:	ed9f 7a1c 	vldr	s14, [pc, #112]	@ 8001d58 <HAL_SPI_RxCpltCallback+0x148>
 8001cea:	eec7 6a87 	vdiv.f32	s13, s15, s14
 8001cee:	ee16 0a90 	vmov	r0, s13
 8001cf2:	f7fe fbf5 	bl	80004e0 <__aeabi_f2d>
 8001cf6:	a314      	add	r3, pc, #80	@ (adr r3, 8001d48 <HAL_SPI_RxCpltCallback+0x138>)
 8001cf8:	e9d3 2300 	ldrd	r2, r3, [r3]
 8001cfc:	f7fe fc48 	bl	8000590 <__aeabi_dmul>
 8001d00:	4602      	mov	r2, r0
 8001d02:	460b      	mov	r3, r1
 8001d04:	4610      	mov	r0, r2
 8001d06:	4619      	mov	r1, r3
 8001d08:	f7fe ff04 	bl	8000b14 <__aeabi_d2f>
 8001d0c:	4603      	mov	r3, r0
 8001d0e:	4a15      	ldr	r2, [pc, #84]	@ (8001d64 <HAL_SPI_RxCpltCallback+0x154>)
 8001d10:	6013      	str	r3, [r2, #0]

        gyro_dma_ready = true;
 8001d12:	4b15      	ldr	r3, [pc, #84]	@ (8001d68 <HAL_SPI_RxCpltCallback+0x158>)
 8001d14:	2201      	movs	r2, #1
 8001d16:	701a      	strb	r2, [r3, #0]

        IMU_CS_LOW();
 8001d18:	2200      	movs	r2, #0
 8001d1a:	2110      	movs	r1, #16
 8001d1c:	f04f 4090 	mov.w	r0, #1207959552	@ 0x48000000
 8001d20:	f003 fcb0 	bl	8005684 <HAL_GPIO_WritePin>
        HAL_SPI_Transmit(&hspi1, &gyro_addr, 1, HAL_MAX_DELAY);
 8001d24:	f04f 33ff 	mov.w	r3, #4294967295
 8001d28:	2201      	movs	r2, #1
 8001d2a:	4910      	ldr	r1, [pc, #64]	@ (8001d6c <HAL_SPI_RxCpltCallback+0x15c>)
 8001d2c:	4808      	ldr	r0, [pc, #32]	@ (8001d50 <HAL_SPI_RxCpltCallback+0x140>)
 8001d2e:	f005 f986 	bl	800703e <HAL_SPI_Transmit>
        HAL_SPI_Receive_DMA(&hspi1, gyro_dma_buf, 6);
 8001d32:	2206      	movs	r2, #6
 8001d34:	4907      	ldr	r1, [pc, #28]	@ (8001d54 <HAL_SPI_RxCpltCallback+0x144>)
 8001d36:	4806      	ldr	r0, [pc, #24]	@ (8001d50 <HAL_SPI_RxCpltCallback+0x140>)
 8001d38:	f005 fd16 	bl	8007768 <HAL_SPI_Receive_DMA>
    }
}
 8001d3c:	bf00      	nop
 8001d3e:	3710      	adds	r7, #16
 8001d40:	46bd      	mov	sp, r7
 8001d42:	bd80      	pop	{r7, pc}
 8001d44:	f3af 8000 	nop.w
 8001d48:	a2529d39 	.word	0xa2529d39
 8001d4c:	3f91df46 	.word	0x3f91df46
 8001d50:	20000268 	.word	0x20000268
 8001d54:	200003e8 	.word	0x200003e8
 8001d58:	43030000 	.word	0x43030000
 8001d5c:	200003dc 	.word	0x200003dc
 8001d60:	200003e0 	.word	0x200003e0
 8001d64:	200003e4 	.word	0x200003e4
 8001d68:	200003ee 	.word	0x200003ee
 8001d6c:	20000000 	.word	0x20000000

08001d70 <IMU_WriteReg>:

/* --- SPI / IMU helpers --- */
static void IMU_WriteReg(uint8_t reg, uint8_t data)
{
 8001d70:	b580      	push	{r7, lr}
 8001d72:	b084      	sub	sp, #16
 8001d74:	af00      	add	r7, sp, #0
 8001d76:	4603      	mov	r3, r0
 8001d78:	460a      	mov	r2, r1
 8001d7a:	71fb      	strb	r3, [r7, #7]
 8001d7c:	4613      	mov	r3, r2
 8001d7e:	71bb      	strb	r3, [r7, #6]
    uint8_t tx[2] = { reg & 0x7F, data };
 8001d80:	79fb      	ldrb	r3, [r7, #7]
 8001d82:	f003 037f 	and.w	r3, r3, #127	@ 0x7f
 8001d86:	b2db      	uxtb	r3, r3
 8001d88:	733b      	strb	r3, [r7, #12]
 8001d8a:	79bb      	ldrb	r3, [r7, #6]
 8001d8c:	737b      	strb	r3, [r7, #13]
    IMU_CS_LOW();
 8001d8e:	2200      	movs	r2, #0
 8001d90:	2110      	movs	r1, #16
 8001d92:	f04f 4090 	mov.w	r0, #1207959552	@ 0x48000000
 8001d96:	f003 fc75 	bl	8005684 <HAL_GPIO_WritePin>
    HAL_SPI_Transmit(&hspi1, tx, 2, HAL_MAX_DELAY);
 8001d9a:	f107 010c 	add.w	r1, r7, #12
 8001d9e:	f04f 33ff 	mov.w	r3, #4294967295
 8001da2:	2202      	movs	r2, #2
 8001da4:	4806      	ldr	r0, [pc, #24]	@ (8001dc0 <IMU_WriteReg+0x50>)
 8001da6:	f005 f94a 	bl	800703e <HAL_SPI_Transmit>
    IMU_CS_HIGH();
 8001daa:	2201      	movs	r2, #1
 8001dac:	2110      	movs	r1, #16
 8001dae:	f04f 4090 	mov.w	r0, #1207959552	@ 0x48000000
 8001db2:	f003 fc67 	bl	8005684 <HAL_GPIO_WritePin>
}
 8001db6:	bf00      	nop
 8001db8:	3710      	adds	r7, #16
 8001dba:	46bd      	mov	sp, r7
 8001dbc:	bd80      	pop	{r7, pc}
 8001dbe:	bf00      	nop
 8001dc0:	20000268 	.word	0x20000268

08001dc4 <IMU_ReadReg>:

static uint8_t IMU_ReadReg(uint8_t reg)
{
 8001dc4:	b580      	push	{r7, lr}
 8001dc6:	b086      	sub	sp, #24
 8001dc8:	af02      	add	r7, sp, #8
 8001dca:	4603      	mov	r3, r0
 8001dcc:	71fb      	strb	r3, [r7, #7]
    uint8_t tx[2] = { reg | 0x80, 0x00 };
 8001dce:	79fb      	ldrb	r3, [r7, #7]
 8001dd0:	f063 037f 	orn	r3, r3, #127	@ 0x7f
 8001dd4:	b2db      	uxtb	r3, r3
 8001dd6:	733b      	strb	r3, [r7, #12]
 8001dd8:	2300      	movs	r3, #0
 8001dda:	737b      	strb	r3, [r7, #13]
    uint8_t rx[2] = { 0x00, 0x00 };
 8001ddc:	2300      	movs	r3, #0
 8001dde:	813b      	strh	r3, [r7, #8]
    IMU_CS_LOW();
 8001de0:	2200      	movs	r2, #0
 8001de2:	2110      	movs	r1, #16
 8001de4:	f04f 4090 	mov.w	r0, #1207959552	@ 0x48000000
 8001de8:	f003 fc4c 	bl	8005684 <HAL_GPIO_WritePin>
    HAL_SPI_TransmitReceive(&hspi1, tx, rx, 2, HAL_MAX_DELAY);
 8001dec:	f107 0208 	add.w	r2, r7, #8
 8001df0:	f107 010c 	add.w	r1, r7, #12
 8001df4:	f04f 33ff 	mov.w	r3, #4294967295
 8001df8:	9300      	str	r3, [sp, #0]
 8001dfa:	2302      	movs	r3, #2
 8001dfc:	4806      	ldr	r0, [pc, #24]	@ (8001e18 <IMU_ReadReg+0x54>)
 8001dfe:	f005 fa94 	bl	800732a <HAL_SPI_TransmitReceive>
    IMU_CS_HIGH();
 8001e02:	2201      	movs	r2, #1
 8001e04:	2110      	movs	r1, #16
 8001e06:	f04f 4090 	mov.w	r0, #1207959552	@ 0x48000000
 8001e0a:	f003 fc3b 	bl	8005684 <HAL_GPIO_WritePin>
    return rx[1];
 8001e0e:	7a7b      	ldrb	r3, [r7, #9]
}
 8001e10:	4618      	mov	r0, r3
 8001e12:	3710      	adds	r7, #16
 8001e14:	46bd      	mov	sp, r7
 8001e16:	bd80      	pop	{r7, pc}
 8001e18:	20000268 	.word	0x20000268

08001e1c <DWT_Init>:

/* --- DWT cycle counter for precise dt --- */
static void DWT_Init(void)
{
 8001e1c:	b480      	push	{r7}
 8001e1e:	af00      	add	r7, sp, #0
    CoreDebug->DEMCR |= CoreDebug_DEMCR_TRCENA_Msk;
 8001e20:	4b09      	ldr	r3, [pc, #36]	@ (8001e48 <DWT_Init+0x2c>)
 8001e22:	68db      	ldr	r3, [r3, #12]
 8001e24:	4a08      	ldr	r2, [pc, #32]	@ (8001e48 <DWT_Init+0x2c>)
 8001e26:	f043 7380 	orr.w	r3, r3, #16777216	@ 0x1000000
 8001e2a:	60d3      	str	r3, [r2, #12]
    DWT->CYCCNT = 0;
 8001e2c:	4b07      	ldr	r3, [pc, #28]	@ (8001e4c <DWT_Init+0x30>)
 8001e2e:	2200      	movs	r2, #0
 8001e30:	605a      	str	r2, [r3, #4]
    DWT->CTRL  |= DWT_CTRL_CYCCNTENA_Msk;
 8001e32:	4b06      	ldr	r3, [pc, #24]	@ (8001e4c <DWT_Init+0x30>)
 8001e34:	681b      	ldr	r3, [r3, #0]
 8001e36:	4a05      	ldr	r2, [pc, #20]	@ (8001e4c <DWT_Init+0x30>)
 8001e38:	f043 0301 	orr.w	r3, r3, #1
 8001e3c:	6013      	str	r3, [r2, #0]
}
 8001e3e:	bf00      	nop
 8001e40:	46bd      	mov	sp, r7
 8001e42:	f85d 7b04 	ldr.w	r7, [sp], #4
 8001e46:	4770      	bx	lr
 8001e48:	e000edf0 	.word	0xe000edf0
 8001e4c:	e0001000 	.word	0xe0001000

08001e50 <ComputeKalmanDT>:

static float ComputeKalmanDT(void)
{
 8001e50:	b480      	push	{r7}
 8001e52:	b083      	sub	sp, #12
 8001e54:	af00      	add	r7, sp, #0
    static uint32_t last_tick  = 0;
    static bool     initialized = false;
    uint32_t now = DWT->CYCCNT;
 8001e56:	4b17      	ldr	r3, [pc, #92]	@ (8001eb4 <ComputeKalmanDT+0x64>)
 8001e58:	685b      	ldr	r3, [r3, #4]
 8001e5a:	607b      	str	r3, [r7, #4]
    if (!initialized) { last_tick = now; initialized = true; return 0.0f; }
 8001e5c:	4b16      	ldr	r3, [pc, #88]	@ (8001eb8 <ComputeKalmanDT+0x68>)
 8001e5e:	781b      	ldrb	r3, [r3, #0]
 8001e60:	f083 0301 	eor.w	r3, r3, #1
 8001e64:	b2db      	uxtb	r3, r3
 8001e66:	2b00      	cmp	r3, #0
 8001e68:	d008      	beq.n	8001e7c <ComputeKalmanDT+0x2c>
 8001e6a:	4a14      	ldr	r2, [pc, #80]	@ (8001ebc <ComputeKalmanDT+0x6c>)
 8001e6c:	687b      	ldr	r3, [r7, #4]
 8001e6e:	6013      	str	r3, [r2, #0]
 8001e70:	4b11      	ldr	r3, [pc, #68]	@ (8001eb8 <ComputeKalmanDT+0x68>)
 8001e72:	2201      	movs	r2, #1
 8001e74:	701a      	strb	r2, [r3, #0]
 8001e76:	f04f 0300 	mov.w	r3, #0
 8001e7a:	e011      	b.n	8001ea0 <ComputeKalmanDT+0x50>
    float dt = (float)(now - last_tick) / CLOCK_SPEED;
 8001e7c:	4b0f      	ldr	r3, [pc, #60]	@ (8001ebc <ComputeKalmanDT+0x6c>)
 8001e7e:	681b      	ldr	r3, [r3, #0]
 8001e80:	687a      	ldr	r2, [r7, #4]
 8001e82:	1ad3      	subs	r3, r2, r3
 8001e84:	ee07 3a90 	vmov	s15, r3
 8001e88:	eeb8 7a67 	vcvt.f32.u32	s14, s15
 8001e8c:	eddf 6a0c 	vldr	s13, [pc, #48]	@ 8001ec0 <ComputeKalmanDT+0x70>
 8001e90:	eec7 7a26 	vdiv.f32	s15, s14, s13
 8001e94:	edc7 7a00 	vstr	s15, [r7]
    last_tick = now;
 8001e98:	4a08      	ldr	r2, [pc, #32]	@ (8001ebc <ComputeKalmanDT+0x6c>)
 8001e9a:	687b      	ldr	r3, [r7, #4]
 8001e9c:	6013      	str	r3, [r2, #0]
    return dt;
 8001e9e:	683b      	ldr	r3, [r7, #0]
}
 8001ea0:	ee07 3a90 	vmov	s15, r3
 8001ea4:	eeb0 0a67 	vmov.f32	s0, s15
 8001ea8:	370c      	adds	r7, #12
 8001eaa:	46bd      	mov	sp, r7
 8001eac:	f85d 7b04 	ldr.w	r7, [sp], #4
 8001eb0:	4770      	bx	lr
 8001eb2:	bf00      	nop
 8001eb4:	e0001000 	.word	0xe0001000
 8001eb8:	2000041d 	.word	0x2000041d
 8001ebc:	20000420 	.word	0x20000420
 8001ec0:	4d039b68 	.word	0x4d039b68
 8001ec4:	00000000 	.word	0x00000000

08001ec8 <main>:
/**
  * @brief  The application entry point.
  * @retval int
  */
int main(void)
{
 8001ec8:	b590      	push	{r4, r7, lr}
 8001eca:	b0e7      	sub	sp, #412	@ 0x19c
 8001ecc:	af02      	add	r7, sp, #8
  /* USER CODE END 1 */

  /* MCU Configuration--------------------------------------------------------*/

  /* Reset of all peripherals, Initializes the Flash interface and the Systick. */
  HAL_Init();
 8001ece:	f001 fada 	bl	8003486 <HAL_Init>

  /* USER CODE BEGIN Init */
  /* USER CODE END Init */

  /* Configure the system clock */
  SystemClock_Config();
 8001ed2:	f000 fa21 	bl	8002318 <SystemClock_Config>

  /* USER CODE BEGIN SysInit */
  DWT_Init();
 8001ed6:	f7ff ffa1 	bl	8001e1c <DWT_Init>
  /* USER CODE END SysInit */

  /* Initialize all configured peripherals */
  MX_GPIO_Init();
 8001eda:	f000 fc93 	bl	8002804 <MX_GPIO_Init>
  MX_DMA_Init();
 8001ede:	f000 fc57 	bl	8002790 <MX_DMA_Init>
  MX_ADC1_Init();
 8001ee2:	f000 fa65 	bl	80023b0 <MX_ADC1_Init>
  MX_SPI1_Init();
 8001ee6:	f000 fba9 	bl	800263c <MX_SPI1_Init>
  MX_ADC2_Init();
 8001eea:	f000 faf5 	bl	80024d8 <MX_ADC2_Init>
  MX_TIM6_Init();
 8001eee:	f000 fbe3 	bl	80026b8 <MX_TIM6_Init>
  MX_TIM7_Init();
 8001ef2:	f000 fc17 	bl	8002724 <MX_TIM7_Init>
  MX_I2C3_Init();
 8001ef6:	f000 fb61 	bl	80025bc <MX_I2C3_Init>
  /* USER CODE BEGIN 2 */

  /* Start timers (interrupt mode) */
  HAL_TIM_Base_Start_IT(&htim6);   /* 640  Hz — Kalman flag */
 8001efa:	48d1      	ldr	r0, [pc, #836]	@ (8002240 <main+0x378>)
 8001efc:	f006 f9ee 	bl	80082dc <HAL_TIM_Base_Start_IT>
  HAL_TIM_Base_Start_IT(&htim7);   /* 6900 Hz — Quad flag   */
 8001f00:	48d0      	ldr	r0, [pc, #832]	@ (8002244 <main+0x37c>)
 8001f02:	f006 f9eb 	bl	80082dc <HAL_TIM_Base_Start_IT>

  /* Calibrate and start ADC DMA */
  HAL_ADCEx_Calibration_Start(&hadc1, ADC_SINGLE_ENDED);
 8001f06:	217f      	movs	r1, #127	@ 0x7f
 8001f08:	48cf      	ldr	r0, [pc, #828]	@ (8002248 <main+0x380>)
 8001f0a:	f002 fd9b 	bl	8004a44 <HAL_ADCEx_Calibration_Start>
  HAL_ADCEx_Calibration_Start(&hadc2, ADC_SINGLE_ENDED);
 8001f0e:	217f      	movs	r1, #127	@ 0x7f
 8001f10:	48ce      	ldr	r0, [pc, #824]	@ (800224c <main+0x384>)
 8001f12:	f002 fd97 	bl	8004a44 <HAL_ADCEx_Calibration_Start>
  HAL_ADC_Start_DMA(&hadc1, (uint32_t*)adc_buf, 2);
 8001f16:	2202      	movs	r2, #2
 8001f18:	49cd      	ldr	r1, [pc, #820]	@ (8002250 <main+0x388>)
 8001f1a:	48cb      	ldr	r0, [pc, #812]	@ (8002248 <main+0x380>)
 8001f1c:	f001 ff0e 	bl	8003d3c <HAL_ADC_Start_DMA>
  HAL_ADC_Start_DMA(&hadc2, (uint32_t*)&adc_x,  1);
 8001f20:	2201      	movs	r2, #1
 8001f22:	49cc      	ldr	r1, [pc, #816]	@ (8002254 <main+0x38c>)
 8001f24:	48c9      	ldr	r0, [pc, #804]	@ (800224c <main+0x384>)
 8001f26:	f001 ff09 	bl	8003d3c <HAL_ADC_Start_DMA>

  /* IMU init */
  IMU_CS_HIGH();
 8001f2a:	2201      	movs	r2, #1
 8001f2c:	2110      	movs	r1, #16
 8001f2e:	f04f 4090 	mov.w	r0, #1207959552	@ 0x48000000
 8001f32:	f003 fba7 	bl	8005684 <HAL_GPIO_WritePin>
  HAL_Delay(10);
 8001f36:	200a      	movs	r0, #10
 8001f38:	f001 fb16 	bl	8003568 <HAL_Delay>
  who_am_i = IMU_ReadReg(IMU_REG_WHO_AM_I);
 8001f3c:	2075      	movs	r0, #117	@ 0x75
 8001f3e:	f7ff ff41 	bl	8001dc4 <IMU_ReadReg>
 8001f42:	4603      	mov	r3, r0
 8001f44:	461a      	mov	r2, r3
 8001f46:	4bc4      	ldr	r3, [pc, #784]	@ (8002258 <main+0x390>)
 8001f48:	701a      	strb	r2, [r3, #0]
  if (who_am_i == IMU_WHO_AM_I_VAL) {
 8001f4a:	4bc3      	ldr	r3, [pc, #780]	@ (8002258 <main+0x390>)
 8001f4c:	781b      	ldrb	r3, [r3, #0]
 8001f4e:	b2db      	uxtb	r3, r3
 8001f50:	2bb5      	cmp	r3, #181	@ 0xb5
 8001f52:	d11c      	bne.n	8001f8e <main+0xc6>
      IMU_WriteReg(IMU_REG_PWR_MGMT_1, 0x01);   /* clock select: PLL */
 8001f54:	2101      	movs	r1, #1
 8001f56:	206b      	movs	r0, #107	@ 0x6b
 8001f58:	f7ff ff0a 	bl	8001d70 <IMU_WriteReg>
      HAL_Delay(50);
 8001f5c:	2032      	movs	r0, #50	@ 0x32
 8001f5e:	f001 fb03 	bl	8003568 <HAL_Delay>
      IMU_WriteReg(IMU_REG_USER_CTRL, 0x10);    /* disable I2C */
 8001f62:	2110      	movs	r1, #16
 8001f64:	206a      	movs	r0, #106	@ 0x6a
 8001f66:	f7ff ff03 	bl	8001d70 <IMU_WriteReg>

      IMU_CS_LOW(); // Start callback
 8001f6a:	2200      	movs	r2, #0
 8001f6c:	2110      	movs	r1, #16
 8001f6e:	f04f 4090 	mov.w	r0, #1207959552	@ 0x48000000
 8001f72:	f003 fb87 	bl	8005684 <HAL_GPIO_WritePin>
      HAL_SPI_Transmit(&hspi1, &gyro_addr, 1, HAL_MAX_DELAY);
 8001f76:	f04f 33ff 	mov.w	r3, #4294967295
 8001f7a:	2201      	movs	r2, #1
 8001f7c:	49b7      	ldr	r1, [pc, #732]	@ (800225c <main+0x394>)
 8001f7e:	48b8      	ldr	r0, [pc, #736]	@ (8002260 <main+0x398>)
 8001f80:	f005 f85d 	bl	800703e <HAL_SPI_Transmit>
      HAL_SPI_Receive_DMA(&hspi1, gyro_dma_buf, 6);
 8001f84:	2206      	movs	r2, #6
 8001f86:	49b7      	ldr	r1, [pc, #732]	@ (8002264 <main+0x39c>)
 8001f88:	48b5      	ldr	r0, [pc, #724]	@ (8002260 <main+0x398>)
 8001f8a:	f005 fbed 	bl	8007768 <HAL_SPI_Receive_DMA>
  }

  /* Kalman filter structures */
  StateVector            state_vector            = StateVector_Construct();
 8001f8e:	f507 73b2 	add.w	r3, r7, #356	@ 0x164
 8001f92:	4618      	mov	r0, r3
 8001f94:	f7fe fe96 	bl	8000cc4 <StateVector_Construct>
  ErrorCovarianceMatrix  error_covariance_matrix = ErrorCovarianceMatrix_Construct();
 8001f98:	f507 7380 	add.w	r3, r7, #256	@ 0x100
 8001f9c:	4618      	mov	r0, r3
 8001f9e:	f7fe fec9 	bl	8000d34 <ErrorCovarianceMatrix_Construct>
  const ProcessNoiseMatrix     process_noise_matrix     = ProcessNoiseMatrix_Construct();
 8001fa2:	f107 039c 	add.w	r3, r7, #156	@ 0x9c
 8001fa6:	4618      	mov	r0, r3
 8001fa8:	f7fe feae 	bl	8000d08 <ProcessNoiseMatrix_Construct>
  const MeasurementNoiseMatrix measurement_noise_matrix = MeasurementNoiseMatrix_Construct();
 8001fac:	f7fe fed8 	bl	8000d60 <MeasurementNoiseMatrix_Construct>
 8001fb0:	eeb0 6a40 	vmov.f32	s12, s0
 8001fb4:	eef0 6a60 	vmov.f32	s13, s1
 8001fb8:	eeb0 7a41 	vmov.f32	s14, s2
 8001fbc:	eef0 7a61 	vmov.f32	s15, s3
 8001fc0:	f507 73c8 	add.w	r3, r7, #400	@ 0x190
 8001fc4:	f5a3 7382 	sub.w	r3, r3, #260	@ 0x104
 8001fc8:	ed83 6a00 	vstr	s12, [r3]
 8001fcc:	edc3 6a01 	vstr	s13, [r3, #4]
 8001fd0:	ed83 7a02 	vstr	s14, [r3, #8]
 8001fd4:	edc3 7a03 	vstr	s15, [r3, #12]

  /* Quadrature output — 4096 CPR, 1 axis (pitch) */
  QuadratureOutput quad_pkg = QuadratureOutput_Construct(4096, 1);
 8001fd8:	f507 73c8 	add.w	r3, r7, #400	@ 0x190
 8001fdc:	f5a3 73b8 	sub.w	r3, r3, #368	@ 0x170
 8001fe0:	2201      	movs	r2, #1
 8001fe2:	f44f 5180 	mov.w	r1, #4096	@ 0x1000
 8001fe6:	4618      	mov	r0, r3
 8001fe8:	f000 fdd0 	bl	8002b8c <QuadratureOutput_Construct>
  QuadratureOutput_Initialize(&quad_pkg, 0.0, 0.0);
 8001fec:	f107 0320 	add.w	r3, r7, #32
 8001ff0:	ed9f 1b8f 	vldr	d1, [pc, #572]	@ 8002230 <main+0x368>
 8001ff4:	ed9f 0b8e 	vldr	d0, [pc, #568]	@ 8002230 <main+0x368>
 8001ff8:	4618      	mov	r0, r3
 8001ffa:	f000 fe04 	bl	8002c06 <QuadratureOutput_Initialize>

  HAL_GPIO_TogglePin(GPIOA, LED_Blink_Pin);   /* signal init complete */
 8001ffe:	f44f 4100 	mov.w	r1, #32768	@ 0x8000
 8002002:	f04f 4090 	mov.w	r0, #1207959552	@ 0x48000000
 8002006:	f003 fb55 	bl	80056b4 <HAL_GPIO_TogglePin>
    /* USER CODE END WHILE */

    /* USER CODE BEGIN 3 */

    /* ---- Kalman filter @ 640 Hz ---- */
    if (GetKalmanReady()) {
 800200a:	f001 f9dd 	bl	80033c8 <GetKalmanReady>
 800200e:	4603      	mov	r3, r0
 8002010:	2b00      	cmp	r3, #0
 8002012:	f000 80f4 	beq.w	80021fe <main+0x336>
//			gyro_sample.gx = gyro_x;
//			gyro_sample.gy = gyro_y;
//			gyro_sample.gz = gyro_z;
//		}
		GyroSample gyro_sample;
		gyro_sample.gx = gyro_x;
 8002016:	4b94      	ldr	r3, [pc, #592]	@ (8002268 <main+0x3a0>)
 8002018:	681a      	ldr	r2, [r3, #0]
 800201a:	f507 73c8 	add.w	r3, r7, #400	@ 0x190
 800201e:	f5a3 73be 	sub.w	r3, r3, #380	@ 0x17c
 8002022:	601a      	str	r2, [r3, #0]
		gyro_sample.gy = gyro_y;
 8002024:	4b91      	ldr	r3, [pc, #580]	@ (800226c <main+0x3a4>)
 8002026:	681a      	ldr	r2, [r3, #0]
 8002028:	f507 73c8 	add.w	r3, r7, #400	@ 0x190
 800202c:	f5a3 73be 	sub.w	r3, r3, #380	@ 0x17c
 8002030:	605a      	str	r2, [r3, #4]
		gyro_sample.gz = gyro_z;
 8002032:	4b8f      	ldr	r3, [pc, #572]	@ (8002270 <main+0x3a8>)
 8002034:	681a      	ldr	r2, [r3, #0]
 8002036:	f507 73c8 	add.w	r3, r7, #400	@ 0x190
 800203a:	f5a3 73be 	sub.w	r3, r3, #380	@ 0x17c
 800203e:	609a      	str	r2, [r3, #8]

		/* Read accelerometer (already in g, updated by DMA callback) */
		AccelSample accel_sample;
		accel_sample.ax = accel_x;
 8002040:	4b8c      	ldr	r3, [pc, #560]	@ (8002274 <main+0x3ac>)
 8002042:	681a      	ldr	r2, [r3, #0]
 8002044:	f507 73c8 	add.w	r3, r7, #400	@ 0x190
 8002048:	f5a3 73c4 	sub.w	r3, r3, #392	@ 0x188
 800204c:	601a      	str	r2, [r3, #0]
		accel_sample.ay = accel_y;
 800204e:	4b8a      	ldr	r3, [pc, #552]	@ (8002278 <main+0x3b0>)
 8002050:	681a      	ldr	r2, [r3, #0]
 8002052:	f507 73c8 	add.w	r3, r7, #400	@ 0x190
 8002056:	f5a3 73c4 	sub.w	r3, r3, #392	@ 0x188
 800205a:	605a      	str	r2, [r3, #4]
		accel_sample.az = accel_z;
 800205c:	4b87      	ldr	r3, [pc, #540]	@ (800227c <main+0x3b4>)
 800205e:	681a      	ldr	r2, [r3, #0]
 8002060:	f507 73c8 	add.w	r3, r7, #400	@ 0x190
 8002064:	f5a3 73c4 	sub.w	r3, r3, #392	@ 0x188
 8002068:	609a      	str	r2, [r3, #8]

		float dt = ComputeKalmanDT();
 800206a:	f7ff fef1 	bl	8001e50 <ComputeKalmanDT>
 800206e:	ed87 0a63 	vstr	s0, [r7, #396]	@ 0x18c

		if (dt > 0.0f) {
 8002072:	edd7 7a63 	vldr	s15, [r7, #396]	@ 0x18c
 8002076:	eef5 7ac0 	vcmpe.f32	s15, #0.0
 800207a:	eef1 fa10 	vmrs	APSR_nzcv, fpscr
 800207e:	f340 80be 	ble.w	80021fe <main+0x336>
			/* Run kalman filter */
			kalman_run(dt, &state_vector, &error_covariance_matrix, &gyro_sample, &accel_sample, &process_noise_matrix, &measurement_noise_matrix);
 8002082:	f107 0408 	add.w	r4, r7, #8
 8002086:	f107 0214 	add.w	r2, r7, #20
 800208a:	f507 7180 	add.w	r1, r7, #256	@ 0x100
 800208e:	f507 70b2 	add.w	r0, r7, #356	@ 0x164
 8002092:	f107 038c 	add.w	r3, r7, #140	@ 0x8c
 8002096:	9301      	str	r3, [sp, #4]
 8002098:	f107 039c 	add.w	r3, r7, #156	@ 0x9c
 800209c:	9300      	str	r3, [sp, #0]
 800209e:	4623      	mov	r3, r4
 80020a0:	ed97 0a63 	vldr	s0, [r7, #396]	@ 0x18c
 80020a4:	f7fe fd86 	bl	8000bb4 <kalman_run>

			/* Convert to deg */
			float pitch_deg = state_vector.vector[PITCH] * (180.0f / (float)M_PI);
 80020a8:	edd7 7a5a 	vldr	s15, [r7, #360]	@ 0x168
 80020ac:	ed9f 7a74 	vldr	s14, [pc, #464]	@ 8002280 <main+0x3b8>
 80020b0:	ee67 7a87 	vmul.f32	s15, s15, s14
 80020b4:	edc7 7a62 	vstr	s15, [r7, #392]	@ 0x188
			float roll_deg  = state_vector.vector[ROLL]  * (180.0f / (float)M_PI);
 80020b8:	edd7 7a59 	vldr	s15, [r7, #356]	@ 0x164
 80020bc:	ed9f 7a70 	vldr	s14, [pc, #448]	@ 8002280 <main+0x3b8>
 80020c0:	ee67 7a87 	vmul.f32	s15, s15, s14
 80020c4:	edc7 7a61 	vstr	s15, [r7, #388]	@ 0x184

			/* Build packet */
			imu_packet_t packet;
			packet.header     = 0xAA;
 80020c8:	f507 73c8 	add.w	r3, r7, #400	@ 0x190
 80020cc:	f5a3 73c8 	sub.w	r3, r3, #400	@ 0x190
 80020d0:	22aa      	movs	r2, #170	@ 0xaa
 80020d2:	701a      	strb	r2, [r3, #0]
			packet.counter    = packet_counter++;
 80020d4:	4b6b      	ldr	r3, [pc, #428]	@ (8002284 <main+0x3bc>)
 80020d6:	781b      	ldrb	r3, [r3, #0]
 80020d8:	1c5a      	adds	r2, r3, #1
 80020da:	b2d1      	uxtb	r1, r2
 80020dc:	4a69      	ldr	r2, [pc, #420]	@ (8002284 <main+0x3bc>)
 80020de:	7011      	strb	r1, [r2, #0]
 80020e0:	f507 72c8 	add.w	r2, r7, #400	@ 0x190
 80020e4:	f5a2 72c8 	sub.w	r2, r2, #400	@ 0x190
 80020e8:	7053      	strb	r3, [r2, #1]
			packet.pitch_x100 = (int16_t)(pitch_deg * 100.0f);
 80020ea:	edd7 7a62 	vldr	s15, [r7, #392]	@ 0x188
 80020ee:	ed9f 7a66 	vldr	s14, [pc, #408]	@ 8002288 <main+0x3c0>
 80020f2:	ee67 7a87 	vmul.f32	s15, s15, s14
 80020f6:	eefd 7ae7 	vcvt.s32.f32	s15, s15
 80020fa:	ee17 3a90 	vmov	r3, s15
 80020fe:	b21a      	sxth	r2, r3
 8002100:	f507 73c8 	add.w	r3, r7, #400	@ 0x190
 8002104:	f5a3 73c8 	sub.w	r3, r3, #400	@ 0x190
 8002108:	805a      	strh	r2, [r3, #2]
			packet.roll_x100  = (int16_t)(roll_deg  * 100.0f);
 800210a:	edd7 7a61 	vldr	s15, [r7, #388]	@ 0x184
 800210e:	ed9f 7a5e 	vldr	s14, [pc, #376]	@ 8002288 <main+0x3c0>
 8002112:	ee67 7a87 	vmul.f32	s15, s15, s14
 8002116:	eefd 7ae7 	vcvt.s32.f32	s15, s15
 800211a:	ee17 3a90 	vmov	r3, s15
 800211e:	b21a      	sxth	r2, r3
 8002120:	f507 73c8 	add.w	r3, r7, #400	@ 0x190
 8002124:	f5a3 73c8 	sub.w	r3, r3, #400	@ 0x190
 8002128:	809a      	strh	r2, [r3, #4]

			/* Send to Arduino */
			HAL_I2C_Master_Transmit(&hi2c3, (ARDUINO_SLAVE_ADDR << 1), (uint8_t *)&packet, sizeof(packet), 10);
 800212a:	463a      	mov	r2, r7
 800212c:	230a      	movs	r3, #10
 800212e:	9300      	str	r3, [sp, #0]
 8002130:	2306      	movs	r3, #6
 8002132:	2190      	movs	r1, #144	@ 0x90
 8002134:	4855      	ldr	r0, [pc, #340]	@ (800228c <main+0x3c4>)
 8002136:	f003 fb73 	bl	8005820 <HAL_I2C_Master_Transmit>

	      	log_dt_s = dt;
 800213a:	4a55      	ldr	r2, [pc, #340]	@ (8002290 <main+0x3c8>)
 800213c:	f8d7 318c 	ldr.w	r3, [r7, #396]	@ 0x18c
 8002140:	6013      	str	r3, [r2, #0]

	      	log_roll_s = state_vector.vector[ROLL] * (180.0 / M_PI);
 8002142:	f8d7 3164 	ldr.w	r3, [r7, #356]	@ 0x164
 8002146:	4618      	mov	r0, r3
 8002148:	f7fe f9ca 	bl	80004e0 <__aeabi_f2d>
 800214c:	a33a      	add	r3, pc, #232	@ (adr r3, 8002238 <main+0x370>)
 800214e:	e9d3 2300 	ldrd	r2, r3, [r3]
 8002152:	f7fe fa1d 	bl	8000590 <__aeabi_dmul>
 8002156:	4602      	mov	r2, r0
 8002158:	460b      	mov	r3, r1
 800215a:	4610      	mov	r0, r2
 800215c:	4619      	mov	r1, r3
 800215e:	f7fe fcd9 	bl	8000b14 <__aeabi_d2f>
 8002162:	4603      	mov	r3, r0
 8002164:	4a4b      	ldr	r2, [pc, #300]	@ (8002294 <main+0x3cc>)
 8002166:	6013      	str	r3, [r2, #0]
	      	log_pitch_s  = state_vector.vector[ROLL] * (180.0 / M_PI);
 8002168:	f8d7 3164 	ldr.w	r3, [r7, #356]	@ 0x164
 800216c:	4618      	mov	r0, r3
 800216e:	f7fe f9b7 	bl	80004e0 <__aeabi_f2d>
 8002172:	a331      	add	r3, pc, #196	@ (adr r3, 8002238 <main+0x370>)
 8002174:	e9d3 2300 	ldrd	r2, r3, [r3]
 8002178:	f7fe fa0a 	bl	8000590 <__aeabi_dmul>
 800217c:	4602      	mov	r2, r0
 800217e:	460b      	mov	r3, r1
 8002180:	4610      	mov	r0, r2
 8002182:	4619      	mov	r1, r3
 8002184:	f7fe fcc6 	bl	8000b14 <__aeabi_d2f>
 8002188:	4603      	mov	r3, r0
 800218a:	4a43      	ldr	r2, [pc, #268]	@ (8002298 <main+0x3d0>)
 800218c:	6013      	str	r3, [r2, #0]

	      	log_gyro_x_s = gyro_sample.gx;
 800218e:	f507 73c8 	add.w	r3, r7, #400	@ 0x190
 8002192:	f5a3 73be 	sub.w	r3, r3, #380	@ 0x17c
 8002196:	681b      	ldr	r3, [r3, #0]
 8002198:	4a40      	ldr	r2, [pc, #256]	@ (800229c <main+0x3d4>)
 800219a:	6013      	str	r3, [r2, #0]
	      	log_gyro_y_s = gyro_sample.gy;
 800219c:	f507 73c8 	add.w	r3, r7, #400	@ 0x190
 80021a0:	f5a3 73be 	sub.w	r3, r3, #380	@ 0x17c
 80021a4:	685b      	ldr	r3, [r3, #4]
 80021a6:	4a3e      	ldr	r2, [pc, #248]	@ (80022a0 <main+0x3d8>)
 80021a8:	6013      	str	r3, [r2, #0]
	      	log_gyro_z_s = gyro_sample.gz;
 80021aa:	f507 73c8 	add.w	r3, r7, #400	@ 0x190
 80021ae:	f5a3 73be 	sub.w	r3, r3, #380	@ 0x17c
 80021b2:	689b      	ldr	r3, [r3, #8]
 80021b4:	4a3b      	ldr	r2, [pc, #236]	@ (80022a4 <main+0x3dc>)
 80021b6:	6013      	str	r3, [r2, #0]

	      	log_accel_x_s = accel_sample.ax;
 80021b8:	f507 73c8 	add.w	r3, r7, #400	@ 0x190
 80021bc:	f5a3 73c4 	sub.w	r3, r3, #392	@ 0x188
 80021c0:	681b      	ldr	r3, [r3, #0]
 80021c2:	4a39      	ldr	r2, [pc, #228]	@ (80022a8 <main+0x3e0>)
 80021c4:	6013      	str	r3, [r2, #0]
	      	log_accel_y_s = accel_sample.ay;
 80021c6:	f507 73c8 	add.w	r3, r7, #400	@ 0x190
 80021ca:	f5a3 73c4 	sub.w	r3, r3, #392	@ 0x188
 80021ce:	685b      	ldr	r3, [r3, #4]
 80021d0:	4a36      	ldr	r2, [pc, #216]	@ (80022ac <main+0x3e4>)
 80021d2:	6013      	str	r3, [r2, #0]
	      	log_accel_z_s = accel_sample.az;
 80021d4:	f507 73c8 	add.w	r3, r7, #400	@ 0x190
 80021d8:	f5a3 73c4 	sub.w	r3, r3, #392	@ 0x188
 80021dc:	689b      	ldr	r3, [r3, #8]
 80021de:	4a34      	ldr	r2, [pc, #208]	@ (80022b0 <main+0x3e8>)
 80021e0:	6013      	str	r3, [r2, #0]

	      	log_axis1_a_s = quad_pkg.axis1.channel_a;
 80021e2:	f507 73c8 	add.w	r3, r7, #400	@ 0x190
 80021e6:	f5a3 73b8 	sub.w	r3, r3, #368	@ 0x170
 80021ea:	69db      	ldr	r3, [r3, #28]
 80021ec:	4a31      	ldr	r2, [pc, #196]	@ (80022b4 <main+0x3ec>)
 80021ee:	6013      	str	r3, [r2, #0]
	      	log_axis1_b_s = quad_pkg.axis1.channel_b;
 80021f0:	f507 73c8 	add.w	r3, r7, #400	@ 0x190
 80021f4:	f5a3 73b8 	sub.w	r3, r3, #368	@ 0x170
 80021f8:	6a1b      	ldr	r3, [r3, #32]
 80021fa:	4a2f      	ldr	r2, [pc, #188]	@ (80022b8 <main+0x3f0>)
 80021fc:	6013      	str	r3, [r2, #0]
		}
    }

    /* ---- Quadrature output @ ~6900 Hz ---- */
    if (GetQuadReady()) {
 80021fe:	f001 f8f5 	bl	80033ec <GetQuadReady>
 8002202:	4603      	mov	r3, r0
 8002204:	2b00      	cmp	r3, #0
 8002206:	f43f af00 	beq.w	800200a <main+0x142>
        /* Convert pitch (rad) to degrees for quadrature output */
        double pitch_deg = (double)state_vector.vector[PITCH] * (180.0 / M_PI);
 800220a:	f8d7 3168 	ldr.w	r3, [r7, #360]	@ 0x168
 800220e:	4618      	mov	r0, r3
 8002210:	f7fe f966 	bl	80004e0 <__aeabi_f2d>
 8002214:	a308      	add	r3, pc, #32	@ (adr r3, 8002238 <main+0x370>)
 8002216:	e9d3 2300 	ldrd	r2, r3, [r3]
 800221a:	f7fe f9b9 	bl	8000590 <__aeabi_dmul>
 800221e:	4602      	mov	r2, r0
 8002220:	460b      	mov	r3, r1
 8002222:	e9c7 235e 	strd	r2, r3, [r7, #376]	@ 0x178
        QuadratureOutput_Update(&quad_pkg, pitch_deg, 0.0);
 8002226:	f107 0320 	add.w	r3, r7, #32
 800222a:	e047      	b.n	80022bc <main+0x3f4>
 800222c:	f3af 8000 	nop.w
	...
 8002238:	1a63c1f8 	.word	0x1a63c1f8
 800223c:	404ca5dc 	.word	0x404ca5dc
 8002240:	2000032c 	.word	0x2000032c
 8002244:	20000378 	.word	0x20000378
 8002248:	2000007c 	.word	0x2000007c
 800224c:	200000e8 	.word	0x200000e8
 8002250:	200003c4 	.word	0x200003c4
 8002254:	200003c8 	.word	0x200003c8
 8002258:	200003d8 	.word	0x200003d8
 800225c:	20000000 	.word	0x20000000
 8002260:	20000268 	.word	0x20000268
 8002264:	200003e8 	.word	0x200003e8
 8002268:	200003dc 	.word	0x200003dc
 800226c:	200003e0 	.word	0x200003e0
 8002270:	200003e4 	.word	0x200003e4
 8002274:	200003cc 	.word	0x200003cc
 8002278:	200003d0 	.word	0x200003d0
 800227c:	200003d4 	.word	0x200003d4
 8002280:	42652ee0 	.word	0x42652ee0
 8002284:	2000041c 	.word	0x2000041c
 8002288:	42c80000 	.word	0x42c80000
 800228c:	20000214 	.word	0x20000214
 8002290:	200003f0 	.word	0x200003f0
 8002294:	200003f4 	.word	0x200003f4
 8002298:	200003f8 	.word	0x200003f8
 800229c:	200003fc 	.word	0x200003fc
 80022a0:	20000400 	.word	0x20000400
 80022a4:	20000404 	.word	0x20000404
 80022a8:	20000408 	.word	0x20000408
 80022ac:	2000040c 	.word	0x2000040c
 80022b0:	20000410 	.word	0x20000410
 80022b4:	20000414 	.word	0x20000414
 80022b8:	20000418 	.word	0x20000418
 80022bc:	ed9f 1b14 	vldr	d1, [pc, #80]	@ 8002310 <main+0x448>
 80022c0:	ed97 0b5e 	vldr	d0, [r7, #376]	@ 0x178
 80022c4:	4618      	mov	r0, r3
 80022c6:	f000 fcbb 	bl	8002c40 <QuadratureOutput_Update>

        /* Drive GPIO pins from quadrature state */
        HAL_GPIO_WritePin(GPIOA, Axis1A_Pin, quad_pkg.axis1.channel_a ? GPIO_PIN_SET : GPIO_PIN_RESET);
 80022ca:	f507 73c8 	add.w	r3, r7, #400	@ 0x190
 80022ce:	f5a3 73b8 	sub.w	r3, r3, #368	@ 0x170
 80022d2:	69db      	ldr	r3, [r3, #28]
 80022d4:	2b00      	cmp	r3, #0
 80022d6:	bf14      	ite	ne
 80022d8:	2301      	movne	r3, #1
 80022da:	2300      	moveq	r3, #0
 80022dc:	b2db      	uxtb	r3, r3
 80022de:	461a      	mov	r2, r3
 80022e0:	f44f 5180 	mov.w	r1, #4096	@ 0x1000
 80022e4:	f04f 4090 	mov.w	r0, #1207959552	@ 0x48000000
 80022e8:	f003 f9cc 	bl	8005684 <HAL_GPIO_WritePin>
        HAL_GPIO_WritePin(GPIOA, Axis1B_Pin, quad_pkg.axis1.channel_b ? GPIO_PIN_SET : GPIO_PIN_RESET);
 80022ec:	f507 73c8 	add.w	r3, r7, #400	@ 0x190
 80022f0:	f5a3 73b8 	sub.w	r3, r3, #368	@ 0x170
 80022f4:	6a1b      	ldr	r3, [r3, #32]
 80022f6:	2b00      	cmp	r3, #0
 80022f8:	bf14      	ite	ne
 80022fa:	2301      	movne	r3, #1
 80022fc:	2300      	moveq	r3, #0
 80022fe:	b2db      	uxtb	r3, r3
 8002300:	461a      	mov	r2, r3
 8002302:	f44f 6100 	mov.w	r1, #2048	@ 0x800
 8002306:	f04f 4090 	mov.w	r0, #1207959552	@ 0x48000000
 800230a:	f003 f9bb 	bl	8005684 <HAL_GPIO_WritePin>
    if (GetKalmanReady()) {
 800230e:	e67c      	b.n	800200a <main+0x142>
	...

08002318 <SystemClock_Config>:
/**
  * @brief System Clock Configuration
  * @retval None
  */
void SystemClock_Config(void)
{
 8002318:	b580      	push	{r7, lr}
 800231a:	b094      	sub	sp, #80	@ 0x50
 800231c:	af00      	add	r7, sp, #0
  RCC_OscInitTypeDef RCC_OscInitStruct = {0};
 800231e:	f107 0318 	add.w	r3, r7, #24
 8002322:	2238      	movs	r2, #56	@ 0x38
 8002324:	2100      	movs	r1, #0
 8002326:	4618      	mov	r0, r3
 8002328:	f006 fb18 	bl	800895c <memset>
  RCC_ClkInitTypeDef RCC_ClkInitStruct = {0};
 800232c:	1d3b      	adds	r3, r7, #4
 800232e:	2200      	movs	r2, #0
 8002330:	601a      	str	r2, [r3, #0]
 8002332:	605a      	str	r2, [r3, #4]
 8002334:	609a      	str	r2, [r3, #8]
 8002336:	60da      	str	r2, [r3, #12]
 8002338:	611a      	str	r2, [r3, #16]

  /** Configure the main internal regulator output voltage
  */
  HAL_PWREx_ControlVoltageScaling(PWR_REGULATOR_VOLTAGE_SCALE1);
 800233a:	f44f 7000 	mov.w	r0, #512	@ 0x200
 800233e:	f003 fe39 	bl	8005fb4 <HAL_PWREx_ControlVoltageScaling>

  /** Initializes the RCC Oscillators according to the specified parameters
  * in the RCC_OscInitTypeDef structure.
  */
  RCC_OscInitStruct.OscillatorType = RCC_OSCILLATORTYPE_HSI;
 8002342:	2302      	movs	r3, #2
 8002344:	61bb      	str	r3, [r7, #24]
  RCC_OscInitStruct.HSIState = RCC_HSI_ON;
 8002346:	f44f 7380 	mov.w	r3, #256	@ 0x100
 800234a:	627b      	str	r3, [r7, #36]	@ 0x24
  RCC_OscInitStruct.HSICalibrationValue = RCC_HSICALIBRATION_DEFAULT;
 800234c:	2340      	movs	r3, #64	@ 0x40
 800234e:	62bb      	str	r3, [r7, #40]	@ 0x28
  RCC_OscInitStruct.PLL.PLLState = RCC_PLL_ON;
 8002350:	2302      	movs	r3, #2
 8002352:	637b      	str	r3, [r7, #52]	@ 0x34
  RCC_OscInitStruct.PLL.PLLSource = RCC_PLLSOURCE_HSI;
 8002354:	2302      	movs	r3, #2
 8002356:	63bb      	str	r3, [r7, #56]	@ 0x38
  RCC_OscInitStruct.PLL.PLLM = RCC_PLLM_DIV4;
 8002358:	2304      	movs	r3, #4
 800235a:	63fb      	str	r3, [r7, #60]	@ 0x3c
  RCC_OscInitStruct.PLL.PLLN = 69;
 800235c:	2345      	movs	r3, #69	@ 0x45
 800235e:	643b      	str	r3, [r7, #64]	@ 0x40
  RCC_OscInitStruct.PLL.PLLP = RCC_PLLP_DIV2;
 8002360:	2302      	movs	r3, #2
 8002362:	647b      	str	r3, [r7, #68]	@ 0x44
  RCC_OscInitStruct.PLL.PLLQ = RCC_PLLQ_DIV2;
 8002364:	2302      	movs	r3, #2
 8002366:	64bb      	str	r3, [r7, #72]	@ 0x48
  RCC_OscInitStruct.PLL.PLLR = RCC_PLLR_DIV2;
 8002368:	2302      	movs	r3, #2
 800236a:	64fb      	str	r3, [r7, #76]	@ 0x4c
  if (HAL_RCC_OscConfig(&RCC_OscInitStruct) != HAL_OK)
 800236c:	f107 0318 	add.w	r3, r7, #24
 8002370:	4618      	mov	r0, r3
 8002372:	f003 fed3 	bl	800611c <HAL_RCC_OscConfig>
 8002376:	4603      	mov	r3, r0
 8002378:	2b00      	cmp	r3, #0
 800237a:	d001      	beq.n	8002380 <SystemClock_Config+0x68>
  {
    Error_Handler();
 800237c:	f000 fa88 	bl	8002890 <Error_Handler>
  }

  /** Initializes the CPU, AHB and APB buses clocks
  */
  RCC_ClkInitStruct.ClockType = RCC_CLOCKTYPE_HCLK|RCC_CLOCKTYPE_SYSCLK
 8002380:	230f      	movs	r3, #15
 8002382:	607b      	str	r3, [r7, #4]
                              |RCC_CLOCKTYPE_PCLK1|RCC_CLOCKTYPE_PCLK2;
  RCC_ClkInitStruct.SYSCLKSource = RCC_SYSCLKSOURCE_PLLCLK;
 8002384:	2303      	movs	r3, #3
 8002386:	60bb      	str	r3, [r7, #8]
  RCC_ClkInitStruct.AHBCLKDivider = RCC_SYSCLK_DIV1;
 8002388:	2300      	movs	r3, #0
 800238a:	60fb      	str	r3, [r7, #12]
  RCC_ClkInitStruct.APB1CLKDivider = RCC_HCLK_DIV1;
 800238c:	2300      	movs	r3, #0
 800238e:	613b      	str	r3, [r7, #16]
  RCC_ClkInitStruct.APB2CLKDivider = RCC_HCLK_DIV1;
 8002390:	2300      	movs	r3, #0
 8002392:	617b      	str	r3, [r7, #20]

  if (HAL_RCC_ClockConfig(&RCC_ClkInitStruct, FLASH_LATENCY_4) != HAL_OK)
 8002394:	1d3b      	adds	r3, r7, #4
 8002396:	2104      	movs	r1, #4
 8002398:	4618      	mov	r0, r3
 800239a:	f004 f9d1 	bl	8006740 <HAL_RCC_ClockConfig>
 800239e:	4603      	mov	r3, r0
 80023a0:	2b00      	cmp	r3, #0
 80023a2:	d001      	beq.n	80023a8 <SystemClock_Config+0x90>
  {
    Error_Handler();
 80023a4:	f000 fa74 	bl	8002890 <Error_Handler>
  }
}
 80023a8:	bf00      	nop
 80023aa:	3750      	adds	r7, #80	@ 0x50
 80023ac:	46bd      	mov	sp, r7
 80023ae:	bd80      	pop	{r7, pc}

080023b0 <MX_ADC1_Init>:
  * @brief ADC1 Initialization Function
  * @param None
  * @retval None
  */
static void MX_ADC1_Init(void)
{
 80023b0:	b580      	push	{r7, lr}
 80023b2:	b08c      	sub	sp, #48	@ 0x30
 80023b4:	af00      	add	r7, sp, #0

  /* USER CODE BEGIN ADC1_Init 0 */
  /* USER CODE END ADC1_Init 0 */

  ADC_MultiModeTypeDef multimode = {0};
 80023b6:	f107 0324 	add.w	r3, r7, #36	@ 0x24
 80023ba:	2200      	movs	r2, #0
 80023bc:	601a      	str	r2, [r3, #0]
 80023be:	605a      	str	r2, [r3, #4]
 80023c0:	609a      	str	r2, [r3, #8]
  ADC_ChannelConfTypeDef sConfig = {0};
 80023c2:	1d3b      	adds	r3, r7, #4
 80023c4:	2220      	movs	r2, #32
 80023c6:	2100      	movs	r1, #0
 80023c8:	4618      	mov	r0, r3
 80023ca:	f006 fac7 	bl	800895c <memset>
  /* USER CODE BEGIN ADC1_Init 1 */
  /* USER CODE END ADC1_Init 1 */

  /** Common config
  */
  hadc1.Instance = ADC1;
 80023ce:	4b3f      	ldr	r3, [pc, #252]	@ (80024cc <MX_ADC1_Init+0x11c>)
 80023d0:	f04f 42a0 	mov.w	r2, #1342177280	@ 0x50000000
 80023d4:	601a      	str	r2, [r3, #0]
  hadc1.Init.ClockPrescaler = ADC_CLOCK_ASYNC_DIV4;
 80023d6:	4b3d      	ldr	r3, [pc, #244]	@ (80024cc <MX_ADC1_Init+0x11c>)
 80023d8:	f44f 2200 	mov.w	r2, #524288	@ 0x80000
 80023dc:	605a      	str	r2, [r3, #4]
  hadc1.Init.Resolution = ADC_RESOLUTION_12B;
 80023de:	4b3b      	ldr	r3, [pc, #236]	@ (80024cc <MX_ADC1_Init+0x11c>)
 80023e0:	2200      	movs	r2, #0
 80023e2:	609a      	str	r2, [r3, #8]
  hadc1.Init.DataAlign = ADC_DATAALIGN_RIGHT;
 80023e4:	4b39      	ldr	r3, [pc, #228]	@ (80024cc <MX_ADC1_Init+0x11c>)
 80023e6:	2200      	movs	r2, #0
 80023e8:	60da      	str	r2, [r3, #12]
  hadc1.Init.GainCompensation = 0;
 80023ea:	4b38      	ldr	r3, [pc, #224]	@ (80024cc <MX_ADC1_Init+0x11c>)
 80023ec:	2200      	movs	r2, #0
 80023ee:	611a      	str	r2, [r3, #16]
  hadc1.Init.ScanConvMode = ADC_SCAN_ENABLE;
 80023f0:	4b36      	ldr	r3, [pc, #216]	@ (80024cc <MX_ADC1_Init+0x11c>)
 80023f2:	2201      	movs	r2, #1
 80023f4:	615a      	str	r2, [r3, #20]
  hadc1.Init.EOCSelection = ADC_EOC_SEQ_CONV;
 80023f6:	4b35      	ldr	r3, [pc, #212]	@ (80024cc <MX_ADC1_Init+0x11c>)
 80023f8:	2208      	movs	r2, #8
 80023fa:	619a      	str	r2, [r3, #24]
  hadc1.Init.LowPowerAutoWait = DISABLE;
 80023fc:	4b33      	ldr	r3, [pc, #204]	@ (80024cc <MX_ADC1_Init+0x11c>)
 80023fe:	2200      	movs	r2, #0
 8002400:	771a      	strb	r2, [r3, #28]
  hadc1.Init.ContinuousConvMode = ENABLE;
 8002402:	4b32      	ldr	r3, [pc, #200]	@ (80024cc <MX_ADC1_Init+0x11c>)
 8002404:	2201      	movs	r2, #1
 8002406:	775a      	strb	r2, [r3, #29]
  hadc1.Init.NbrOfConversion = 2;
 8002408:	4b30      	ldr	r3, [pc, #192]	@ (80024cc <MX_ADC1_Init+0x11c>)
 800240a:	2202      	movs	r2, #2
 800240c:	621a      	str	r2, [r3, #32]
  hadc1.Init.DiscontinuousConvMode = DISABLE;
 800240e:	4b2f      	ldr	r3, [pc, #188]	@ (80024cc <MX_ADC1_Init+0x11c>)
 8002410:	2200      	movs	r2, #0
 8002412:	f883 2024 	strb.w	r2, [r3, #36]	@ 0x24
  hadc1.Init.ExternalTrigConv = ADC_SOFTWARE_START;
 8002416:	4b2d      	ldr	r3, [pc, #180]	@ (80024cc <MX_ADC1_Init+0x11c>)
 8002418:	2200      	movs	r2, #0
 800241a:	62da      	str	r2, [r3, #44]	@ 0x2c
  hadc1.Init.ExternalTrigConvEdge = ADC_EXTERNALTRIGCONVEDGE_NONE;
 800241c:	4b2b      	ldr	r3, [pc, #172]	@ (80024cc <MX_ADC1_Init+0x11c>)
 800241e:	2200      	movs	r2, #0
 8002420:	631a      	str	r2, [r3, #48]	@ 0x30
  hadc1.Init.DMAContinuousRequests = ENABLE;
 8002422:	4b2a      	ldr	r3, [pc, #168]	@ (80024cc <MX_ADC1_Init+0x11c>)
 8002424:	2201      	movs	r2, #1
 8002426:	f883 2038 	strb.w	r2, [r3, #56]	@ 0x38
  hadc1.Init.Overrun = ADC_OVR_DATA_PRESERVED;
 800242a:	4b28      	ldr	r3, [pc, #160]	@ (80024cc <MX_ADC1_Init+0x11c>)
 800242c:	2200      	movs	r2, #0
 800242e:	63da      	str	r2, [r3, #60]	@ 0x3c
  hadc1.Init.OversamplingMode = ENABLE;
 8002430:	4b26      	ldr	r3, [pc, #152]	@ (80024cc <MX_ADC1_Init+0x11c>)
 8002432:	2201      	movs	r2, #1
 8002434:	f883 2040 	strb.w	r2, [r3, #64]	@ 0x40
  hadc1.Init.Oversampling.Ratio = ADC_OVERSAMPLING_RATIO_256;
 8002438:	4b24      	ldr	r3, [pc, #144]	@ (80024cc <MX_ADC1_Init+0x11c>)
 800243a:	221c      	movs	r2, #28
 800243c:	645a      	str	r2, [r3, #68]	@ 0x44
  hadc1.Init.Oversampling.RightBitShift = ADC_RIGHTBITSHIFT_4;
 800243e:	4b23      	ldr	r3, [pc, #140]	@ (80024cc <MX_ADC1_Init+0x11c>)
 8002440:	2280      	movs	r2, #128	@ 0x80
 8002442:	649a      	str	r2, [r3, #72]	@ 0x48
  hadc1.Init.Oversampling.TriggeredMode = ADC_TRIGGEREDMODE_SINGLE_TRIGGER;
 8002444:	4b21      	ldr	r3, [pc, #132]	@ (80024cc <MX_ADC1_Init+0x11c>)
 8002446:	2200      	movs	r2, #0
 8002448:	64da      	str	r2, [r3, #76]	@ 0x4c
  hadc1.Init.Oversampling.OversamplingStopReset = ADC_REGOVERSAMPLING_RESUMED_MODE;
 800244a:	4b20      	ldr	r3, [pc, #128]	@ (80024cc <MX_ADC1_Init+0x11c>)
 800244c:	f240 4201 	movw	r2, #1025	@ 0x401
 8002450:	651a      	str	r2, [r3, #80]	@ 0x50
  if (HAL_ADC_Init(&hadc1) != HAL_OK)
 8002452:	481e      	ldr	r0, [pc, #120]	@ (80024cc <MX_ADC1_Init+0x11c>)
 8002454:	f001 faee 	bl	8003a34 <HAL_ADC_Init>
 8002458:	4603      	mov	r3, r0
 800245a:	2b00      	cmp	r3, #0
 800245c:	d001      	beq.n	8002462 <MX_ADC1_Init+0xb2>
  {
    Error_Handler();
 800245e:	f000 fa17 	bl	8002890 <Error_Handler>
  }

  /** Configure the ADC multi-mode
  */
  multimode.Mode = ADC_MODE_INDEPENDENT;
 8002462:	2300      	movs	r3, #0
 8002464:	627b      	str	r3, [r7, #36]	@ 0x24
  if (HAL_ADCEx_MultiModeConfigChannel(&hadc1, &multimode) != HAL_OK)
 8002466:	f107 0324 	add.w	r3, r7, #36	@ 0x24
 800246a:	4619      	mov	r1, r3
 800246c:	4817      	ldr	r0, [pc, #92]	@ (80024cc <MX_ADC1_Init+0x11c>)
 800246e:	f002 fb4b 	bl	8004b08 <HAL_ADCEx_MultiModeConfigChannel>
 8002472:	4603      	mov	r3, r0
 8002474:	2b00      	cmp	r3, #0
 8002476:	d001      	beq.n	800247c <MX_ADC1_Init+0xcc>
  {
    Error_Handler();
 8002478:	f000 fa0a 	bl	8002890 <Error_Handler>
  }

  /** Configure Regular Channel
  */
  sConfig.Channel = ADC_CHANNEL_5;
 800247c:	4b14      	ldr	r3, [pc, #80]	@ (80024d0 <MX_ADC1_Init+0x120>)
 800247e:	607b      	str	r3, [r7, #4]
  sConfig.Rank = ADC_REGULAR_RANK_1;
 8002480:	2306      	movs	r3, #6
 8002482:	60bb      	str	r3, [r7, #8]
  sConfig.SamplingTime = ADC_SAMPLETIME_92CYCLES_5;
 8002484:	2305      	movs	r3, #5
 8002486:	60fb      	str	r3, [r7, #12]
  sConfig.SingleDiff = ADC_SINGLE_ENDED;
 8002488:	237f      	movs	r3, #127	@ 0x7f
 800248a:	613b      	str	r3, [r7, #16]
  sConfig.OffsetNumber = ADC_OFFSET_NONE;
 800248c:	2304      	movs	r3, #4
 800248e:	617b      	str	r3, [r7, #20]
  sConfig.Offset = 0;
 8002490:	2300      	movs	r3, #0
 8002492:	61bb      	str	r3, [r7, #24]
  if (HAL_ADC_ConfigChannel(&hadc1, &sConfig) != HAL_OK)
 8002494:	1d3b      	adds	r3, r7, #4
 8002496:	4619      	mov	r1, r3
 8002498:	480c      	ldr	r0, [pc, #48]	@ (80024cc <MX_ADC1_Init+0x11c>)
 800249a:	f001 fd17 	bl	8003ecc <HAL_ADC_ConfigChannel>
 800249e:	4603      	mov	r3, r0
 80024a0:	2b00      	cmp	r3, #0
 80024a2:	d001      	beq.n	80024a8 <MX_ADC1_Init+0xf8>
  {
    Error_Handler();
 80024a4:	f000 f9f4 	bl	8002890 <Error_Handler>
  }

  /** Configure Regular Channel
  */
  sConfig.Channel = ADC_CHANNEL_11;
 80024a8:	4b0a      	ldr	r3, [pc, #40]	@ (80024d4 <MX_ADC1_Init+0x124>)
 80024aa:	607b      	str	r3, [r7, #4]
  sConfig.Rank = ADC_REGULAR_RANK_2;
 80024ac:	230c      	movs	r3, #12
 80024ae:	60bb      	str	r3, [r7, #8]
  if (HAL_ADC_ConfigChannel(&hadc1, &sConfig) != HAL_OK)
 80024b0:	1d3b      	adds	r3, r7, #4
 80024b2:	4619      	mov	r1, r3
 80024b4:	4805      	ldr	r0, [pc, #20]	@ (80024cc <MX_ADC1_Init+0x11c>)
 80024b6:	f001 fd09 	bl	8003ecc <HAL_ADC_ConfigChannel>
 80024ba:	4603      	mov	r3, r0
 80024bc:	2b00      	cmp	r3, #0
 80024be:	d001      	beq.n	80024c4 <MX_ADC1_Init+0x114>
  {
    Error_Handler();
 80024c0:	f000 f9e6 	bl	8002890 <Error_Handler>
  }
  /* USER CODE BEGIN ADC1_Init 2 */
  /* USER CODE END ADC1_Init 2 */

}
 80024c4:	bf00      	nop
 80024c6:	3730      	adds	r7, #48	@ 0x30
 80024c8:	46bd      	mov	sp, r7
 80024ca:	bd80      	pop	{r7, pc}
 80024cc:	2000007c 	.word	0x2000007c
 80024d0:	14f00020 	.word	0x14f00020
 80024d4:	2e300800 	.word	0x2e300800

080024d8 <MX_ADC2_Init>:
  * @brief ADC2 Initialization Function
  * @param None
  * @retval None
  */
static void MX_ADC2_Init(void)
{
 80024d8:	b580      	push	{r7, lr}
 80024da:	b088      	sub	sp, #32
 80024dc:	af00      	add	r7, sp, #0

  /* USER CODE BEGIN ADC2_Init 0 */
  /* USER CODE END ADC2_Init 0 */

  ADC_ChannelConfTypeDef sConfig = {0};
 80024de:	463b      	mov	r3, r7
 80024e0:	2220      	movs	r2, #32
 80024e2:	2100      	movs	r1, #0
 80024e4:	4618      	mov	r0, r3
 80024e6:	f006 fa39 	bl	800895c <memset>
  /* USER CODE BEGIN ADC2_Init 1 */
  /* USER CODE END ADC2_Init 1 */

  /** Common config
  */
  hadc2.Instance = ADC2;
 80024ea:	4b31      	ldr	r3, [pc, #196]	@ (80025b0 <MX_ADC2_Init+0xd8>)
 80024ec:	4a31      	ldr	r2, [pc, #196]	@ (80025b4 <MX_ADC2_Init+0xdc>)
 80024ee:	601a      	str	r2, [r3, #0]
  hadc2.Init.ClockPrescaler = ADC_CLOCK_ASYNC_DIV4;
 80024f0:	4b2f      	ldr	r3, [pc, #188]	@ (80025b0 <MX_ADC2_Init+0xd8>)
 80024f2:	f44f 2200 	mov.w	r2, #524288	@ 0x80000
 80024f6:	605a      	str	r2, [r3, #4]
  hadc2.Init.Resolution = ADC_RESOLUTION_12B;
 80024f8:	4b2d      	ldr	r3, [pc, #180]	@ (80025b0 <MX_ADC2_Init+0xd8>)
 80024fa:	2200      	movs	r2, #0
 80024fc:	609a      	str	r2, [r3, #8]
  hadc2.Init.DataAlign = ADC_DATAALIGN_RIGHT;
 80024fe:	4b2c      	ldr	r3, [pc, #176]	@ (80025b0 <MX_ADC2_Init+0xd8>)
 8002500:	2200      	movs	r2, #0
 8002502:	60da      	str	r2, [r3, #12]
  hadc2.Init.GainCompensation = 0;
 8002504:	4b2a      	ldr	r3, [pc, #168]	@ (80025b0 <MX_ADC2_Init+0xd8>)
 8002506:	2200      	movs	r2, #0
 8002508:	611a      	str	r2, [r3, #16]
  hadc2.Init.ScanConvMode = ADC_SCAN_DISABLE;
 800250a:	4b29      	ldr	r3, [pc, #164]	@ (80025b0 <MX_ADC2_Init+0xd8>)
 800250c:	2200      	movs	r2, #0
 800250e:	615a      	str	r2, [r3, #20]
  hadc2.Init.EOCSelection = ADC_EOC_SINGLE_CONV;
 8002510:	4b27      	ldr	r3, [pc, #156]	@ (80025b0 <MX_ADC2_Init+0xd8>)
 8002512:	2204      	movs	r2, #4
 8002514:	619a      	str	r2, [r3, #24]
  hadc2.Init.LowPowerAutoWait = DISABLE;
 8002516:	4b26      	ldr	r3, [pc, #152]	@ (80025b0 <MX_ADC2_Init+0xd8>)
 8002518:	2200      	movs	r2, #0
 800251a:	771a      	strb	r2, [r3, #28]
  hadc2.Init.ContinuousConvMode = ENABLE;
 800251c:	4b24      	ldr	r3, [pc, #144]	@ (80025b0 <MX_ADC2_Init+0xd8>)
 800251e:	2201      	movs	r2, #1
 8002520:	775a      	strb	r2, [r3, #29]
  hadc2.Init.NbrOfConversion = 1;
 8002522:	4b23      	ldr	r3, [pc, #140]	@ (80025b0 <MX_ADC2_Init+0xd8>)
 8002524:	2201      	movs	r2, #1
 8002526:	621a      	str	r2, [r3, #32]
  hadc2.Init.DiscontinuousConvMode = DISABLE;
 8002528:	4b21      	ldr	r3, [pc, #132]	@ (80025b0 <MX_ADC2_Init+0xd8>)
 800252a:	2200      	movs	r2, #0
 800252c:	f883 2024 	strb.w	r2, [r3, #36]	@ 0x24
  hadc2.Init.ExternalTrigConv = ADC_SOFTWARE_START;
 8002530:	4b1f      	ldr	r3, [pc, #124]	@ (80025b0 <MX_ADC2_Init+0xd8>)
 8002532:	2200      	movs	r2, #0
 8002534:	62da      	str	r2, [r3, #44]	@ 0x2c
  hadc2.Init.ExternalTrigConvEdge = ADC_EXTERNALTRIGCONVEDGE_NONE;
 8002536:	4b1e      	ldr	r3, [pc, #120]	@ (80025b0 <MX_ADC2_Init+0xd8>)
 8002538:	2200      	movs	r2, #0
 800253a:	631a      	str	r2, [r3, #48]	@ 0x30
  hadc2.Init.DMAContinuousRequests = ENABLE;
 800253c:	4b1c      	ldr	r3, [pc, #112]	@ (80025b0 <MX_ADC2_Init+0xd8>)
 800253e:	2201      	movs	r2, #1
 8002540:	f883 2038 	strb.w	r2, [r3, #56]	@ 0x38
  hadc2.Init.Overrun = ADC_OVR_DATA_PRESERVED;
 8002544:	4b1a      	ldr	r3, [pc, #104]	@ (80025b0 <MX_ADC2_Init+0xd8>)
 8002546:	2200      	movs	r2, #0
 8002548:	63da      	str	r2, [r3, #60]	@ 0x3c
  hadc2.Init.OversamplingMode = ENABLE;
 800254a:	4b19      	ldr	r3, [pc, #100]	@ (80025b0 <MX_ADC2_Init+0xd8>)
 800254c:	2201      	movs	r2, #1
 800254e:	f883 2040 	strb.w	r2, [r3, #64]	@ 0x40
  hadc2.Init.Oversampling.Ratio = ADC_OVERSAMPLING_RATIO_256;
 8002552:	4b17      	ldr	r3, [pc, #92]	@ (80025b0 <MX_ADC2_Init+0xd8>)
 8002554:	221c      	movs	r2, #28
 8002556:	645a      	str	r2, [r3, #68]	@ 0x44
  hadc2.Init.Oversampling.RightBitShift = ADC_RIGHTBITSHIFT_4;
 8002558:	4b15      	ldr	r3, [pc, #84]	@ (80025b0 <MX_ADC2_Init+0xd8>)
 800255a:	2280      	movs	r2, #128	@ 0x80
 800255c:	649a      	str	r2, [r3, #72]	@ 0x48
  hadc2.Init.Oversampling.TriggeredMode = ADC_TRIGGEREDMODE_SINGLE_TRIGGER;
 800255e:	4b14      	ldr	r3, [pc, #80]	@ (80025b0 <MX_ADC2_Init+0xd8>)
 8002560:	2200      	movs	r2, #0
 8002562:	64da      	str	r2, [r3, #76]	@ 0x4c
  hadc2.Init.Oversampling.OversamplingStopReset = ADC_REGOVERSAMPLING_RESUMED_MODE;
 8002564:	4b12      	ldr	r3, [pc, #72]	@ (80025b0 <MX_ADC2_Init+0xd8>)
 8002566:	f240 4201 	movw	r2, #1025	@ 0x401
 800256a:	651a      	str	r2, [r3, #80]	@ 0x50
  if (HAL_ADC_Init(&hadc2) != HAL_OK)
 800256c:	4810      	ldr	r0, [pc, #64]	@ (80025b0 <MX_ADC2_Init+0xd8>)
 800256e:	f001 fa61 	bl	8003a34 <HAL_ADC_Init>
 8002572:	4603      	mov	r3, r0
 8002574:	2b00      	cmp	r3, #0
 8002576:	d001      	beq.n	800257c <MX_ADC2_Init+0xa4>
  {
    Error_Handler();
 8002578:	f000 f98a 	bl	8002890 <Error_Handler>
  }

  /** Configure Regular Channel
  */
  sConfig.Channel = ADC_CHANNEL_15;
 800257c:	4b0e      	ldr	r3, [pc, #56]	@ (80025b8 <MX_ADC2_Init+0xe0>)
 800257e:	603b      	str	r3, [r7, #0]
  sConfig.Rank = ADC_REGULAR_RANK_1;
 8002580:	2306      	movs	r3, #6
 8002582:	607b      	str	r3, [r7, #4]
  sConfig.SamplingTime = ADC_SAMPLETIME_92CYCLES_5;
 8002584:	2305      	movs	r3, #5
 8002586:	60bb      	str	r3, [r7, #8]
  sConfig.SingleDiff = ADC_SINGLE_ENDED;
 8002588:	237f      	movs	r3, #127	@ 0x7f
 800258a:	60fb      	str	r3, [r7, #12]
  sConfig.OffsetNumber = ADC_OFFSET_NONE;
 800258c:	2304      	movs	r3, #4
 800258e:	613b      	str	r3, [r7, #16]
  sConfig.Offset = 0;
 8002590:	2300      	movs	r3, #0
 8002592:	617b      	str	r3, [r7, #20]
  if (HAL_ADC_ConfigChannel(&hadc2, &sConfig) != HAL_OK)
 8002594:	463b      	mov	r3, r7
 8002596:	4619      	mov	r1, r3
 8002598:	4805      	ldr	r0, [pc, #20]	@ (80025b0 <MX_ADC2_Init+0xd8>)
 800259a:	f001 fc97 	bl	8003ecc <HAL_ADC_ConfigChannel>
 800259e:	4603      	mov	r3, r0
 80025a0:	2b00      	cmp	r3, #0
 80025a2:	d001      	beq.n	80025a8 <MX_ADC2_Init+0xd0>
  {
    Error_Handler();
 80025a4:	f000 f974 	bl	8002890 <Error_Handler>
  }
  /* USER CODE BEGIN ADC2_Init 2 */
  /* USER CODE END ADC2_Init 2 */

}
 80025a8:	bf00      	nop
 80025aa:	3720      	adds	r7, #32
 80025ac:	46bd      	mov	sp, r7
 80025ae:	bd80      	pop	{r7, pc}
 80025b0:	200000e8 	.word	0x200000e8
 80025b4:	50000100 	.word	0x50000100
 80025b8:	3ef08000 	.word	0x3ef08000

080025bc <MX_I2C3_Init>:
  * @brief I2C3 Initialization Function
  * @param None
  * @retval None
  */
static void MX_I2C3_Init(void)
{
 80025bc:	b580      	push	{r7, lr}
 80025be:	af00      	add	r7, sp, #0
  /* USER CODE END I2C3_Init 0 */

  /* USER CODE BEGIN I2C3_Init 1 */

  /* USER CODE END I2C3_Init 1 */
  hi2c3.Instance = I2C3;
 80025c0:	4b1b      	ldr	r3, [pc, #108]	@ (8002630 <MX_I2C3_Init+0x74>)
 80025c2:	4a1c      	ldr	r2, [pc, #112]	@ (8002634 <MX_I2C3_Init+0x78>)
 80025c4:	601a      	str	r2, [r3, #0]
  hi2c3.Init.Timing = 0x40916E9B;
 80025c6:	4b1a      	ldr	r3, [pc, #104]	@ (8002630 <MX_I2C3_Init+0x74>)
 80025c8:	4a1b      	ldr	r2, [pc, #108]	@ (8002638 <MX_I2C3_Init+0x7c>)
 80025ca:	605a      	str	r2, [r3, #4]
  hi2c3.Init.OwnAddress1 = 0;
 80025cc:	4b18      	ldr	r3, [pc, #96]	@ (8002630 <MX_I2C3_Init+0x74>)
 80025ce:	2200      	movs	r2, #0
 80025d0:	609a      	str	r2, [r3, #8]
  hi2c3.Init.AddressingMode = I2C_ADDRESSINGMODE_7BIT;
 80025d2:	4b17      	ldr	r3, [pc, #92]	@ (8002630 <MX_I2C3_Init+0x74>)
 80025d4:	2201      	movs	r2, #1
 80025d6:	60da      	str	r2, [r3, #12]
  hi2c3.Init.DualAddressMode = I2C_DUALADDRESS_DISABLE;
 80025d8:	4b15      	ldr	r3, [pc, #84]	@ (8002630 <MX_I2C3_Init+0x74>)
 80025da:	2200      	movs	r2, #0
 80025dc:	611a      	str	r2, [r3, #16]
  hi2c3.Init.OwnAddress2 = 0;
 80025de:	4b14      	ldr	r3, [pc, #80]	@ (8002630 <MX_I2C3_Init+0x74>)
 80025e0:	2200      	movs	r2, #0
 80025e2:	615a      	str	r2, [r3, #20]
  hi2c3.Init.OwnAddress2Masks = I2C_OA2_NOMASK;
 80025e4:	4b12      	ldr	r3, [pc, #72]	@ (8002630 <MX_I2C3_Init+0x74>)
 80025e6:	2200      	movs	r2, #0
 80025e8:	619a      	str	r2, [r3, #24]
  hi2c3.Init.GeneralCallMode = I2C_GENERALCALL_DISABLE;
 80025ea:	4b11      	ldr	r3, [pc, #68]	@ (8002630 <MX_I2C3_Init+0x74>)
 80025ec:	2200      	movs	r2, #0
 80025ee:	61da      	str	r2, [r3, #28]
  hi2c3.Init.NoStretchMode = I2C_NOSTRETCH_DISABLE;
 80025f0:	4b0f      	ldr	r3, [pc, #60]	@ (8002630 <MX_I2C3_Init+0x74>)
 80025f2:	2200      	movs	r2, #0
 80025f4:	621a      	str	r2, [r3, #32]
  if (HAL_I2C_Init(&hi2c3) != HAL_OK)
 80025f6:	480e      	ldr	r0, [pc, #56]	@ (8002630 <MX_I2C3_Init+0x74>)
 80025f8:	f003 f876 	bl	80056e8 <HAL_I2C_Init>
 80025fc:	4603      	mov	r3, r0
 80025fe:	2b00      	cmp	r3, #0
 8002600:	d001      	beq.n	8002606 <MX_I2C3_Init+0x4a>
  {
    Error_Handler();
 8002602:	f000 f945 	bl	8002890 <Error_Handler>
  }

  /** Configure Analogue filter
  */
  if (HAL_I2CEx_ConfigAnalogFilter(&hi2c3, I2C_ANALOGFILTER_ENABLE) != HAL_OK)
 8002606:	2100      	movs	r1, #0
 8002608:	4809      	ldr	r0, [pc, #36]	@ (8002630 <MX_I2C3_Init+0x74>)
 800260a:	f003 fc3b 	bl	8005e84 <HAL_I2CEx_ConfigAnalogFilter>
 800260e:	4603      	mov	r3, r0
 8002610:	2b00      	cmp	r3, #0
 8002612:	d001      	beq.n	8002618 <MX_I2C3_Init+0x5c>
  {
    Error_Handler();
 8002614:	f000 f93c 	bl	8002890 <Error_Handler>
  }

  /** Configure Digital filter
  */
  if (HAL_I2CEx_ConfigDigitalFilter(&hi2c3, 0) != HAL_OK)
 8002618:	2100      	movs	r1, #0
 800261a:	4805      	ldr	r0, [pc, #20]	@ (8002630 <MX_I2C3_Init+0x74>)
 800261c:	f003 fc7d 	bl	8005f1a <HAL_I2CEx_ConfigDigitalFilter>
 8002620:	4603      	mov	r3, r0
 8002622:	2b00      	cmp	r3, #0
 8002624:	d001      	beq.n	800262a <MX_I2C3_Init+0x6e>
  {
    Error_Handler();
 8002626:	f000 f933 	bl	8002890 <Error_Handler>
  }
  /* USER CODE BEGIN I2C3_Init 2 */

  /* USER CODE END I2C3_Init 2 */

}
 800262a:	bf00      	nop
 800262c:	bd80      	pop	{r7, pc}
 800262e:	bf00      	nop
 8002630:	20000214 	.word	0x20000214
 8002634:	40007800 	.word	0x40007800
 8002638:	40916e9b 	.word	0x40916e9b

0800263c <MX_SPI1_Init>:
  * @brief SPI1 Initialization Function
  * @param None
  * @retval None
  */
static void MX_SPI1_Init(void)
{
 800263c:	b580      	push	{r7, lr}
 800263e:	af00      	add	r7, sp, #0
  /* USER CODE END SPI1_Init 0 */

  /* USER CODE BEGIN SPI1_Init 1 */
  /* USER CODE END SPI1_Init 1 */
  /* SPI1 parameter configuration*/
  hspi1.Instance = SPI1;
 8002640:	4b1b      	ldr	r3, [pc, #108]	@ (80026b0 <MX_SPI1_Init+0x74>)
 8002642:	4a1c      	ldr	r2, [pc, #112]	@ (80026b4 <MX_SPI1_Init+0x78>)
 8002644:	601a      	str	r2, [r3, #0]
  hspi1.Init.Mode = SPI_MODE_MASTER;
 8002646:	4b1a      	ldr	r3, [pc, #104]	@ (80026b0 <MX_SPI1_Init+0x74>)
 8002648:	f44f 7282 	mov.w	r2, #260	@ 0x104
 800264c:	605a      	str	r2, [r3, #4]
  hspi1.Init.Direction = SPI_DIRECTION_2LINES;
 800264e:	4b18      	ldr	r3, [pc, #96]	@ (80026b0 <MX_SPI1_Init+0x74>)
 8002650:	2200      	movs	r2, #0
 8002652:	609a      	str	r2, [r3, #8]
  hspi1.Init.DataSize = SPI_DATASIZE_8BIT;
 8002654:	4b16      	ldr	r3, [pc, #88]	@ (80026b0 <MX_SPI1_Init+0x74>)
 8002656:	f44f 62e0 	mov.w	r2, #1792	@ 0x700
 800265a:	60da      	str	r2, [r3, #12]
  hspi1.Init.CLKPolarity = SPI_POLARITY_LOW;
 800265c:	4b14      	ldr	r3, [pc, #80]	@ (80026b0 <MX_SPI1_Init+0x74>)
 800265e:	2200      	movs	r2, #0
 8002660:	611a      	str	r2, [r3, #16]
  hspi1.Init.CLKPhase = SPI_PHASE_1EDGE;
 8002662:	4b13      	ldr	r3, [pc, #76]	@ (80026b0 <MX_SPI1_Init+0x74>)
 8002664:	2200      	movs	r2, #0
 8002666:	615a      	str	r2, [r3, #20]
  hspi1.Init.NSS = SPI_NSS_SOFT;
 8002668:	4b11      	ldr	r3, [pc, #68]	@ (80026b0 <MX_SPI1_Init+0x74>)
 800266a:	f44f 7200 	mov.w	r2, #512	@ 0x200
 800266e:	619a      	str	r2, [r3, #24]
  hspi1.Init.BaudRatePrescaler = SPI_BAUDRATEPRESCALER_32;
 8002670:	4b0f      	ldr	r3, [pc, #60]	@ (80026b0 <MX_SPI1_Init+0x74>)
 8002672:	2220      	movs	r2, #32
 8002674:	61da      	str	r2, [r3, #28]
  hspi1.Init.FirstBit = SPI_FIRSTBIT_MSB;
 8002676:	4b0e      	ldr	r3, [pc, #56]	@ (80026b0 <MX_SPI1_Init+0x74>)
 8002678:	2200      	movs	r2, #0
 800267a:	621a      	str	r2, [r3, #32]
  hspi1.Init.TIMode = SPI_TIMODE_DISABLE;
 800267c:	4b0c      	ldr	r3, [pc, #48]	@ (80026b0 <MX_SPI1_Init+0x74>)
 800267e:	2200      	movs	r2, #0
 8002680:	625a      	str	r2, [r3, #36]	@ 0x24
  hspi1.Init.CRCCalculation = SPI_CRCCALCULATION_DISABLE;
 8002682:	4b0b      	ldr	r3, [pc, #44]	@ (80026b0 <MX_SPI1_Init+0x74>)
 8002684:	2200      	movs	r2, #0
 8002686:	629a      	str	r2, [r3, #40]	@ 0x28
  hspi1.Init.CRCPolynomial = 7;
 8002688:	4b09      	ldr	r3, [pc, #36]	@ (80026b0 <MX_SPI1_Init+0x74>)
 800268a:	2207      	movs	r2, #7
 800268c:	62da      	str	r2, [r3, #44]	@ 0x2c
  hspi1.Init.CRCLength = SPI_CRC_LENGTH_DATASIZE;
 800268e:	4b08      	ldr	r3, [pc, #32]	@ (80026b0 <MX_SPI1_Init+0x74>)
 8002690:	2200      	movs	r2, #0
 8002692:	631a      	str	r2, [r3, #48]	@ 0x30
  hspi1.Init.NSSPMode = SPI_NSS_PULSE_DISABLE;
 8002694:	4b06      	ldr	r3, [pc, #24]	@ (80026b0 <MX_SPI1_Init+0x74>)
 8002696:	2200      	movs	r2, #0
 8002698:	635a      	str	r2, [r3, #52]	@ 0x34
  if (HAL_SPI_Init(&hspi1) != HAL_OK)
 800269a:	4805      	ldr	r0, [pc, #20]	@ (80026b0 <MX_SPI1_Init+0x74>)
 800269c:	f004 fc24 	bl	8006ee8 <HAL_SPI_Init>
 80026a0:	4603      	mov	r3, r0
 80026a2:	2b00      	cmp	r3, #0
 80026a4:	d001      	beq.n	80026aa <MX_SPI1_Init+0x6e>
  {
    Error_Handler();
 80026a6:	f000 f8f3 	bl	8002890 <Error_Handler>
  }
  /* USER CODE BEGIN SPI1_Init 2 */
  /* USER CODE END SPI1_Init 2 */

}
 80026aa:	bf00      	nop
 80026ac:	bd80      	pop	{r7, pc}
 80026ae:	bf00      	nop
 80026b0:	20000268 	.word	0x20000268
 80026b4:	40013000 	.word	0x40013000

080026b8 <MX_TIM6_Init>:
  * @brief TIM6 Initialization Function
  * @param None
  * @retval None
  */
static void MX_TIM6_Init(void)
{
 80026b8:	b580      	push	{r7, lr}
 80026ba:	b084      	sub	sp, #16
 80026bc:	af00      	add	r7, sp, #0

  /* USER CODE BEGIN TIM6_Init 0 */
  /* USER CODE END TIM6_Init 0 */

  TIM_MasterConfigTypeDef sMasterConfig = {0};
 80026be:	1d3b      	adds	r3, r7, #4
 80026c0:	2200      	movs	r2, #0
 80026c2:	601a      	str	r2, [r3, #0]
 80026c4:	605a      	str	r2, [r3, #4]
 80026c6:	609a      	str	r2, [r3, #8]

  /* USER CODE BEGIN TIM6_Init 1 */
  /* USER CODE END TIM6_Init 1 */
  htim6.Instance = TIM6;
 80026c8:	4b14      	ldr	r3, [pc, #80]	@ (800271c <MX_TIM6_Init+0x64>)
 80026ca:	4a15      	ldr	r2, [pc, #84]	@ (8002720 <MX_TIM6_Init+0x68>)
 80026cc:	601a      	str	r2, [r3, #0]
  htim6.Init.Prescaler = 74;
 80026ce:	4b13      	ldr	r3, [pc, #76]	@ (800271c <MX_TIM6_Init+0x64>)
 80026d0:	224a      	movs	r2, #74	@ 0x4a
 80026d2:	605a      	str	r2, [r3, #4]
  htim6.Init.CounterMode = TIM_COUNTERMODE_UP;
 80026d4:	4b11      	ldr	r3, [pc, #68]	@ (800271c <MX_TIM6_Init+0x64>)
 80026d6:	2200      	movs	r2, #0
 80026d8:	609a      	str	r2, [r3, #8]
  htim6.Init.Period = 2874;
 80026da:	4b10      	ldr	r3, [pc, #64]	@ (800271c <MX_TIM6_Init+0x64>)
 80026dc:	f640 323a 	movw	r2, #2874	@ 0xb3a
 80026e0:	60da      	str	r2, [r3, #12]
  htim6.Init.AutoReloadPreload = TIM_AUTORELOAD_PRELOAD_DISABLE;
 80026e2:	4b0e      	ldr	r3, [pc, #56]	@ (800271c <MX_TIM6_Init+0x64>)
 80026e4:	2200      	movs	r2, #0
 80026e6:	619a      	str	r2, [r3, #24]
  if (HAL_TIM_Base_Init(&htim6) != HAL_OK)
 80026e8:	480c      	ldr	r0, [pc, #48]	@ (800271c <MX_TIM6_Init+0x64>)
 80026ea:	f005 fd9f 	bl	800822c <HAL_TIM_Base_Init>
 80026ee:	4603      	mov	r3, r0
 80026f0:	2b00      	cmp	r3, #0
 80026f2:	d001      	beq.n	80026f8 <MX_TIM6_Init+0x40>
  {
    Error_Handler();
 80026f4:	f000 f8cc 	bl	8002890 <Error_Handler>
  }
  sMasterConfig.MasterOutputTrigger = TIM_TRGO_RESET;
 80026f8:	2300      	movs	r3, #0
 80026fa:	607b      	str	r3, [r7, #4]
  sMasterConfig.MasterSlaveMode = TIM_MASTERSLAVEMODE_DISABLE;
 80026fc:	2300      	movs	r3, #0
 80026fe:	60fb      	str	r3, [r7, #12]
  if (HAL_TIMEx_MasterConfigSynchronization(&htim6, &sMasterConfig) != HAL_OK)
 8002700:	1d3b      	adds	r3, r7, #4
 8002702:	4619      	mov	r1, r3
 8002704:	4805      	ldr	r0, [pc, #20]	@ (800271c <MX_TIM6_Init+0x64>)
 8002706:	f006 f861 	bl	80087cc <HAL_TIMEx_MasterConfigSynchronization>
 800270a:	4603      	mov	r3, r0
 800270c:	2b00      	cmp	r3, #0
 800270e:	d001      	beq.n	8002714 <MX_TIM6_Init+0x5c>
  {
    Error_Handler();
 8002710:	f000 f8be 	bl	8002890 <Error_Handler>
  }
  /* USER CODE BEGIN TIM6_Init 2 */
  /* USER CODE END TIM6_Init 2 */

}
 8002714:	bf00      	nop
 8002716:	3710      	adds	r7, #16
 8002718:	46bd      	mov	sp, r7
 800271a:	bd80      	pop	{r7, pc}
 800271c:	2000032c 	.word	0x2000032c
 8002720:	40001000 	.word	0x40001000

08002724 <MX_TIM7_Init>:
  * @brief TIM7 Initialization Function
  * @param None
  * @retval None
  */
static void MX_TIM7_Init(void)
{
 8002724:	b580      	push	{r7, lr}
 8002726:	b084      	sub	sp, #16
 8002728:	af00      	add	r7, sp, #0

  /* USER CODE BEGIN TIM7_Init 0 */
  /* USER CODE END TIM7_Init 0 */

  TIM_MasterConfigTypeDef sMasterConfig = {0};
 800272a:	1d3b      	adds	r3, r7, #4
 800272c:	2200      	movs	r2, #0
 800272e:	601a      	str	r2, [r3, #0]
 8002730:	605a      	str	r2, [r3, #4]
 8002732:	609a      	str	r2, [r3, #8]

  /* USER CODE BEGIN TIM7_Init 1 */
  /* USER CODE END TIM7_Init 1 */
  htim7.Instance = TIM7;
 8002734:	4b14      	ldr	r3, [pc, #80]	@ (8002788 <MX_TIM7_Init+0x64>)
 8002736:	4a15      	ldr	r2, [pc, #84]	@ (800278c <MX_TIM7_Init+0x68>)
 8002738:	601a      	str	r2, [r3, #0]
  htim7.Init.Prescaler = 9;
 800273a:	4b13      	ldr	r3, [pc, #76]	@ (8002788 <MX_TIM7_Init+0x64>)
 800273c:	2209      	movs	r2, #9
 800273e:	605a      	str	r2, [r3, #4]
  htim7.Init.CounterMode = TIM_COUNTERMODE_UP;
 8002740:	4b11      	ldr	r3, [pc, #68]	@ (8002788 <MX_TIM7_Init+0x64>)
 8002742:	2200      	movs	r2, #0
 8002744:	609a      	str	r2, [r3, #8]
  htim7.Init.Period = 1999;
 8002746:	4b10      	ldr	r3, [pc, #64]	@ (8002788 <MX_TIM7_Init+0x64>)
 8002748:	f240 72cf 	movw	r2, #1999	@ 0x7cf
 800274c:	60da      	str	r2, [r3, #12]
  htim7.Init.AutoReloadPreload = TIM_AUTORELOAD_PRELOAD_DISABLE;
 800274e:	4b0e      	ldr	r3, [pc, #56]	@ (8002788 <MX_TIM7_Init+0x64>)
 8002750:	2200      	movs	r2, #0
 8002752:	619a      	str	r2, [r3, #24]
  if (HAL_TIM_Base_Init(&htim7) != HAL_OK)
 8002754:	480c      	ldr	r0, [pc, #48]	@ (8002788 <MX_TIM7_Init+0x64>)
 8002756:	f005 fd69 	bl	800822c <HAL_TIM_Base_Init>
 800275a:	4603      	mov	r3, r0
 800275c:	2b00      	cmp	r3, #0
 800275e:	d001      	beq.n	8002764 <MX_TIM7_Init+0x40>
  {
    Error_Handler();
 8002760:	f000 f896 	bl	8002890 <Error_Handler>
  }
  sMasterConfig.MasterOutputTrigger = TIM_TRGO_RESET;
 8002764:	2300      	movs	r3, #0
 8002766:	607b      	str	r3, [r7, #4]
  sMasterConfig.MasterSlaveMode = TIM_MASTERSLAVEMODE_DISABLE;
 8002768:	2300      	movs	r3, #0
 800276a:	60fb      	str	r3, [r7, #12]
  if (HAL_TIMEx_MasterConfigSynchronization(&htim7, &sMasterConfig) != HAL_OK)
 800276c:	1d3b      	adds	r3, r7, #4
 800276e:	4619      	mov	r1, r3
 8002770:	4805      	ldr	r0, [pc, #20]	@ (8002788 <MX_TIM7_Init+0x64>)
 8002772:	f006 f82b 	bl	80087cc <HAL_TIMEx_MasterConfigSynchronization>
 8002776:	4603      	mov	r3, r0
 8002778:	2b00      	cmp	r3, #0
 800277a:	d001      	beq.n	8002780 <MX_TIM7_Init+0x5c>
  {
    Error_Handler();
 800277c:	f000 f888 	bl	8002890 <Error_Handler>
  }
  /* USER CODE BEGIN TIM7_Init 2 */
  /* USER CODE END TIM7_Init 2 */

}
 8002780:	bf00      	nop
 8002782:	3710      	adds	r7, #16
 8002784:	46bd      	mov	sp, r7
 8002786:	bd80      	pop	{r7, pc}
 8002788:	20000378 	.word	0x20000378
 800278c:	40001400 	.word	0x40001400

08002790 <MX_DMA_Init>:

/**
  * Enable DMA controller clock
  */
static void MX_DMA_Init(void)
{
 8002790:	b580      	push	{r7, lr}
 8002792:	b082      	sub	sp, #8
 8002794:	af00      	add	r7, sp, #0

  /* DMA controller clock enable */
  __HAL_RCC_DMAMUX1_CLK_ENABLE();
 8002796:	4b1a      	ldr	r3, [pc, #104]	@ (8002800 <MX_DMA_Init+0x70>)
 8002798:	6c9b      	ldr	r3, [r3, #72]	@ 0x48
 800279a:	4a19      	ldr	r2, [pc, #100]	@ (8002800 <MX_DMA_Init+0x70>)
 800279c:	f043 0304 	orr.w	r3, r3, #4
 80027a0:	6493      	str	r3, [r2, #72]	@ 0x48
 80027a2:	4b17      	ldr	r3, [pc, #92]	@ (8002800 <MX_DMA_Init+0x70>)
 80027a4:	6c9b      	ldr	r3, [r3, #72]	@ 0x48
 80027a6:	f003 0304 	and.w	r3, r3, #4
 80027aa:	607b      	str	r3, [r7, #4]
 80027ac:	687b      	ldr	r3, [r7, #4]
  __HAL_RCC_DMA1_CLK_ENABLE();
 80027ae:	4b14      	ldr	r3, [pc, #80]	@ (8002800 <MX_DMA_Init+0x70>)
 80027b0:	6c9b      	ldr	r3, [r3, #72]	@ 0x48
 80027b2:	4a13      	ldr	r2, [pc, #76]	@ (8002800 <MX_DMA_Init+0x70>)
 80027b4:	f043 0301 	orr.w	r3, r3, #1
 80027b8:	6493      	str	r3, [r2, #72]	@ 0x48
 80027ba:	4b11      	ldr	r3, [pc, #68]	@ (8002800 <MX_DMA_Init+0x70>)
 80027bc:	6c9b      	ldr	r3, [r3, #72]	@ 0x48
 80027be:	f003 0301 	and.w	r3, r3, #1
 80027c2:	603b      	str	r3, [r7, #0]
 80027c4:	683b      	ldr	r3, [r7, #0]

  /* DMA interrupt init */
  /* DMA1_Channel1_IRQn interrupt configuration */
  HAL_NVIC_SetPriority(DMA1_Channel1_IRQn, 0, 0);
 80027c6:	2200      	movs	r2, #0
 80027c8:	2100      	movs	r1, #0
 80027ca:	200b      	movs	r0, #11
 80027cc:	f002 fb1b 	bl	8004e06 <HAL_NVIC_SetPriority>
  HAL_NVIC_EnableIRQ(DMA1_Channel1_IRQn);
 80027d0:	200b      	movs	r0, #11
 80027d2:	f002 fb32 	bl	8004e3a <HAL_NVIC_EnableIRQ>
  /* DMA1_Channel2_IRQn interrupt configuration */
  HAL_NVIC_SetPriority(DMA1_Channel2_IRQn, 0, 0);
 80027d6:	2200      	movs	r2, #0
 80027d8:	2100      	movs	r1, #0
 80027da:	200c      	movs	r0, #12
 80027dc:	f002 fb13 	bl	8004e06 <HAL_NVIC_SetPriority>
  HAL_NVIC_EnableIRQ(DMA1_Channel2_IRQn);
 80027e0:	200c      	movs	r0, #12
 80027e2:	f002 fb2a 	bl	8004e3a <HAL_NVIC_EnableIRQ>
  /* DMA1_Channel3_IRQn interrupt configuration */
  HAL_NVIC_SetPriority(DMA1_Channel3_IRQn, 0, 0);
 80027e6:	2200      	movs	r2, #0
 80027e8:	2100      	movs	r1, #0
 80027ea:	200d      	movs	r0, #13
 80027ec:	f002 fb0b 	bl	8004e06 <HAL_NVIC_SetPriority>
  HAL_NVIC_EnableIRQ(DMA1_Channel3_IRQn);
 80027f0:	200d      	movs	r0, #13
 80027f2:	f002 fb22 	bl	8004e3a <HAL_NVIC_EnableIRQ>

}
 80027f6:	bf00      	nop
 80027f8:	3708      	adds	r7, #8
 80027fa:	46bd      	mov	sp, r7
 80027fc:	bd80      	pop	{r7, pc}
 80027fe:	bf00      	nop
 8002800:	40021000 	.word	0x40021000

08002804 <MX_GPIO_Init>:
  * @brief GPIO Initialization Function
  * @param None
  * @retval None
  */
static void MX_GPIO_Init(void)
{
 8002804:	b580      	push	{r7, lr}
 8002806:	b088      	sub	sp, #32
 8002808:	af00      	add	r7, sp, #0
  GPIO_InitTypeDef GPIO_InitStruct = {0};
 800280a:	f107 030c 	add.w	r3, r7, #12
 800280e:	2200      	movs	r2, #0
 8002810:	601a      	str	r2, [r3, #0]
 8002812:	605a      	str	r2, [r3, #4]
 8002814:	609a      	str	r2, [r3, #8]
 8002816:	60da      	str	r2, [r3, #12]
 8002818:	611a      	str	r2, [r3, #16]
  /* USER CODE BEGIN MX_GPIO_Init_1 */
  /* USER CODE END MX_GPIO_Init_1 */

  /* GPIO Ports Clock Enable */
  __HAL_RCC_GPIOA_CLK_ENABLE();
 800281a:	4b1c      	ldr	r3, [pc, #112]	@ (800288c <MX_GPIO_Init+0x88>)
 800281c:	6cdb      	ldr	r3, [r3, #76]	@ 0x4c
 800281e:	4a1b      	ldr	r2, [pc, #108]	@ (800288c <MX_GPIO_Init+0x88>)
 8002820:	f043 0301 	orr.w	r3, r3, #1
 8002824:	64d3      	str	r3, [r2, #76]	@ 0x4c
 8002826:	4b19      	ldr	r3, [pc, #100]	@ (800288c <MX_GPIO_Init+0x88>)
 8002828:	6cdb      	ldr	r3, [r3, #76]	@ 0x4c
 800282a:	f003 0301 	and.w	r3, r3, #1
 800282e:	60bb      	str	r3, [r7, #8]
 8002830:	68bb      	ldr	r3, [r7, #8]
  __HAL_RCC_GPIOB_CLK_ENABLE();
 8002832:	4b16      	ldr	r3, [pc, #88]	@ (800288c <MX_GPIO_Init+0x88>)
 8002834:	6cdb      	ldr	r3, [r3, #76]	@ 0x4c
 8002836:	4a15      	ldr	r2, [pc, #84]	@ (800288c <MX_GPIO_Init+0x88>)
 8002838:	f043 0302 	orr.w	r3, r3, #2
 800283c:	64d3      	str	r3, [r2, #76]	@ 0x4c
 800283e:	4b13      	ldr	r3, [pc, #76]	@ (800288c <MX_GPIO_Init+0x88>)
 8002840:	6cdb      	ldr	r3, [r3, #76]	@ 0x4c
 8002842:	f003 0302 	and.w	r3, r3, #2
 8002846:	607b      	str	r3, [r7, #4]
 8002848:	687b      	ldr	r3, [r7, #4]

  /*Configure GPIO pin Output Level */
  HAL_GPIO_WritePin(GPIOA, GPIO_PIN_1|GPIO_PIN_2|SPI_CS_Pin|Axis2B_Pin
 800284a:	2200      	movs	r2, #0
 800284c:	f649 6116 	movw	r1, #40470	@ 0x9e16
 8002850:	f04f 4090 	mov.w	r0, #1207959552	@ 0x48000000
 8002854:	f002 ff16 	bl	8005684 <HAL_GPIO_WritePin>
                          |Axis2A_Pin|Axis1B_Pin|Axis1A_Pin|LED_Blink_Pin, GPIO_PIN_RESET);

  /*Configure GPIO pins : PA1 PA2 SPI_CS_Pin Axis2B_Pin
                           Axis2A_Pin Axis1B_Pin Axis1A_Pin LED_Blink_Pin */
  GPIO_InitStruct.Pin = GPIO_PIN_1|GPIO_PIN_2|SPI_CS_Pin|Axis2B_Pin
 8002858:	f649 6316 	movw	r3, #40470	@ 0x9e16
 800285c:	60fb      	str	r3, [r7, #12]
                          |Axis2A_Pin|Axis1B_Pin|Axis1A_Pin|LED_Blink_Pin;
  GPIO_InitStruct.Mode = GPIO_MODE_OUTPUT_PP;
 800285e:	2301      	movs	r3, #1
 8002860:	613b      	str	r3, [r7, #16]
  GPIO_InitStruct.Pull = GPIO_NOPULL;
 8002862:	2300      	movs	r3, #0
 8002864:	617b      	str	r3, [r7, #20]
  GPIO_InitStruct.Speed = GPIO_SPEED_FREQ_LOW;
 8002866:	2300      	movs	r3, #0
 8002868:	61bb      	str	r3, [r7, #24]
  HAL_GPIO_Init(GPIOA, &GPIO_InitStruct);
 800286a:	f107 030c 	add.w	r3, r7, #12
 800286e:	4619      	mov	r1, r3
 8002870:	f04f 4090 	mov.w	r0, #1207959552	@ 0x48000000
 8002874:	f002 fd7a 	bl	800536c <HAL_GPIO_Init>

  /* USER CODE BEGIN MX_GPIO_Init_2 */
  HAL_GPIO_WritePin(GPIOA, SPI_CS_Pin, GPIO_PIN_SET);  /* deselect IMU */
 8002878:	2201      	movs	r2, #1
 800287a:	2110      	movs	r1, #16
 800287c:	f04f 4090 	mov.w	r0, #1207959552	@ 0x48000000
 8002880:	f002 ff00 	bl	8005684 <HAL_GPIO_WritePin>
  /* USER CODE END MX_GPIO_Init_2 */
}
 8002884:	bf00      	nop
 8002886:	3720      	adds	r7, #32
 8002888:	46bd      	mov	sp, r7
 800288a:	bd80      	pop	{r7, pc}
 800288c:	40021000 	.word	0x40021000

08002890 <Error_Handler>:
/**
  * @brief  This function is executed in case of error occurrence.
  * @retval None
  */
void Error_Handler(void)
{
 8002890:	b480      	push	{r7}
 8002892:	af00      	add	r7, sp, #0
  \details Disables IRQ interrupts by setting the I-bit in the CPSR.
           Can only be executed in Privileged modes.
 */
__STATIC_FORCEINLINE void __disable_irq(void)
{
  __ASM volatile ("cpsid i" : : : "memory");
 8002894:	b672      	cpsid	i
}
 8002896:	bf00      	nop
  /* USER CODE BEGIN Error_Handler_Debug */
  __disable_irq();
  while (1) {}
 8002898:	bf00      	nop
 800289a:	e7fd      	b.n	8002898 <Error_Handler+0x8>

0800289c <QOutputAxisState_Construct>:
// AxisState Constructor
QOutputAxisState QOutputAxisState_ConstructDefault() {
    return QOutputAxisState_Construct(4096);
}

QOutputAxisState QOutputAxisState_Construct(int cpr_val) {
 800289c:	b4b0      	push	{r4, r5, r7}
 800289e:	b08f      	sub	sp, #60	@ 0x3c
 80028a0:	af00      	add	r7, sp, #0
 80028a2:	6078      	str	r0, [r7, #4]
 80028a4:	6039      	str	r1, [r7, #0]
    QOutputAxisState state;
    state.cpr = MAX(MIN_CPR, MIN(cpr_val, MAX_CPR));
 80028a6:	683b      	ldr	r3, [r7, #0]
 80028a8:	2b00      	cmp	r3, #0
 80028aa:	dd06      	ble.n	80028ba <QOutputAxisState_Construct+0x1e>
 80028ac:	683b      	ldr	r3, [r7, #0]
 80028ae:	f242 3228 	movw	r2, #9000	@ 0x2328
 80028b2:	4293      	cmp	r3, r2
 80028b4:	bfa8      	it	ge
 80028b6:	4613      	movge	r3, r2
 80028b8:	e000      	b.n	80028bc <QOutputAxisState_Construct+0x20>
 80028ba:	2301      	movs	r3, #1
 80028bc:	60bb      	str	r3, [r7, #8]

    state.positions_per_rev = state.cpr * 4;
 80028be:	68bb      	ldr	r3, [r7, #8]
 80028c0:	009b      	lsls	r3, r3, #2
 80028c2:	60fb      	str	r3, [r7, #12]

    state.starting_angle = 0.0;
 80028c4:	f04f 0200 	mov.w	r2, #0
 80028c8:	f04f 0300 	mov.w	r3, #0
 80028cc:	e9c7 2304 	strd	r2, r3, [r7, #16]
    state.previous_angle = 0.0;
 80028d0:	f04f 0200 	mov.w	r2, #0
 80028d4:	f04f 0300 	mov.w	r3, #0
 80028d8:	e9c7 2306 	strd	r2, r3, [r7, #24]
    state.position_count = 0;
 80028dc:	2300      	movs	r3, #0
 80028de:	623b      	str	r3, [r7, #32]

    state.channel_a = 0;
 80028e0:	2300      	movs	r3, #0
 80028e2:	627b      	str	r3, [r7, #36]	@ 0x24
    state.channel_b = 0,
 80028e4:	2300      	movs	r3, #0
 80028e6:	62bb      	str	r3, [r7, #40]	@ 0x28
    state.index = 0,
 80028e8:	2300      	movs	r3, #0
 80028ea:	62fb      	str	r3, [r7, #44]	@ 0x2c

    state.calibrated = false;
 80028ec:	2300      	movs	r3, #0
 80028ee:	f887 3030 	strb.w	r3, [r7, #48]	@ 0x30
    return state;
 80028f2:	687b      	ldr	r3, [r7, #4]
 80028f4:	461d      	mov	r5, r3
 80028f6:	f107 0408 	add.w	r4, r7, #8
 80028fa:	cc0f      	ldmia	r4!, {r0, r1, r2, r3}
 80028fc:	c50f      	stmia	r5!, {r0, r1, r2, r3}
 80028fe:	cc0f      	ldmia	r4!, {r0, r1, r2, r3}
 8002900:	c50f      	stmia	r5!, {r0, r1, r2, r3}
 8002902:	e894 000f 	ldmia.w	r4, {r0, r1, r2, r3}
 8002906:	e885 000f 	stmia.w	r5, {r0, r1, r2, r3}
}
 800290a:	6878      	ldr	r0, [r7, #4]
 800290c:	373c      	adds	r7, #60	@ 0x3c
 800290e:	46bd      	mov	sp, r7
 8002910:	bcb0      	pop	{r4, r5, r7}
 8002912:	4770      	bx	lr

08002914 <QOutputAxisState_Initialize>:

// Initialize axis with starting angle
void QOutputAxisState_Initialize(QOutputAxisState* axis, double angle) {
 8002914:	b5b0      	push	{r4, r5, r7, lr}
 8002916:	b084      	sub	sp, #16
 8002918:	af00      	add	r7, sp, #0
 800291a:	60f8      	str	r0, [r7, #12]
 800291c:	ed87 0b00 	vstr	d0, [r7]
    // Initialize axis
    axis->starting_angle = angle;
 8002920:	68f9      	ldr	r1, [r7, #12]
 8002922:	e9d7 2300 	ldrd	r2, r3, [r7]
 8002926:	e9c1 2302 	strd	r2, r3, [r1, #8]
    axis->previous_angle = angle;
 800292a:	68f9      	ldr	r1, [r7, #12]
 800292c:	e9d7 2300 	ldrd	r2, r3, [r7]
 8002930:	e9c1 2304 	strd	r2, r3, [r1, #16]
    axis->position_count = (angle / 360) * axis->positions_per_rev;
 8002934:	f04f 0200 	mov.w	r2, #0
 8002938:	4b23      	ldr	r3, [pc, #140]	@ (80029c8 <QOutputAxisState_Initialize+0xb4>)
 800293a:	e9d7 0100 	ldrd	r0, r1, [r7]
 800293e:	f7fd ff51 	bl	80007e4 <__aeabi_ddiv>
 8002942:	4602      	mov	r2, r0
 8002944:	460b      	mov	r3, r1
 8002946:	4614      	mov	r4, r2
 8002948:	461d      	mov	r5, r3
 800294a:	68fb      	ldr	r3, [r7, #12]
 800294c:	685b      	ldr	r3, [r3, #4]
 800294e:	4618      	mov	r0, r3
 8002950:	f7fd fdb4 	bl	80004bc <__aeabi_i2d>
 8002954:	4602      	mov	r2, r0
 8002956:	460b      	mov	r3, r1
 8002958:	4620      	mov	r0, r4
 800295a:	4629      	mov	r1, r5
 800295c:	f7fd fe18 	bl	8000590 <__aeabi_dmul>
 8002960:	4602      	mov	r2, r0
 8002962:	460b      	mov	r3, r1
 8002964:	4610      	mov	r0, r2
 8002966:	4619      	mov	r1, r3
 8002968:	f7fe f8ac 	bl	8000ac4 <__aeabi_d2iz>
 800296c:	4602      	mov	r2, r0
 800296e:	68fb      	ldr	r3, [r7, #12]
 8002970:	619a      	str	r2, [r3, #24]

    // Assuming the angle is calibrated upon the beginning of the quadrature
    axis->calibrated = true;
 8002972:	68fb      	ldr	r3, [r7, #12]
 8002974:	2201      	movs	r2, #1
 8002976:	f883 2028 	strb.w	r2, [r3, #40]	@ 0x28

    // Starting low, as there has been no change yet
    axis->channel_a = 0;
 800297a:	68fb      	ldr	r3, [r7, #12]
 800297c:	2200      	movs	r2, #0
 800297e:	61da      	str	r2, [r3, #28]
    axis->channel_b = 0;
 8002980:	68fb      	ldr	r3, [r7, #12]
 8002982:	2200      	movs	r2, #0
 8002984:	621a      	str	r2, [r3, #32]

    // Since the channels are low, index can start high IF AND ONLY IF the starting angle is 0/360
    axis->index = (axis->starting_angle == 0 || axis->starting_angle == 360) ? 1 : 0;
 8002986:	68fb      	ldr	r3, [r7, #12]
 8002988:	e9d3 0102 	ldrd	r0, r1, [r3, #8]
 800298c:	f04f 0200 	mov.w	r2, #0
 8002990:	f04f 0300 	mov.w	r3, #0
 8002994:	f7fe f864 	bl	8000a60 <__aeabi_dcmpeq>
 8002998:	4603      	mov	r3, r0
 800299a:	2b00      	cmp	r3, #0
 800299c:	d10a      	bne.n	80029b4 <QOutputAxisState_Initialize+0xa0>
 800299e:	68fb      	ldr	r3, [r7, #12]
 80029a0:	e9d3 0102 	ldrd	r0, r1, [r3, #8]
 80029a4:	f04f 0200 	mov.w	r2, #0
 80029a8:	4b07      	ldr	r3, [pc, #28]	@ (80029c8 <QOutputAxisState_Initialize+0xb4>)
 80029aa:	f7fe f859 	bl	8000a60 <__aeabi_dcmpeq>
 80029ae:	4603      	mov	r3, r0
 80029b0:	2b00      	cmp	r3, #0
 80029b2:	d001      	beq.n	80029b8 <QOutputAxisState_Initialize+0xa4>
 80029b4:	2201      	movs	r2, #1
 80029b6:	e000      	b.n	80029ba <QOutputAxisState_Initialize+0xa6>
 80029b8:	2200      	movs	r2, #0
 80029ba:	68fb      	ldr	r3, [r7, #12]
 80029bc:	625a      	str	r2, [r3, #36]	@ 0x24
}
 80029be:	bf00      	nop
 80029c0:	3710      	adds	r7, #16
 80029c2:	46bd      	mov	sp, r7
 80029c4:	bdb0      	pop	{r4, r5, r7, pc}
 80029c6:	bf00      	nop
 80029c8:	40768000 	.word	0x40768000

080029cc <QOutputAxisState_UpdateAxis>:

// Update axes with new angle readings
void QOutputAxisState_UpdateAxis(QOutputAxisState* axis, double angle_axis) {
 80029cc:	b580      	push	{r7, lr}
 80029ce:	b08a      	sub	sp, #40	@ 0x28
 80029d0:	af00      	add	r7, sp, #0
 80029d2:	60f8      	str	r0, [r7, #12]
 80029d4:	ed87 0b00 	vstr	d0, [r7]
    double angle_diff = angle_axis - axis->previous_angle;
 80029d8:	68fb      	ldr	r3, [r7, #12]
 80029da:	e9d3 2304 	ldrd	r2, r3, [r3, #16]
 80029de:	e9d7 0100 	ldrd	r0, r1, [r7]
 80029e2:	f7fd fc1d 	bl	8000220 <__aeabi_dsub>
 80029e6:	4602      	mov	r2, r0
 80029e8:	460b      	mov	r3, r1
 80029ea:	e9c7 2308 	strd	r2, r3, [r7, #32]
    while (angle_diff > 180.0) angle_diff -= 360.0;
 80029ee:	e00a      	b.n	8002a06 <QOutputAxisState_UpdateAxis+0x3a>
 80029f0:	f04f 0200 	mov.w	r2, #0
 80029f4:	4b27      	ldr	r3, [pc, #156]	@ (8002a94 <QOutputAxisState_UpdateAxis+0xc8>)
 80029f6:	e9d7 0108 	ldrd	r0, r1, [r7, #32]
 80029fa:	f7fd fc11 	bl	8000220 <__aeabi_dsub>
 80029fe:	4602      	mov	r2, r0
 8002a00:	460b      	mov	r3, r1
 8002a02:	e9c7 2308 	strd	r2, r3, [r7, #32]
 8002a06:	f04f 0200 	mov.w	r2, #0
 8002a0a:	4b23      	ldr	r3, [pc, #140]	@ (8002a98 <QOutputAxisState_UpdateAxis+0xcc>)
 8002a0c:	e9d7 0108 	ldrd	r0, r1, [r7, #32]
 8002a10:	f7fe f84e 	bl	8000ab0 <__aeabi_dcmpgt>
 8002a14:	4603      	mov	r3, r0
 8002a16:	2b00      	cmp	r3, #0
 8002a18:	d1ea      	bne.n	80029f0 <QOutputAxisState_UpdateAxis+0x24>
    while (angle_diff < -180.0) angle_diff += 360.0;
 8002a1a:	e00a      	b.n	8002a32 <QOutputAxisState_UpdateAxis+0x66>
 8002a1c:	f04f 0200 	mov.w	r2, #0
 8002a20:	4b1c      	ldr	r3, [pc, #112]	@ (8002a94 <QOutputAxisState_UpdateAxis+0xc8>)
 8002a22:	e9d7 0108 	ldrd	r0, r1, [r7, #32]
 8002a26:	f7fd fbfd 	bl	8000224 <__adddf3>
 8002a2a:	4602      	mov	r2, r0
 8002a2c:	460b      	mov	r3, r1
 8002a2e:	e9c7 2308 	strd	r2, r3, [r7, #32]
 8002a32:	f04f 0200 	mov.w	r2, #0
 8002a36:	4b19      	ldr	r3, [pc, #100]	@ (8002a9c <QOutputAxisState_UpdateAxis+0xd0>)
 8002a38:	e9d7 0108 	ldrd	r0, r1, [r7, #32]
 8002a3c:	f7fe f81a 	bl	8000a74 <__aeabi_dcmplt>
 8002a40:	4603      	mov	r3, r0
 8002a42:	2b00      	cmp	r3, #0
 8002a44:	d1ea      	bne.n	8002a1c <QOutputAxisState_UpdateAxis+0x50>

    int steps = QOutputAxisState_AngleToPositionChange(axis, angle_diff);
 8002a46:	ed97 0b08 	vldr	d0, [r7, #32]
 8002a4a:	68f8      	ldr	r0, [r7, #12]
 8002a4c:	f000 f828 	bl	8002aa0 <QOutputAxisState_AngleToPositionChange>
 8002a50:	61b8      	str	r0, [r7, #24]
    int dir = (steps >= 0) ? 1 : -1;
 8002a52:	69bb      	ldr	r3, [r7, #24]
 8002a54:	2b00      	cmp	r3, #0
 8002a56:	db01      	blt.n	8002a5c <QOutputAxisState_UpdateAxis+0x90>
 8002a58:	2301      	movs	r3, #1
 8002a5a:	e001      	b.n	8002a60 <QOutputAxisState_UpdateAxis+0x94>
 8002a5c:	f04f 33ff 	mov.w	r3, #4294967295
 8002a60:	617b      	str	r3, [r7, #20]
    int remaining = (steps >= 0) ? steps : -steps;
 8002a62:	69bb      	ldr	r3, [r7, #24]
 8002a64:	2b00      	cmp	r3, #0
 8002a66:	bfb8      	it	lt
 8002a68:	425b      	neglt	r3, r3
 8002a6a:	61fb      	str	r3, [r7, #28]

    while (remaining--)
 8002a6c:	e003      	b.n	8002a76 <QOutputAxisState_UpdateAxis+0xaa>
        QOutputAxisState_StepOne(axis, dir);
 8002a6e:	6979      	ldr	r1, [r7, #20]
 8002a70:	68f8      	ldr	r0, [r7, #12]
 8002a72:	f000 f965 	bl	8002d40 <QOutputAxisState_StepOne>
    while (remaining--)
 8002a76:	69fb      	ldr	r3, [r7, #28]
 8002a78:	1e5a      	subs	r2, r3, #1
 8002a7a:	61fa      	str	r2, [r7, #28]
 8002a7c:	2b00      	cmp	r3, #0
 8002a7e:	d1f6      	bne.n	8002a6e <QOutputAxisState_UpdateAxis+0xa2>

    axis->previous_angle = angle_axis;
 8002a80:	68f9      	ldr	r1, [r7, #12]
 8002a82:	e9d7 2300 	ldrd	r2, r3, [r7]
 8002a86:	e9c1 2304 	strd	r2, r3, [r1, #16]
}
 8002a8a:	bf00      	nop
 8002a8c:	3728      	adds	r7, #40	@ 0x28
 8002a8e:	46bd      	mov	sp, r7
 8002a90:	bd80      	pop	{r7, pc}
 8002a92:	bf00      	nop
 8002a94:	40768000 	.word	0x40768000
 8002a98:	40668000 	.word	0x40668000
 8002a9c:	c0668000 	.word	0xc0668000

08002aa0 <QOutputAxisState_AngleToPositionChange>:

// Convert angle difference to position change
int QOutputAxisState_AngleToPositionChange(QOutputAxisState* state, double angle_diff) {
 8002aa0:	b5b0      	push	{r4, r5, r7, lr}
 8002aa2:	b086      	sub	sp, #24
 8002aa4:	af00      	add	r7, sp, #0
 8002aa6:	60f8      	str	r0, [r7, #12]
 8002aa8:	ed87 0b00 	vstr	d0, [r7]
    double raw_position_change = (angle_diff / DEGREES_PER_REVOLUTION) * state->positions_per_rev;
 8002aac:	f04f 0200 	mov.w	r2, #0
 8002ab0:	4b13      	ldr	r3, [pc, #76]	@ (8002b00 <QOutputAxisState_AngleToPositionChange+0x60>)
 8002ab2:	e9d7 0100 	ldrd	r0, r1, [r7]
 8002ab6:	f7fd fe95 	bl	80007e4 <__aeabi_ddiv>
 8002aba:	4602      	mov	r2, r0
 8002abc:	460b      	mov	r3, r1
 8002abe:	4614      	mov	r4, r2
 8002ac0:	461d      	mov	r5, r3
 8002ac2:	68fb      	ldr	r3, [r7, #12]
 8002ac4:	685b      	ldr	r3, [r3, #4]
 8002ac6:	4618      	mov	r0, r3
 8002ac8:	f7fd fcf8 	bl	80004bc <__aeabi_i2d>
 8002acc:	4602      	mov	r2, r0
 8002ace:	460b      	mov	r3, r1
 8002ad0:	4620      	mov	r0, r4
 8002ad2:	4629      	mov	r1, r5
 8002ad4:	f7fd fd5c 	bl	8000590 <__aeabi_dmul>
 8002ad8:	4602      	mov	r2, r0
 8002ada:	460b      	mov	r3, r1
 8002adc:	e9c7 2304 	strd	r2, r3, [r7, #16]
    return (int)round(raw_position_change);
 8002ae0:	ed97 0b04 	vldr	d0, [r7, #16]
 8002ae4:	f006 f834 	bl	8008b50 <round>
 8002ae8:	ec53 2b10 	vmov	r2, r3, d0
 8002aec:	4610      	mov	r0, r2
 8002aee:	4619      	mov	r1, r3
 8002af0:	f7fd ffe8 	bl	8000ac4 <__aeabi_d2iz>
 8002af4:	4603      	mov	r3, r0
}
 8002af6:	4618      	mov	r0, r3
 8002af8:	3718      	adds	r7, #24
 8002afa:	46bd      	mov	sp, r7
 8002afc:	bdb0      	pop	{r4, r5, r7, pc}
 8002afe:	bf00      	nop
 8002b00:	40768000 	.word	0x40768000

08002b04 <QOutputAxisState_GetQuadraturePattern>:
    if (position_change == 0) return;
    QOutputAxisState_GetQuadraturePattern(state);
}

// Get the quadrature pattern for a position
void QOutputAxisState_GetQuadraturePattern(QOutputAxisState* state)  {
 8002b04:	b480      	push	{r7}
 8002b06:	b083      	sub	sp, #12
 8002b08:	af00      	add	r7, sp, #0
 8002b0a:	6078      	str	r0, [r7, #4]
    switch (state->position_count % 4)
 8002b0c:	687b      	ldr	r3, [r7, #4]
 8002b0e:	699b      	ldr	r3, [r3, #24]
 8002b10:	425a      	negs	r2, r3
 8002b12:	f003 0303 	and.w	r3, r3, #3
 8002b16:	f002 0203 	and.w	r2, r2, #3
 8002b1a:	bf58      	it	pl
 8002b1c:	4253      	negpl	r3, r2
 8002b1e:	2b03      	cmp	r3, #3
 8002b20:	d826      	bhi.n	8002b70 <QOutputAxisState_GetQuadraturePattern+0x6c>
 8002b22:	a201      	add	r2, pc, #4	@ (adr r2, 8002b28 <QOutputAxisState_GetQuadraturePattern+0x24>)
 8002b24:	f852 f023 	ldr.w	pc, [r2, r3, lsl #2]
 8002b28:	08002b39 	.word	0x08002b39
 8002b2c:	08002b47 	.word	0x08002b47
 8002b30:	08002b55 	.word	0x08002b55
 8002b34:	08002b63 	.word	0x08002b63
    {
    case 0:
        state->channel_a = 0;
 8002b38:	687b      	ldr	r3, [r7, #4]
 8002b3a:	2200      	movs	r2, #0
 8002b3c:	61da      	str	r2, [r3, #28]
        state->channel_b = 0;
 8002b3e:	687b      	ldr	r3, [r7, #4]
 8002b40:	2200      	movs	r2, #0
 8002b42:	621a      	str	r2, [r3, #32]
        break;
 8002b44:	e01b      	b.n	8002b7e <QOutputAxisState_GetQuadraturePattern+0x7a>
    case 1:
        state->channel_a = 0;
 8002b46:	687b      	ldr	r3, [r7, #4]
 8002b48:	2200      	movs	r2, #0
 8002b4a:	61da      	str	r2, [r3, #28]
        state->channel_b = 1;
 8002b4c:	687b      	ldr	r3, [r7, #4]
 8002b4e:	2201      	movs	r2, #1
 8002b50:	621a      	str	r2, [r3, #32]
        break;
 8002b52:	e014      	b.n	8002b7e <QOutputAxisState_GetQuadraturePattern+0x7a>
    case 2:
        state->channel_a = 1;
 8002b54:	687b      	ldr	r3, [r7, #4]
 8002b56:	2201      	movs	r2, #1
 8002b58:	61da      	str	r2, [r3, #28]
        state->channel_b = 1;
 8002b5a:	687b      	ldr	r3, [r7, #4]
 8002b5c:	2201      	movs	r2, #1
 8002b5e:	621a      	str	r2, [r3, #32]
        break;
 8002b60:	e00d      	b.n	8002b7e <QOutputAxisState_GetQuadraturePattern+0x7a>
    case 3:
        state->channel_a = 1;
 8002b62:	687b      	ldr	r3, [r7, #4]
 8002b64:	2201      	movs	r2, #1
 8002b66:	61da      	str	r2, [r3, #28]
        state->channel_b = 0;
 8002b68:	687b      	ldr	r3, [r7, #4]
 8002b6a:	2200      	movs	r2, #0
 8002b6c:	621a      	str	r2, [r3, #32]
        break;
 8002b6e:	e006      	b.n	8002b7e <QOutputAxisState_GetQuadraturePattern+0x7a>
    default:
        state->channel_a = 0;
 8002b70:	687b      	ldr	r3, [r7, #4]
 8002b72:	2200      	movs	r2, #0
 8002b74:	61da      	str	r2, [r3, #28]
        state->channel_b = 0;
 8002b76:	687b      	ldr	r3, [r7, #4]
 8002b78:	2200      	movs	r2, #0
 8002b7a:	621a      	str	r2, [r3, #32]
        break;
 8002b7c:	bf00      	nop
    }
}
 8002b7e:	bf00      	nop
 8002b80:	370c      	adds	r7, #12
 8002b82:	46bd      	mov	sp, r7
 8002b84:	f85d 7b04 	ldr.w	r7, [sp], #4
 8002b88:	4770      	bx	lr
 8002b8a:	bf00      	nop

08002b8c <QuadratureOutput_Construct>:

QuadratureOutput QuadratureOutput_ConstructCPR(int cpr) {
    return QuadratureOutput_Construct(cpr, 2);
}

QuadratureOutput QuadratureOutput_Construct(int cpr, int num_axes) {
 8002b8c:	b5b0      	push	{r4, r5, r7, lr}
 8002b8e:	b0aa      	sub	sp, #168	@ 0xa8
 8002b90:	af00      	add	r7, sp, #0
 8002b92:	63f8      	str	r0, [r7, #60]	@ 0x3c
 8002b94:	63b9      	str	r1, [r7, #56]	@ 0x38
 8002b96:	637a      	str	r2, [r7, #52]	@ 0x34
    QuadratureOutput output;

    output.axis1 = QOutputAxisState_Construct(cpr);
 8002b98:	463b      	mov	r3, r7
 8002b9a:	6bb9      	ldr	r1, [r7, #56]	@ 0x38
 8002b9c:	4618      	mov	r0, r3
 8002b9e:	f7ff fe7d 	bl	800289c <QOutputAxisState_Construct>
 8002ba2:	f107 0440 	add.w	r4, r7, #64	@ 0x40
 8002ba6:	463d      	mov	r5, r7
 8002ba8:	cd0f      	ldmia	r5!, {r0, r1, r2, r3}
 8002baa:	c40f      	stmia	r4!, {r0, r1, r2, r3}
 8002bac:	cd0f      	ldmia	r5!, {r0, r1, r2, r3}
 8002bae:	c40f      	stmia	r4!, {r0, r1, r2, r3}
 8002bb0:	e895 000f 	ldmia.w	r5, {r0, r1, r2, r3}
 8002bb4:	e884 000f 	stmia.w	r4, {r0, r1, r2, r3}
    output.axis2 = QOutputAxisState_Construct(cpr);
 8002bb8:	463b      	mov	r3, r7
 8002bba:	6bb9      	ldr	r1, [r7, #56]	@ 0x38
 8002bbc:	4618      	mov	r0, r3
 8002bbe:	f7ff fe6d 	bl	800289c <QOutputAxisState_Construct>
 8002bc2:	f107 0470 	add.w	r4, r7, #112	@ 0x70
 8002bc6:	463d      	mov	r5, r7
 8002bc8:	cd0f      	ldmia	r5!, {r0, r1, r2, r3}
 8002bca:	c40f      	stmia	r4!, {r0, r1, r2, r3}
 8002bcc:	cd0f      	ldmia	r5!, {r0, r1, r2, r3}
 8002bce:	c40f      	stmia	r4!, {r0, r1, r2, r3}
 8002bd0:	e895 000f 	ldmia.w	r5, {r0, r1, r2, r3}
 8002bd4:	e884 000f 	stmia.w	r4, {r0, r1, r2, r3}
    output.num_axes = MAX(1, MIN(num_axes, 2));
 8002bd8:	6b7b      	ldr	r3, [r7, #52]	@ 0x34
 8002bda:	2b00      	cmp	r3, #0
 8002bdc:	dd04      	ble.n	8002be8 <QuadratureOutput_Construct+0x5c>
 8002bde:	6b7b      	ldr	r3, [r7, #52]	@ 0x34
 8002be0:	2b02      	cmp	r3, #2
 8002be2:	bfa8      	it	ge
 8002be4:	2302      	movge	r3, #2
 8002be6:	e000      	b.n	8002bea <QuadratureOutput_Construct+0x5e>
 8002be8:	2301      	movs	r3, #1
 8002bea:	f8c7 30a0 	str.w	r3, [r7, #160]	@ 0xa0

    return output;
 8002bee:	6bfb      	ldr	r3, [r7, #60]	@ 0x3c
 8002bf0:	4618      	mov	r0, r3
 8002bf2:	f107 0340 	add.w	r3, r7, #64	@ 0x40
 8002bf6:	2268      	movs	r2, #104	@ 0x68
 8002bf8:	4619      	mov	r1, r3
 8002bfa:	f005 fee1 	bl	80089c0 <memcpy>
}
 8002bfe:	6bf8      	ldr	r0, [r7, #60]	@ 0x3c
 8002c00:	37a8      	adds	r7, #168	@ 0xa8
 8002c02:	46bd      	mov	sp, r7
 8002c04:	bdb0      	pop	{r4, r5, r7, pc}

08002c06 <QuadratureOutput_Initialize>:

// Initialize both axes with starting angles
void QuadratureOutput_Initialize(QuadratureOutput* output, double angle_axis1, double angle_axis2) {
 8002c06:	b580      	push	{r7, lr}
 8002c08:	b086      	sub	sp, #24
 8002c0a:	af00      	add	r7, sp, #0
 8002c0c:	6178      	str	r0, [r7, #20]
 8002c0e:	ed87 0b02 	vstr	d0, [r7, #8]
 8002c12:	ed87 1b00 	vstr	d1, [r7]
    // Initialize axis 1 (always)
    QOutputAxisState_Initialize(&output->axis1, angle_axis1);
 8002c16:	697b      	ldr	r3, [r7, #20]
 8002c18:	ed97 0b02 	vldr	d0, [r7, #8]
 8002c1c:	4618      	mov	r0, r3
 8002c1e:	f7ff fe79 	bl	8002914 <QOutputAxisState_Initialize>

    // Initialize axis 2 (only if num_axes == 2)
    if (output->num_axes == 2) QOutputAxisState_Initialize(&output->axis2, angle_axis2);
 8002c22:	697b      	ldr	r3, [r7, #20]
 8002c24:	6e1b      	ldr	r3, [r3, #96]	@ 0x60
 8002c26:	2b02      	cmp	r3, #2
 8002c28:	d106      	bne.n	8002c38 <QuadratureOutput_Initialize+0x32>
 8002c2a:	697b      	ldr	r3, [r7, #20]
 8002c2c:	3330      	adds	r3, #48	@ 0x30
 8002c2e:	ed97 0b00 	vldr	d0, [r7]
 8002c32:	4618      	mov	r0, r3
 8002c34:	f7ff fe6e 	bl	8002914 <QOutputAxisState_Initialize>
}
 8002c38:	bf00      	nop
 8002c3a:	3718      	adds	r7, #24
 8002c3c:	46bd      	mov	sp, r7
 8002c3e:	bd80      	pop	{r7, pc}

08002c40 <QuadratureOutput_Update>:

// Update both axes with new angle readings
void QuadratureOutput_Update(QuadratureOutput* output, double angle_axis1, double angle_axis2) {
 8002c40:	b580      	push	{r7, lr}
 8002c42:	b088      	sub	sp, #32
 8002c44:	af00      	add	r7, sp, #0
 8002c46:	6178      	str	r0, [r7, #20]
 8002c48:	ed87 0b02 	vstr	d0, [r7, #8]
 8002c4c:	ed87 1b00 	vstr	d1, [r7]
	static int quad[256][2] = {0};
	static int i = 0;

    // Check for calibration, exit early if not calibrated
    if (!output->axis1.calibrated || (output->num_axes == 2 && !output->axis2.calibrated)) {
 8002c50:	697b      	ldr	r3, [r7, #20]
 8002c52:	f893 3028 	ldrb.w	r3, [r3, #40]	@ 0x28
 8002c56:	f083 0301 	eor.w	r3, r3, #1
 8002c5a:	b2db      	uxtb	r3, r3
 8002c5c:	2b00      	cmp	r3, #0
 8002c5e:	d167      	bne.n	8002d30 <QuadratureOutput_Update+0xf0>
 8002c60:	697b      	ldr	r3, [r7, #20]
 8002c62:	6e1b      	ldr	r3, [r3, #96]	@ 0x60
 8002c64:	2b02      	cmp	r3, #2
 8002c66:	d107      	bne.n	8002c78 <QuadratureOutput_Update+0x38>
 8002c68:	697b      	ldr	r3, [r7, #20]
 8002c6a:	f893 3058 	ldrb.w	r3, [r3, #88]	@ 0x58
 8002c6e:	f083 0301 	eor.w	r3, r3, #1
 8002c72:	b2db      	uxtb	r3, r3
 8002c74:	2b00      	cmp	r3, #0
 8002c76:	d15b      	bne.n	8002d30 <QuadratureOutput_Update+0xf0>
        //printf("One or more axes are not calibrated. Please calibrate and try again.\n");
        return;
    }

    // Update axis 1 (always)
    QOutputAxisState_UpdateAxis(&output->axis1, angle_axis1);
 8002c78:	697b      	ldr	r3, [r7, #20]
 8002c7a:	ed97 0b02 	vldr	d0, [r7, #8]
 8002c7e:	4618      	mov	r0, r3
 8002c80:	f7ff fea4 	bl	80029cc <QOutputAxisState_UpdateAxis>

    if(i > 256) {
 8002c84:	4b2c      	ldr	r3, [pc, #176]	@ (8002d38 <QuadratureOutput_Update+0xf8>)
 8002c86:	681b      	ldr	r3, [r3, #0]
 8002c88:	f5b3 7f80 	cmp.w	r3, #256	@ 0x100
 8002c8c:	dd02      	ble.n	8002c94 <QuadratureOutput_Update+0x54>
    	int help = 100;
 8002c8e:	2364      	movs	r3, #100	@ 0x64
 8002c90:	61fb      	str	r3, [r7, #28]
 8002c92:	e041      	b.n	8002d18 <QuadratureOutput_Update+0xd8>
    }
    else if (i == 0) {
 8002c94:	4b28      	ldr	r3, [pc, #160]	@ (8002d38 <QuadratureOutput_Update+0xf8>)
 8002c96:	681b      	ldr	r3, [r3, #0]
 8002c98:	2b00      	cmp	r3, #0
 8002c9a:	d114      	bne.n	8002cc6 <QuadratureOutput_Update+0x86>
		quad[i][0] = output->axis1.channel_a;
 8002c9c:	4b26      	ldr	r3, [pc, #152]	@ (8002d38 <QuadratureOutput_Update+0xf8>)
 8002c9e:	681b      	ldr	r3, [r3, #0]
 8002ca0:	697a      	ldr	r2, [r7, #20]
 8002ca2:	69d2      	ldr	r2, [r2, #28]
 8002ca4:	4925      	ldr	r1, [pc, #148]	@ (8002d3c <QuadratureOutput_Update+0xfc>)
 8002ca6:	f841 2033 	str.w	r2, [r1, r3, lsl #3]
		quad[i][1] = output->axis1.channel_b;
 8002caa:	4b23      	ldr	r3, [pc, #140]	@ (8002d38 <QuadratureOutput_Update+0xf8>)
 8002cac:	681b      	ldr	r3, [r3, #0]
 8002cae:	697a      	ldr	r2, [r7, #20]
 8002cb0:	6a12      	ldr	r2, [r2, #32]
 8002cb2:	4922      	ldr	r1, [pc, #136]	@ (8002d3c <QuadratureOutput_Update+0xfc>)
 8002cb4:	00db      	lsls	r3, r3, #3
 8002cb6:	440b      	add	r3, r1
 8002cb8:	605a      	str	r2, [r3, #4]
		i++;
 8002cba:	4b1f      	ldr	r3, [pc, #124]	@ (8002d38 <QuadratureOutput_Update+0xf8>)
 8002cbc:	681b      	ldr	r3, [r3, #0]
 8002cbe:	3301      	adds	r3, #1
 8002cc0:	4a1d      	ldr	r2, [pc, #116]	@ (8002d38 <QuadratureOutput_Update+0xf8>)
 8002cc2:	6013      	str	r3, [r2, #0]
 8002cc4:	e028      	b.n	8002d18 <QuadratureOutput_Update+0xd8>
    }
    else if (quad[i-1][0] == output->axis1.channel_a && quad[i-1][1] == output->axis1.channel_b ) {
 8002cc6:	4b1c      	ldr	r3, [pc, #112]	@ (8002d38 <QuadratureOutput_Update+0xf8>)
 8002cc8:	681b      	ldr	r3, [r3, #0]
 8002cca:	3b01      	subs	r3, #1
 8002ccc:	4a1b      	ldr	r2, [pc, #108]	@ (8002d3c <QuadratureOutput_Update+0xfc>)
 8002cce:	f852 2033 	ldr.w	r2, [r2, r3, lsl #3]
 8002cd2:	697b      	ldr	r3, [r7, #20]
 8002cd4:	69db      	ldr	r3, [r3, #28]
 8002cd6:	429a      	cmp	r2, r3
 8002cd8:	d10a      	bne.n	8002cf0 <QuadratureOutput_Update+0xb0>
 8002cda:	4b17      	ldr	r3, [pc, #92]	@ (8002d38 <QuadratureOutput_Update+0xf8>)
 8002cdc:	681b      	ldr	r3, [r3, #0]
 8002cde:	3b01      	subs	r3, #1
 8002ce0:	4a16      	ldr	r2, [pc, #88]	@ (8002d3c <QuadratureOutput_Update+0xfc>)
 8002ce2:	00db      	lsls	r3, r3, #3
 8002ce4:	4413      	add	r3, r2
 8002ce6:	685a      	ldr	r2, [r3, #4]
 8002ce8:	697b      	ldr	r3, [r7, #20]
 8002cea:	6a1b      	ldr	r3, [r3, #32]
 8002cec:	429a      	cmp	r2, r3
 8002cee:	d013      	beq.n	8002d18 <QuadratureOutput_Update+0xd8>
    	// SKIP
    }
    else {
		quad[i][0] = output->axis1.channel_a;
 8002cf0:	4b11      	ldr	r3, [pc, #68]	@ (8002d38 <QuadratureOutput_Update+0xf8>)
 8002cf2:	681b      	ldr	r3, [r3, #0]
 8002cf4:	697a      	ldr	r2, [r7, #20]
 8002cf6:	69d2      	ldr	r2, [r2, #28]
 8002cf8:	4910      	ldr	r1, [pc, #64]	@ (8002d3c <QuadratureOutput_Update+0xfc>)
 8002cfa:	f841 2033 	str.w	r2, [r1, r3, lsl #3]
		quad[i][1] = output->axis1.channel_b;
 8002cfe:	4b0e      	ldr	r3, [pc, #56]	@ (8002d38 <QuadratureOutput_Update+0xf8>)
 8002d00:	681b      	ldr	r3, [r3, #0]
 8002d02:	697a      	ldr	r2, [r7, #20]
 8002d04:	6a12      	ldr	r2, [r2, #32]
 8002d06:	490d      	ldr	r1, [pc, #52]	@ (8002d3c <QuadratureOutput_Update+0xfc>)
 8002d08:	00db      	lsls	r3, r3, #3
 8002d0a:	440b      	add	r3, r1
 8002d0c:	605a      	str	r2, [r3, #4]
		i++;
 8002d0e:	4b0a      	ldr	r3, [pc, #40]	@ (8002d38 <QuadratureOutput_Update+0xf8>)
 8002d10:	681b      	ldr	r3, [r3, #0]
 8002d12:	3301      	adds	r3, #1
 8002d14:	4a08      	ldr	r2, [pc, #32]	@ (8002d38 <QuadratureOutput_Update+0xf8>)
 8002d16:	6013      	str	r3, [r2, #0]
    }

    // Update axis 2 (only if num_axes == 2)
    if (output->num_axes == 2) QOutputAxisState_UpdateAxis(&output->axis2, angle_axis2);
 8002d18:	697b      	ldr	r3, [r7, #20]
 8002d1a:	6e1b      	ldr	r3, [r3, #96]	@ 0x60
 8002d1c:	2b02      	cmp	r3, #2
 8002d1e:	d108      	bne.n	8002d32 <QuadratureOutput_Update+0xf2>
 8002d20:	697b      	ldr	r3, [r7, #20]
 8002d22:	3330      	adds	r3, #48	@ 0x30
 8002d24:	ed97 0b00 	vldr	d0, [r7]
 8002d28:	4618      	mov	r0, r3
 8002d2a:	f7ff fe4f 	bl	80029cc <QOutputAxisState_UpdateAxis>
 8002d2e:	e000      	b.n	8002d32 <QuadratureOutput_Update+0xf2>
        return;
 8002d30:	bf00      	nop
}
 8002d32:	3720      	adds	r7, #32
 8002d34:	46bd      	mov	sp, r7
 8002d36:	bd80      	pop	{r7, pc}
 8002d38:	20000424 	.word	0x20000424
 8002d3c:	20000428 	.word	0x20000428

08002d40 <QOutputAxisState_StepOne>:
    output->num_axes = MAX(1, MIN(num_axes, 2));
}

// moves position_count by exactly one step, wraps it, refreshes A/B,
// and asserts the index pulse when the encoder returns to position 0.
void QOutputAxisState_StepOne(QOutputAxisState* axis, int dir) {
 8002d40:	b580      	push	{r7, lr}
 8002d42:	b082      	sub	sp, #8
 8002d44:	af00      	add	r7, sp, #0
 8002d46:	6078      	str	r0, [r7, #4]
 8002d48:	6039      	str	r1, [r7, #0]
    axis->position_count += dir;
 8002d4a:	687b      	ldr	r3, [r7, #4]
 8002d4c:	699a      	ldr	r2, [r3, #24]
 8002d4e:	683b      	ldr	r3, [r7, #0]
 8002d50:	441a      	add	r2, r3
 8002d52:	687b      	ldr	r3, [r7, #4]
 8002d54:	619a      	str	r2, [r3, #24]

    if (axis->position_count < 0)
 8002d56:	687b      	ldr	r3, [r7, #4]
 8002d58:	699b      	ldr	r3, [r3, #24]
 8002d5a:	2b00      	cmp	r3, #0
 8002d5c:	da07      	bge.n	8002d6e <QOutputAxisState_StepOne+0x2e>
        axis->position_count += axis->positions_per_rev;
 8002d5e:	687b      	ldr	r3, [r7, #4]
 8002d60:	699a      	ldr	r2, [r3, #24]
 8002d62:	687b      	ldr	r3, [r7, #4]
 8002d64:	685b      	ldr	r3, [r3, #4]
 8002d66:	441a      	add	r2, r3
 8002d68:	687b      	ldr	r3, [r7, #4]
 8002d6a:	619a      	str	r2, [r3, #24]
 8002d6c:	e00c      	b.n	8002d88 <QOutputAxisState_StepOne+0x48>
    else if (axis->position_count >= axis->positions_per_rev)
 8002d6e:	687b      	ldr	r3, [r7, #4]
 8002d70:	699a      	ldr	r2, [r3, #24]
 8002d72:	687b      	ldr	r3, [r7, #4]
 8002d74:	685b      	ldr	r3, [r3, #4]
 8002d76:	429a      	cmp	r2, r3
 8002d78:	db06      	blt.n	8002d88 <QOutputAxisState_StepOne+0x48>
        axis->position_count -= axis->positions_per_rev;
 8002d7a:	687b      	ldr	r3, [r7, #4]
 8002d7c:	699a      	ldr	r2, [r3, #24]
 8002d7e:	687b      	ldr	r3, [r7, #4]
 8002d80:	685b      	ldr	r3, [r3, #4]
 8002d82:	1ad2      	subs	r2, r2, r3
 8002d84:	687b      	ldr	r3, [r7, #4]
 8002d86:	619a      	str	r2, [r3, #24]

    QOutputAxisState_GetQuadraturePattern(axis);
 8002d88:	6878      	ldr	r0, [r7, #4]
 8002d8a:	f7ff febb 	bl	8002b04 <QOutputAxisState_GetQuadraturePattern>

    axis->index = (axis->position_count == 0 &&
 8002d8e:	687b      	ldr	r3, [r7, #4]
 8002d90:	699b      	ldr	r3, [r3, #24]
        axis->channel_a == 0 &&
        axis->channel_b == 0) ? 1 : 0;
 8002d92:	2b00      	cmp	r3, #0
 8002d94:	d109      	bne.n	8002daa <QOutputAxisState_StepOne+0x6a>
        axis->channel_a == 0 &&
 8002d96:	687b      	ldr	r3, [r7, #4]
 8002d98:	69db      	ldr	r3, [r3, #28]
    axis->index = (axis->position_count == 0 &&
 8002d9a:	2b00      	cmp	r3, #0
 8002d9c:	d105      	bne.n	8002daa <QOutputAxisState_StepOne+0x6a>
        axis->channel_b == 0) ? 1 : 0;
 8002d9e:	687b      	ldr	r3, [r7, #4]
 8002da0:	6a1b      	ldr	r3, [r3, #32]
 8002da2:	2b00      	cmp	r3, #0
 8002da4:	d101      	bne.n	8002daa <QOutputAxisState_StepOne+0x6a>
 8002da6:	2201      	movs	r2, #1
 8002da8:	e000      	b.n	8002dac <QOutputAxisState_StepOne+0x6c>
 8002daa:	2200      	movs	r2, #0
    axis->index = (axis->position_count == 0 &&
 8002dac:	687b      	ldr	r3, [r7, #4]
 8002dae:	625a      	str	r2, [r3, #36]	@ 0x24
}
 8002db0:	bf00      	nop
 8002db2:	3708      	adds	r7, #8
 8002db4:	46bd      	mov	sp, r7
 8002db6:	bd80      	pop	{r7, pc}

08002db8 <HAL_MspInit>:
/* USER CODE END 0 */
/**
  * Initializes the Global MSP.
  */
void HAL_MspInit(void)
{
 8002db8:	b580      	push	{r7, lr}
 8002dba:	b082      	sub	sp, #8
 8002dbc:	af00      	add	r7, sp, #0

  /* USER CODE BEGIN MspInit 0 */

  /* USER CODE END MspInit 0 */

  __HAL_RCC_SYSCFG_CLK_ENABLE();
 8002dbe:	4b0f      	ldr	r3, [pc, #60]	@ (8002dfc <HAL_MspInit+0x44>)
 8002dc0:	6e1b      	ldr	r3, [r3, #96]	@ 0x60
 8002dc2:	4a0e      	ldr	r2, [pc, #56]	@ (8002dfc <HAL_MspInit+0x44>)
 8002dc4:	f043 0301 	orr.w	r3, r3, #1
 8002dc8:	6613      	str	r3, [r2, #96]	@ 0x60
 8002dca:	4b0c      	ldr	r3, [pc, #48]	@ (8002dfc <HAL_MspInit+0x44>)
 8002dcc:	6e1b      	ldr	r3, [r3, #96]	@ 0x60
 8002dce:	f003 0301 	and.w	r3, r3, #1
 8002dd2:	607b      	str	r3, [r7, #4]
 8002dd4:	687b      	ldr	r3, [r7, #4]
  __HAL_RCC_PWR_CLK_ENABLE();
 8002dd6:	4b09      	ldr	r3, [pc, #36]	@ (8002dfc <HAL_MspInit+0x44>)
 8002dd8:	6d9b      	ldr	r3, [r3, #88]	@ 0x58
 8002dda:	4a08      	ldr	r2, [pc, #32]	@ (8002dfc <HAL_MspInit+0x44>)
 8002ddc:	f043 5380 	orr.w	r3, r3, #268435456	@ 0x10000000
 8002de0:	6593      	str	r3, [r2, #88]	@ 0x58
 8002de2:	4b06      	ldr	r3, [pc, #24]	@ (8002dfc <HAL_MspInit+0x44>)
 8002de4:	6d9b      	ldr	r3, [r3, #88]	@ 0x58
 8002de6:	f003 5380 	and.w	r3, r3, #268435456	@ 0x10000000
 8002dea:	603b      	str	r3, [r7, #0]
 8002dec:	683b      	ldr	r3, [r7, #0]

  /* System interrupt init*/

  /** Disable the internal Pull-Up in Dead Battery pins of UCPD peripheral
  */
  HAL_PWREx_DisableUCPDDeadBattery();
 8002dee:	f003 f985 	bl	80060fc <HAL_PWREx_DisableUCPDDeadBattery>

  /* USER CODE BEGIN MspInit 1 */

  /* USER CODE END MspInit 1 */
}
 8002df2:	bf00      	nop
 8002df4:	3708      	adds	r7, #8
 8002df6:	46bd      	mov	sp, r7
 8002df8:	bd80      	pop	{r7, pc}
 8002dfa:	bf00      	nop
 8002dfc:	40021000 	.word	0x40021000

08002e00 <HAL_ADC_MspInit>:
  * This function configures the hardware resources used in this example
  * @param hadc: ADC handle pointer
  * @retval None
  */
void HAL_ADC_MspInit(ADC_HandleTypeDef* hadc)
{
 8002e00:	b580      	push	{r7, lr}
 8002e02:	b09c      	sub	sp, #112	@ 0x70
 8002e04:	af00      	add	r7, sp, #0
 8002e06:	6078      	str	r0, [r7, #4]
  GPIO_InitTypeDef GPIO_InitStruct = {0};
 8002e08:	f107 035c 	add.w	r3, r7, #92	@ 0x5c
 8002e0c:	2200      	movs	r2, #0
 8002e0e:	601a      	str	r2, [r3, #0]
 8002e10:	605a      	str	r2, [r3, #4]
 8002e12:	609a      	str	r2, [r3, #8]
 8002e14:	60da      	str	r2, [r3, #12]
 8002e16:	611a      	str	r2, [r3, #16]
  RCC_PeriphCLKInitTypeDef PeriphClkInit = {0};
 8002e18:	f107 0318 	add.w	r3, r7, #24
 8002e1c:	2244      	movs	r2, #68	@ 0x44
 8002e1e:	2100      	movs	r1, #0
 8002e20:	4618      	mov	r0, r3
 8002e22:	f005 fd9b 	bl	800895c <memset>
  if(hadc->Instance==ADC1)
 8002e26:	687b      	ldr	r3, [r7, #4]
 8002e28:	681b      	ldr	r3, [r3, #0]
 8002e2a:	f1b3 4fa0 	cmp.w	r3, #1342177280	@ 0x50000000
 8002e2e:	d16a      	bne.n	8002f06 <HAL_ADC_MspInit+0x106>

    /* USER CODE END ADC1_MspInit 0 */

  /** Initializes the peripherals clocks
  */
    PeriphClkInit.PeriphClockSelection = RCC_PERIPHCLK_ADC12;
 8002e30:	f44f 4300 	mov.w	r3, #32768	@ 0x8000
 8002e34:	61bb      	str	r3, [r7, #24]
    PeriphClkInit.Adc12ClockSelection = RCC_ADC12CLKSOURCE_SYSCLK;
 8002e36:	f04f 5300 	mov.w	r3, #536870912	@ 0x20000000
 8002e3a:	657b      	str	r3, [r7, #84]	@ 0x54
    if (HAL_RCCEx_PeriphCLKConfig(&PeriphClkInit) != HAL_OK)
 8002e3c:	f107 0318 	add.w	r3, r7, #24
 8002e40:	4618      	mov	r0, r3
 8002e42:	f003 fe61 	bl	8006b08 <HAL_RCCEx_PeriphCLKConfig>
 8002e46:	4603      	mov	r3, r0
 8002e48:	2b00      	cmp	r3, #0
 8002e4a:	d001      	beq.n	8002e50 <HAL_ADC_MspInit+0x50>
    {
      Error_Handler();
 8002e4c:	f7ff fd20 	bl	8002890 <Error_Handler>
    }

    /* Peripheral clock enable */
    HAL_RCC_ADC12_CLK_ENABLED++;
 8002e50:	4b7d      	ldr	r3, [pc, #500]	@ (8003048 <HAL_ADC_MspInit+0x248>)
 8002e52:	681b      	ldr	r3, [r3, #0]
 8002e54:	3301      	adds	r3, #1
 8002e56:	4a7c      	ldr	r2, [pc, #496]	@ (8003048 <HAL_ADC_MspInit+0x248>)
 8002e58:	6013      	str	r3, [r2, #0]
    if(HAL_RCC_ADC12_CLK_ENABLED==1){
 8002e5a:	4b7b      	ldr	r3, [pc, #492]	@ (8003048 <HAL_ADC_MspInit+0x248>)
 8002e5c:	681b      	ldr	r3, [r3, #0]
 8002e5e:	2b01      	cmp	r3, #1
 8002e60:	d10b      	bne.n	8002e7a <HAL_ADC_MspInit+0x7a>
      __HAL_RCC_ADC12_CLK_ENABLE();
 8002e62:	4b7a      	ldr	r3, [pc, #488]	@ (800304c <HAL_ADC_MspInit+0x24c>)
 8002e64:	6cdb      	ldr	r3, [r3, #76]	@ 0x4c
 8002e66:	4a79      	ldr	r2, [pc, #484]	@ (800304c <HAL_ADC_MspInit+0x24c>)
 8002e68:	f443 5300 	orr.w	r3, r3, #8192	@ 0x2000
 8002e6c:	64d3      	str	r3, [r2, #76]	@ 0x4c
 8002e6e:	4b77      	ldr	r3, [pc, #476]	@ (800304c <HAL_ADC_MspInit+0x24c>)
 8002e70:	6cdb      	ldr	r3, [r3, #76]	@ 0x4c
 8002e72:	f403 5300 	and.w	r3, r3, #8192	@ 0x2000
 8002e76:	617b      	str	r3, [r7, #20]
 8002e78:	697b      	ldr	r3, [r7, #20]
    }

    __HAL_RCC_GPIOB_CLK_ENABLE();
 8002e7a:	4b74      	ldr	r3, [pc, #464]	@ (800304c <HAL_ADC_MspInit+0x24c>)
 8002e7c:	6cdb      	ldr	r3, [r3, #76]	@ 0x4c
 8002e7e:	4a73      	ldr	r2, [pc, #460]	@ (800304c <HAL_ADC_MspInit+0x24c>)
 8002e80:	f043 0302 	orr.w	r3, r3, #2
 8002e84:	64d3      	str	r3, [r2, #76]	@ 0x4c
 8002e86:	4b71      	ldr	r3, [pc, #452]	@ (800304c <HAL_ADC_MspInit+0x24c>)
 8002e88:	6cdb      	ldr	r3, [r3, #76]	@ 0x4c
 8002e8a:	f003 0302 	and.w	r3, r3, #2
 8002e8e:	613b      	str	r3, [r7, #16]
 8002e90:	693b      	ldr	r3, [r7, #16]
    /**ADC1 GPIO Configuration
    PB0     ------> ADC1_IN15
    PB12     ------> ADC1_IN11
    PB14     ------> ADC1_IN5
    */
    GPIO_InitStruct.Pin = GPIO_PIN_0|Acc_Zout_Pin|GPIO_PIN_14;
 8002e92:	f245 0301 	movw	r3, #20481	@ 0x5001
 8002e96:	65fb      	str	r3, [r7, #92]	@ 0x5c
    GPIO_InitStruct.Mode = GPIO_MODE_ANALOG;
 8002e98:	2303      	movs	r3, #3
 8002e9a:	663b      	str	r3, [r7, #96]	@ 0x60
    GPIO_InitStruct.Pull = GPIO_NOPULL;
 8002e9c:	2300      	movs	r3, #0
 8002e9e:	667b      	str	r3, [r7, #100]	@ 0x64
    HAL_GPIO_Init(GPIOB, &GPIO_InitStruct);
 8002ea0:	f107 035c 	add.w	r3, r7, #92	@ 0x5c
 8002ea4:	4619      	mov	r1, r3
 8002ea6:	486a      	ldr	r0, [pc, #424]	@ (8003050 <HAL_ADC_MspInit+0x250>)
 8002ea8:	f002 fa60 	bl	800536c <HAL_GPIO_Init>

    /* ADC1 DMA Init */
    /* ADC1 Init */
    hdma_adc1.Instance = DMA1_Channel1;
 8002eac:	4b69      	ldr	r3, [pc, #420]	@ (8003054 <HAL_ADC_MspInit+0x254>)
 8002eae:	4a6a      	ldr	r2, [pc, #424]	@ (8003058 <HAL_ADC_MspInit+0x258>)
 8002eb0:	601a      	str	r2, [r3, #0]
    hdma_adc1.Init.Request = DMA_REQUEST_ADC1;
 8002eb2:	4b68      	ldr	r3, [pc, #416]	@ (8003054 <HAL_ADC_MspInit+0x254>)
 8002eb4:	2205      	movs	r2, #5
 8002eb6:	605a      	str	r2, [r3, #4]
    hdma_adc1.Init.Direction = DMA_PERIPH_TO_MEMORY;
 8002eb8:	4b66      	ldr	r3, [pc, #408]	@ (8003054 <HAL_ADC_MspInit+0x254>)
 8002eba:	2200      	movs	r2, #0
 8002ebc:	609a      	str	r2, [r3, #8]
    hdma_adc1.Init.PeriphInc = DMA_PINC_DISABLE;
 8002ebe:	4b65      	ldr	r3, [pc, #404]	@ (8003054 <HAL_ADC_MspInit+0x254>)
 8002ec0:	2200      	movs	r2, #0
 8002ec2:	60da      	str	r2, [r3, #12]
    hdma_adc1.Init.MemInc = DMA_MINC_ENABLE;
 8002ec4:	4b63      	ldr	r3, [pc, #396]	@ (8003054 <HAL_ADC_MspInit+0x254>)
 8002ec6:	2280      	movs	r2, #128	@ 0x80
 8002ec8:	611a      	str	r2, [r3, #16]
    hdma_adc1.Init.PeriphDataAlignment = DMA_PDATAALIGN_HALFWORD;
 8002eca:	4b62      	ldr	r3, [pc, #392]	@ (8003054 <HAL_ADC_MspInit+0x254>)
 8002ecc:	f44f 7280 	mov.w	r2, #256	@ 0x100
 8002ed0:	615a      	str	r2, [r3, #20]
    hdma_adc1.Init.MemDataAlignment = DMA_MDATAALIGN_HALFWORD;
 8002ed2:	4b60      	ldr	r3, [pc, #384]	@ (8003054 <HAL_ADC_MspInit+0x254>)
 8002ed4:	f44f 6280 	mov.w	r2, #1024	@ 0x400
 8002ed8:	619a      	str	r2, [r3, #24]
    hdma_adc1.Init.Mode = DMA_CIRCULAR;
 8002eda:	4b5e      	ldr	r3, [pc, #376]	@ (8003054 <HAL_ADC_MspInit+0x254>)
 8002edc:	2220      	movs	r2, #32
 8002ede:	61da      	str	r2, [r3, #28]
    hdma_adc1.Init.Priority = DMA_PRIORITY_MEDIUM;
 8002ee0:	4b5c      	ldr	r3, [pc, #368]	@ (8003054 <HAL_ADC_MspInit+0x254>)
 8002ee2:	f44f 5280 	mov.w	r2, #4096	@ 0x1000
 8002ee6:	621a      	str	r2, [r3, #32]
    if (HAL_DMA_Init(&hdma_adc1) != HAL_OK)
 8002ee8:	485a      	ldr	r0, [pc, #360]	@ (8003054 <HAL_ADC_MspInit+0x254>)
 8002eea:	f001 ffc1 	bl	8004e70 <HAL_DMA_Init>
 8002eee:	4603      	mov	r3, r0
 8002ef0:	2b00      	cmp	r3, #0
 8002ef2:	d001      	beq.n	8002ef8 <HAL_ADC_MspInit+0xf8>
    {
      Error_Handler();
 8002ef4:	f7ff fccc 	bl	8002890 <Error_Handler>
    }

    __HAL_LINKDMA(hadc,DMA_Handle,hdma_adc1);
 8002ef8:	687b      	ldr	r3, [r7, #4]
 8002efa:	4a56      	ldr	r2, [pc, #344]	@ (8003054 <HAL_ADC_MspInit+0x254>)
 8002efc:	655a      	str	r2, [r3, #84]	@ 0x54
 8002efe:	4a55      	ldr	r2, [pc, #340]	@ (8003054 <HAL_ADC_MspInit+0x254>)
 8002f00:	687b      	ldr	r3, [r7, #4]
 8002f02:	6293      	str	r3, [r2, #40]	@ 0x28
    /* USER CODE BEGIN ADC2_MspInit 1 */

    /* USER CODE END ADC2_MspInit 1 */
  }

}
 8002f04:	e09b      	b.n	800303e <HAL_ADC_MspInit+0x23e>
  else if(hadc->Instance==ADC2)
 8002f06:	687b      	ldr	r3, [r7, #4]
 8002f08:	681b      	ldr	r3, [r3, #0]
 8002f0a:	4a54      	ldr	r2, [pc, #336]	@ (800305c <HAL_ADC_MspInit+0x25c>)
 8002f0c:	4293      	cmp	r3, r2
 8002f0e:	f040 8096 	bne.w	800303e <HAL_ADC_MspInit+0x23e>
	  hdma_adc2.Instance                 = DMA1_Channel2;
 8002f12:	4b53      	ldr	r3, [pc, #332]	@ (8003060 <HAL_ADC_MspInit+0x260>)
 8002f14:	4a53      	ldr	r2, [pc, #332]	@ (8003064 <HAL_ADC_MspInit+0x264>)
 8002f16:	601a      	str	r2, [r3, #0]
	  hdma_adc2.Init.Request             = DMA_REQUEST_ADC2;
 8002f18:	4b51      	ldr	r3, [pc, #324]	@ (8003060 <HAL_ADC_MspInit+0x260>)
 8002f1a:	2224      	movs	r2, #36	@ 0x24
 8002f1c:	605a      	str	r2, [r3, #4]
	  hdma_adc2.Init.Direction           = DMA_PERIPH_TO_MEMORY;
 8002f1e:	4b50      	ldr	r3, [pc, #320]	@ (8003060 <HAL_ADC_MspInit+0x260>)
 8002f20:	2200      	movs	r2, #0
 8002f22:	609a      	str	r2, [r3, #8]
	  hdma_adc2.Init.PeriphInc           = DMA_PINC_DISABLE;
 8002f24:	4b4e      	ldr	r3, [pc, #312]	@ (8003060 <HAL_ADC_MspInit+0x260>)
 8002f26:	2200      	movs	r2, #0
 8002f28:	60da      	str	r2, [r3, #12]
	  hdma_adc2.Init.MemInc              = DMA_MINC_ENABLE;
 8002f2a:	4b4d      	ldr	r3, [pc, #308]	@ (8003060 <HAL_ADC_MspInit+0x260>)
 8002f2c:	2280      	movs	r2, #128	@ 0x80
 8002f2e:	611a      	str	r2, [r3, #16]
	  hdma_adc2.Init.PeriphDataAlignment = DMA_PDATAALIGN_HALFWORD;
 8002f30:	4b4b      	ldr	r3, [pc, #300]	@ (8003060 <HAL_ADC_MspInit+0x260>)
 8002f32:	f44f 7280 	mov.w	r2, #256	@ 0x100
 8002f36:	615a      	str	r2, [r3, #20]
	  hdma_adc2.Init.MemDataAlignment    = DMA_MDATAALIGN_HALFWORD;
 8002f38:	4b49      	ldr	r3, [pc, #292]	@ (8003060 <HAL_ADC_MspInit+0x260>)
 8002f3a:	f44f 6280 	mov.w	r2, #1024	@ 0x400
 8002f3e:	619a      	str	r2, [r3, #24]
	  hdma_adc2.Init.Mode                = DMA_CIRCULAR;
 8002f40:	4b47      	ldr	r3, [pc, #284]	@ (8003060 <HAL_ADC_MspInit+0x260>)
 8002f42:	2220      	movs	r2, #32
 8002f44:	61da      	str	r2, [r3, #28]
	  hdma_adc2.Init.Priority            = DMA_PRIORITY_MEDIUM;
 8002f46:	4b46      	ldr	r3, [pc, #280]	@ (8003060 <HAL_ADC_MspInit+0x260>)
 8002f48:	f44f 5280 	mov.w	r2, #4096	@ 0x1000
 8002f4c:	621a      	str	r2, [r3, #32]
	  if (HAL_DMA_Init(&hdma_adc2) != HAL_OK) {
 8002f4e:	4844      	ldr	r0, [pc, #272]	@ (8003060 <HAL_ADC_MspInit+0x260>)
 8002f50:	f001 ff8e 	bl	8004e70 <HAL_DMA_Init>
 8002f54:	4603      	mov	r3, r0
 8002f56:	2b00      	cmp	r3, #0
 8002f58:	d001      	beq.n	8002f5e <HAL_ADC_MspInit+0x15e>
		  Error_Handler();
 8002f5a:	f7ff fc99 	bl	8002890 <Error_Handler>
	  __HAL_LINKDMA(hadc, DMA_Handle, hdma_adc2);
 8002f5e:	687b      	ldr	r3, [r7, #4]
 8002f60:	4a3f      	ldr	r2, [pc, #252]	@ (8003060 <HAL_ADC_MspInit+0x260>)
 8002f62:	655a      	str	r2, [r3, #84]	@ 0x54
 8002f64:	4a3e      	ldr	r2, [pc, #248]	@ (8003060 <HAL_ADC_MspInit+0x260>)
 8002f66:	687b      	ldr	r3, [r7, #4]
 8002f68:	6293      	str	r3, [r2, #40]	@ 0x28
    PeriphClkInit.PeriphClockSelection = RCC_PERIPHCLK_ADC12;
 8002f6a:	f44f 4300 	mov.w	r3, #32768	@ 0x8000
 8002f6e:	61bb      	str	r3, [r7, #24]
    PeriphClkInit.Adc12ClockSelection = RCC_ADC12CLKSOURCE_SYSCLK;
 8002f70:	f04f 5300 	mov.w	r3, #536870912	@ 0x20000000
 8002f74:	657b      	str	r3, [r7, #84]	@ 0x54
    if (HAL_RCCEx_PeriphCLKConfig(&PeriphClkInit) != HAL_OK)
 8002f76:	f107 0318 	add.w	r3, r7, #24
 8002f7a:	4618      	mov	r0, r3
 8002f7c:	f003 fdc4 	bl	8006b08 <HAL_RCCEx_PeriphCLKConfig>
 8002f80:	4603      	mov	r3, r0
 8002f82:	2b00      	cmp	r3, #0
 8002f84:	d001      	beq.n	8002f8a <HAL_ADC_MspInit+0x18a>
      Error_Handler();
 8002f86:	f7ff fc83 	bl	8002890 <Error_Handler>
    HAL_RCC_ADC12_CLK_ENABLED++;
 8002f8a:	4b2f      	ldr	r3, [pc, #188]	@ (8003048 <HAL_ADC_MspInit+0x248>)
 8002f8c:	681b      	ldr	r3, [r3, #0]
 8002f8e:	3301      	adds	r3, #1
 8002f90:	4a2d      	ldr	r2, [pc, #180]	@ (8003048 <HAL_ADC_MspInit+0x248>)
 8002f92:	6013      	str	r3, [r2, #0]
    if(HAL_RCC_ADC12_CLK_ENABLED==1){
 8002f94:	4b2c      	ldr	r3, [pc, #176]	@ (8003048 <HAL_ADC_MspInit+0x248>)
 8002f96:	681b      	ldr	r3, [r3, #0]
 8002f98:	2b01      	cmp	r3, #1
 8002f9a:	d10b      	bne.n	8002fb4 <HAL_ADC_MspInit+0x1b4>
      __HAL_RCC_ADC12_CLK_ENABLE();
 8002f9c:	4b2b      	ldr	r3, [pc, #172]	@ (800304c <HAL_ADC_MspInit+0x24c>)
 8002f9e:	6cdb      	ldr	r3, [r3, #76]	@ 0x4c
 8002fa0:	4a2a      	ldr	r2, [pc, #168]	@ (800304c <HAL_ADC_MspInit+0x24c>)
 8002fa2:	f443 5300 	orr.w	r3, r3, #8192	@ 0x2000
 8002fa6:	64d3      	str	r3, [r2, #76]	@ 0x4c
 8002fa8:	4b28      	ldr	r3, [pc, #160]	@ (800304c <HAL_ADC_MspInit+0x24c>)
 8002faa:	6cdb      	ldr	r3, [r3, #76]	@ 0x4c
 8002fac:	f403 5300 	and.w	r3, r3, #8192	@ 0x2000
 8002fb0:	60fb      	str	r3, [r7, #12]
 8002fb2:	68fb      	ldr	r3, [r7, #12]
    __HAL_RCC_GPIOB_CLK_ENABLE();
 8002fb4:	4b25      	ldr	r3, [pc, #148]	@ (800304c <HAL_ADC_MspInit+0x24c>)
 8002fb6:	6cdb      	ldr	r3, [r3, #76]	@ 0x4c
 8002fb8:	4a24      	ldr	r2, [pc, #144]	@ (800304c <HAL_ADC_MspInit+0x24c>)
 8002fba:	f043 0302 	orr.w	r3, r3, #2
 8002fbe:	64d3      	str	r3, [r2, #76]	@ 0x4c
 8002fc0:	4b22      	ldr	r3, [pc, #136]	@ (800304c <HAL_ADC_MspInit+0x24c>)
 8002fc2:	6cdb      	ldr	r3, [r3, #76]	@ 0x4c
 8002fc4:	f003 0302 	and.w	r3, r3, #2
 8002fc8:	60bb      	str	r3, [r7, #8]
 8002fca:	68bb      	ldr	r3, [r7, #8]
    GPIO_InitStruct.Pin = GPIO_PIN_15;
 8002fcc:	f44f 4300 	mov.w	r3, #32768	@ 0x8000
 8002fd0:	65fb      	str	r3, [r7, #92]	@ 0x5c
    GPIO_InitStruct.Mode = GPIO_MODE_ANALOG;
 8002fd2:	2303      	movs	r3, #3
 8002fd4:	663b      	str	r3, [r7, #96]	@ 0x60
    GPIO_InitStruct.Pull = GPIO_NOPULL;
 8002fd6:	2300      	movs	r3, #0
 8002fd8:	667b      	str	r3, [r7, #100]	@ 0x64
    HAL_GPIO_Init(GPIOB, &GPIO_InitStruct);
 8002fda:	f107 035c 	add.w	r3, r7, #92	@ 0x5c
 8002fde:	4619      	mov	r1, r3
 8002fe0:	481b      	ldr	r0, [pc, #108]	@ (8003050 <HAL_ADC_MspInit+0x250>)
 8002fe2:	f002 f9c3 	bl	800536c <HAL_GPIO_Init>
    hdma_adc2.Instance = DMA1_Channel3;
 8002fe6:	4b1e      	ldr	r3, [pc, #120]	@ (8003060 <HAL_ADC_MspInit+0x260>)
 8002fe8:	4a1f      	ldr	r2, [pc, #124]	@ (8003068 <HAL_ADC_MspInit+0x268>)
 8002fea:	601a      	str	r2, [r3, #0]
    hdma_adc2.Init.Request = DMA_REQUEST_ADC2;
 8002fec:	4b1c      	ldr	r3, [pc, #112]	@ (8003060 <HAL_ADC_MspInit+0x260>)
 8002fee:	2224      	movs	r2, #36	@ 0x24
 8002ff0:	605a      	str	r2, [r3, #4]
    hdma_adc2.Init.Direction = DMA_PERIPH_TO_MEMORY;
 8002ff2:	4b1b      	ldr	r3, [pc, #108]	@ (8003060 <HAL_ADC_MspInit+0x260>)
 8002ff4:	2200      	movs	r2, #0
 8002ff6:	609a      	str	r2, [r3, #8]
    hdma_adc2.Init.PeriphInc = DMA_PINC_DISABLE;
 8002ff8:	4b19      	ldr	r3, [pc, #100]	@ (8003060 <HAL_ADC_MspInit+0x260>)
 8002ffa:	2200      	movs	r2, #0
 8002ffc:	60da      	str	r2, [r3, #12]
    hdma_adc2.Init.MemInc = DMA_MINC_ENABLE;
 8002ffe:	4b18      	ldr	r3, [pc, #96]	@ (8003060 <HAL_ADC_MspInit+0x260>)
 8003000:	2280      	movs	r2, #128	@ 0x80
 8003002:	611a      	str	r2, [r3, #16]
    hdma_adc2.Init.PeriphDataAlignment = DMA_PDATAALIGN_HALFWORD;
 8003004:	4b16      	ldr	r3, [pc, #88]	@ (8003060 <HAL_ADC_MspInit+0x260>)
 8003006:	f44f 7280 	mov.w	r2, #256	@ 0x100
 800300a:	615a      	str	r2, [r3, #20]
    hdma_adc2.Init.MemDataAlignment = DMA_MDATAALIGN_HALFWORD;
 800300c:	4b14      	ldr	r3, [pc, #80]	@ (8003060 <HAL_ADC_MspInit+0x260>)
 800300e:	f44f 6280 	mov.w	r2, #1024	@ 0x400
 8003012:	619a      	str	r2, [r3, #24]
    hdma_adc2.Init.Mode = DMA_CIRCULAR;
 8003014:	4b12      	ldr	r3, [pc, #72]	@ (8003060 <HAL_ADC_MspInit+0x260>)
 8003016:	2220      	movs	r2, #32
 8003018:	61da      	str	r2, [r3, #28]
    hdma_adc2.Init.Priority = DMA_PRIORITY_MEDIUM;
 800301a:	4b11      	ldr	r3, [pc, #68]	@ (8003060 <HAL_ADC_MspInit+0x260>)
 800301c:	f44f 5280 	mov.w	r2, #4096	@ 0x1000
 8003020:	621a      	str	r2, [r3, #32]
    if (HAL_DMA_Init(&hdma_adc2) != HAL_OK)
 8003022:	480f      	ldr	r0, [pc, #60]	@ (8003060 <HAL_ADC_MspInit+0x260>)
 8003024:	f001 ff24 	bl	8004e70 <HAL_DMA_Init>
 8003028:	4603      	mov	r3, r0
 800302a:	2b00      	cmp	r3, #0
 800302c:	d001      	beq.n	8003032 <HAL_ADC_MspInit+0x232>
      Error_Handler();
 800302e:	f7ff fc2f 	bl	8002890 <Error_Handler>
    __HAL_LINKDMA(hadc,DMA_Handle,hdma_adc2);
 8003032:	687b      	ldr	r3, [r7, #4]
 8003034:	4a0a      	ldr	r2, [pc, #40]	@ (8003060 <HAL_ADC_MspInit+0x260>)
 8003036:	655a      	str	r2, [r3, #84]	@ 0x54
 8003038:	4a09      	ldr	r2, [pc, #36]	@ (8003060 <HAL_ADC_MspInit+0x260>)
 800303a:	687b      	ldr	r3, [r7, #4]
 800303c:	6293      	str	r3, [r2, #40]	@ 0x28
}
 800303e:	bf00      	nop
 8003040:	3770      	adds	r7, #112	@ 0x70
 8003042:	46bd      	mov	sp, r7
 8003044:	bd80      	pop	{r7, pc}
 8003046:	bf00      	nop
 8003048:	20000c28 	.word	0x20000c28
 800304c:	40021000 	.word	0x40021000
 8003050:	48000400 	.word	0x48000400
 8003054:	20000154 	.word	0x20000154
 8003058:	40020008 	.word	0x40020008
 800305c:	50000100 	.word	0x50000100
 8003060:	200001b4 	.word	0x200001b4
 8003064:	4002001c 	.word	0x4002001c
 8003068:	40020030 	.word	0x40020030

0800306c <HAL_I2C_MspInit>:
  * This function configures the hardware resources used in this example
  * @param hi2c: I2C handle pointer
  * @retval None
  */
void HAL_I2C_MspInit(I2C_HandleTypeDef* hi2c)
{
 800306c:	b580      	push	{r7, lr}
 800306e:	b09c      	sub	sp, #112	@ 0x70
 8003070:	af00      	add	r7, sp, #0
 8003072:	6078      	str	r0, [r7, #4]
  GPIO_InitTypeDef GPIO_InitStruct = {0};
 8003074:	f107 035c 	add.w	r3, r7, #92	@ 0x5c
 8003078:	2200      	movs	r2, #0
 800307a:	601a      	str	r2, [r3, #0]
 800307c:	605a      	str	r2, [r3, #4]
 800307e:	609a      	str	r2, [r3, #8]
 8003080:	60da      	str	r2, [r3, #12]
 8003082:	611a      	str	r2, [r3, #16]
  RCC_PeriphCLKInitTypeDef PeriphClkInit = {0};
 8003084:	f107 0318 	add.w	r3, r7, #24
 8003088:	2244      	movs	r2, #68	@ 0x44
 800308a:	2100      	movs	r1, #0
 800308c:	4618      	mov	r0, r3
 800308e:	f005 fc65 	bl	800895c <memset>
  if(hi2c->Instance==I2C3)
 8003092:	687b      	ldr	r3, [r7, #4]
 8003094:	681b      	ldr	r3, [r3, #0]
 8003096:	4a2e      	ldr	r2, [pc, #184]	@ (8003150 <HAL_I2C_MspInit+0xe4>)
 8003098:	4293      	cmp	r3, r2
 800309a:	d154      	bne.n	8003146 <HAL_I2C_MspInit+0xda>

    /* USER CODE END I2C3_MspInit 0 */

  /** Initializes the peripherals clocks
  */
    PeriphClkInit.PeriphClockSelection = RCC_PERIPHCLK_I2C3;
 800309c:	f44f 7380 	mov.w	r3, #256	@ 0x100
 80030a0:	61bb      	str	r3, [r7, #24]
    PeriphClkInit.I2c3ClockSelection = RCC_I2C3CLKSOURCE_PCLK1;
 80030a2:	2300      	movs	r3, #0
 80030a4:	63bb      	str	r3, [r7, #56]	@ 0x38
    if (HAL_RCCEx_PeriphCLKConfig(&PeriphClkInit) != HAL_OK)
 80030a6:	f107 0318 	add.w	r3, r7, #24
 80030aa:	4618      	mov	r0, r3
 80030ac:	f003 fd2c 	bl	8006b08 <HAL_RCCEx_PeriphCLKConfig>
 80030b0:	4603      	mov	r3, r0
 80030b2:	2b00      	cmp	r3, #0
 80030b4:	d001      	beq.n	80030ba <HAL_I2C_MspInit+0x4e>
    {
      Error_Handler();
 80030b6:	f7ff fbeb 	bl	8002890 <Error_Handler>
    }

    __HAL_RCC_GPIOA_CLK_ENABLE();
 80030ba:	4b26      	ldr	r3, [pc, #152]	@ (8003154 <HAL_I2C_MspInit+0xe8>)
 80030bc:	6cdb      	ldr	r3, [r3, #76]	@ 0x4c
 80030be:	4a25      	ldr	r2, [pc, #148]	@ (8003154 <HAL_I2C_MspInit+0xe8>)
 80030c0:	f043 0301 	orr.w	r3, r3, #1
 80030c4:	64d3      	str	r3, [r2, #76]	@ 0x4c
 80030c6:	4b23      	ldr	r3, [pc, #140]	@ (8003154 <HAL_I2C_MspInit+0xe8>)
 80030c8:	6cdb      	ldr	r3, [r3, #76]	@ 0x4c
 80030ca:	f003 0301 	and.w	r3, r3, #1
 80030ce:	617b      	str	r3, [r7, #20]
 80030d0:	697b      	ldr	r3, [r7, #20]
    __HAL_RCC_GPIOB_CLK_ENABLE();
 80030d2:	4b20      	ldr	r3, [pc, #128]	@ (8003154 <HAL_I2C_MspInit+0xe8>)
 80030d4:	6cdb      	ldr	r3, [r3, #76]	@ 0x4c
 80030d6:	4a1f      	ldr	r2, [pc, #124]	@ (8003154 <HAL_I2C_MspInit+0xe8>)
 80030d8:	f043 0302 	orr.w	r3, r3, #2
 80030dc:	64d3      	str	r3, [r2, #76]	@ 0x4c
 80030de:	4b1d      	ldr	r3, [pc, #116]	@ (8003154 <HAL_I2C_MspInit+0xe8>)
 80030e0:	6cdb      	ldr	r3, [r3, #76]	@ 0x4c
 80030e2:	f003 0302 	and.w	r3, r3, #2
 80030e6:	613b      	str	r3, [r7, #16]
 80030e8:	693b      	ldr	r3, [r7, #16]
    /**I2C3 GPIO Configuration
    PA8     ------> I2C3_SCL
    PB5     ------> I2C3_SDA
    */
    GPIO_InitStruct.Pin = GPIO_PIN_8;
 80030ea:	f44f 7380 	mov.w	r3, #256	@ 0x100
 80030ee:	65fb      	str	r3, [r7, #92]	@ 0x5c
    GPIO_InitStruct.Mode = GPIO_MODE_AF_OD;
 80030f0:	2312      	movs	r3, #18
 80030f2:	663b      	str	r3, [r7, #96]	@ 0x60
    GPIO_InitStruct.Pull = GPIO_NOPULL;
 80030f4:	2300      	movs	r3, #0
 80030f6:	667b      	str	r3, [r7, #100]	@ 0x64
    GPIO_InitStruct.Speed = GPIO_SPEED_FREQ_LOW;
 80030f8:	2300      	movs	r3, #0
 80030fa:	66bb      	str	r3, [r7, #104]	@ 0x68
    GPIO_InitStruct.Alternate = GPIO_AF2_I2C3;
 80030fc:	2302      	movs	r3, #2
 80030fe:	66fb      	str	r3, [r7, #108]	@ 0x6c
    HAL_GPIO_Init(GPIOA, &GPIO_InitStruct);
 8003100:	f107 035c 	add.w	r3, r7, #92	@ 0x5c
 8003104:	4619      	mov	r1, r3
 8003106:	f04f 4090 	mov.w	r0, #1207959552	@ 0x48000000
 800310a:	f002 f92f 	bl	800536c <HAL_GPIO_Init>

    GPIO_InitStruct.Pin = GPIO_PIN_5;
 800310e:	2320      	movs	r3, #32
 8003110:	65fb      	str	r3, [r7, #92]	@ 0x5c
    GPIO_InitStruct.Mode = GPIO_MODE_AF_OD;
 8003112:	2312      	movs	r3, #18
 8003114:	663b      	str	r3, [r7, #96]	@ 0x60
    GPIO_InitStruct.Pull = GPIO_NOPULL;
 8003116:	2300      	movs	r3, #0
 8003118:	667b      	str	r3, [r7, #100]	@ 0x64
    GPIO_InitStruct.Speed = GPIO_SPEED_FREQ_LOW;
 800311a:	2300      	movs	r3, #0
 800311c:	66bb      	str	r3, [r7, #104]	@ 0x68
    GPIO_InitStruct.Alternate = GPIO_AF8_I2C3;
 800311e:	2308      	movs	r3, #8
 8003120:	66fb      	str	r3, [r7, #108]	@ 0x6c
    HAL_GPIO_Init(GPIOB, &GPIO_InitStruct);
 8003122:	f107 035c 	add.w	r3, r7, #92	@ 0x5c
 8003126:	4619      	mov	r1, r3
 8003128:	480b      	ldr	r0, [pc, #44]	@ (8003158 <HAL_I2C_MspInit+0xec>)
 800312a:	f002 f91f 	bl	800536c <HAL_GPIO_Init>

    /* Peripheral clock enable */
    __HAL_RCC_I2C3_CLK_ENABLE();
 800312e:	4b09      	ldr	r3, [pc, #36]	@ (8003154 <HAL_I2C_MspInit+0xe8>)
 8003130:	6d9b      	ldr	r3, [r3, #88]	@ 0x58
 8003132:	4a08      	ldr	r2, [pc, #32]	@ (8003154 <HAL_I2C_MspInit+0xe8>)
 8003134:	f043 4380 	orr.w	r3, r3, #1073741824	@ 0x40000000
 8003138:	6593      	str	r3, [r2, #88]	@ 0x58
 800313a:	4b06      	ldr	r3, [pc, #24]	@ (8003154 <HAL_I2C_MspInit+0xe8>)
 800313c:	6d9b      	ldr	r3, [r3, #88]	@ 0x58
 800313e:	f003 4380 	and.w	r3, r3, #1073741824	@ 0x40000000
 8003142:	60fb      	str	r3, [r7, #12]
 8003144:	68fb      	ldr	r3, [r7, #12]

    /* USER CODE END I2C3_MspInit 1 */

  }

}
 8003146:	bf00      	nop
 8003148:	3770      	adds	r7, #112	@ 0x70
 800314a:	46bd      	mov	sp, r7
 800314c:	bd80      	pop	{r7, pc}
 800314e:	bf00      	nop
 8003150:	40007800 	.word	0x40007800
 8003154:	40021000 	.word	0x40021000
 8003158:	48000400 	.word	0x48000400

0800315c <HAL_SPI_MspInit>:
  * This function configures the hardware resources used in this example
  * @param hspi: SPI handle pointer
  * @retval None
  */
void HAL_SPI_MspInit(SPI_HandleTypeDef* hspi)
{
 800315c:	b580      	push	{r7, lr}
 800315e:	b08a      	sub	sp, #40	@ 0x28
 8003160:	af00      	add	r7, sp, #0
 8003162:	6078      	str	r0, [r7, #4]
  GPIO_InitTypeDef GPIO_InitStruct = {0};
 8003164:	f107 0314 	add.w	r3, r7, #20
 8003168:	2200      	movs	r2, #0
 800316a:	601a      	str	r2, [r3, #0]
 800316c:	605a      	str	r2, [r3, #4]
 800316e:	609a      	str	r2, [r3, #8]
 8003170:	60da      	str	r2, [r3, #12]
 8003172:	611a      	str	r2, [r3, #16]
  if(hspi->Instance==SPI1)
 8003174:	687b      	ldr	r3, [r7, #4]
 8003176:	681b      	ldr	r3, [r3, #0]
 8003178:	4a2c      	ldr	r2, [pc, #176]	@ (800322c <HAL_SPI_MspInit+0xd0>)
 800317a:	4293      	cmp	r3, r2
 800317c:	d152      	bne.n	8003224 <HAL_SPI_MspInit+0xc8>
  {
    /* USER CODE BEGIN SPI1_MspInit 0 */
    /* USER CODE END SPI1_MspInit 0 */
    /* Peripheral clock enable */
    __HAL_RCC_SPI1_CLK_ENABLE();
 800317e:	4b2c      	ldr	r3, [pc, #176]	@ (8003230 <HAL_SPI_MspInit+0xd4>)
 8003180:	6e1b      	ldr	r3, [r3, #96]	@ 0x60
 8003182:	4a2b      	ldr	r2, [pc, #172]	@ (8003230 <HAL_SPI_MspInit+0xd4>)
 8003184:	f443 5380 	orr.w	r3, r3, #4096	@ 0x1000
 8003188:	6613      	str	r3, [r2, #96]	@ 0x60
 800318a:	4b29      	ldr	r3, [pc, #164]	@ (8003230 <HAL_SPI_MspInit+0xd4>)
 800318c:	6e1b      	ldr	r3, [r3, #96]	@ 0x60
 800318e:	f403 5380 	and.w	r3, r3, #4096	@ 0x1000
 8003192:	613b      	str	r3, [r7, #16]
 8003194:	693b      	ldr	r3, [r7, #16]

    __HAL_RCC_GPIOA_CLK_ENABLE();
 8003196:	4b26      	ldr	r3, [pc, #152]	@ (8003230 <HAL_SPI_MspInit+0xd4>)
 8003198:	6cdb      	ldr	r3, [r3, #76]	@ 0x4c
 800319a:	4a25      	ldr	r2, [pc, #148]	@ (8003230 <HAL_SPI_MspInit+0xd4>)
 800319c:	f043 0301 	orr.w	r3, r3, #1
 80031a0:	64d3      	str	r3, [r2, #76]	@ 0x4c
 80031a2:	4b23      	ldr	r3, [pc, #140]	@ (8003230 <HAL_SPI_MspInit+0xd4>)
 80031a4:	6cdb      	ldr	r3, [r3, #76]	@ 0x4c
 80031a6:	f003 0301 	and.w	r3, r3, #1
 80031aa:	60fb      	str	r3, [r7, #12]
 80031ac:	68fb      	ldr	r3, [r7, #12]
    /**SPI1 GPIO Configuration
    PA5     ------> SPI1_SCK
    PA6     ------> SPI1_MISO
    PA7     ------> SPI1_MOSI
    */
    GPIO_InitStruct.Pin = GPIO_PIN_5|GPIO_PIN_6|GPIO_PIN_7;
 80031ae:	23e0      	movs	r3, #224	@ 0xe0
 80031b0:	617b      	str	r3, [r7, #20]
    GPIO_InitStruct.Mode = GPIO_MODE_AF_PP;
 80031b2:	2302      	movs	r3, #2
 80031b4:	61bb      	str	r3, [r7, #24]
    GPIO_InitStruct.Pull = GPIO_NOPULL;
 80031b6:	2300      	movs	r3, #0
 80031b8:	61fb      	str	r3, [r7, #28]
    GPIO_InitStruct.Speed = GPIO_SPEED_FREQ_LOW;
 80031ba:	2300      	movs	r3, #0
 80031bc:	623b      	str	r3, [r7, #32]
    GPIO_InitStruct.Alternate = GPIO_AF5_SPI1;
 80031be:	2305      	movs	r3, #5
 80031c0:	627b      	str	r3, [r7, #36]	@ 0x24
    HAL_GPIO_Init(GPIOA, &GPIO_InitStruct);
 80031c2:	f107 0314 	add.w	r3, r7, #20
 80031c6:	4619      	mov	r1, r3
 80031c8:	f04f 4090 	mov.w	r0, #1207959552	@ 0x48000000
 80031cc:	f002 f8ce 	bl	800536c <HAL_GPIO_Init>

    /* SPI1 DMA Init */
    /* SPI1_RX Init */
    hdma_spi1_rx.Instance = DMA1_Channel2;
 80031d0:	4b18      	ldr	r3, [pc, #96]	@ (8003234 <HAL_SPI_MspInit+0xd8>)
 80031d2:	4a19      	ldr	r2, [pc, #100]	@ (8003238 <HAL_SPI_MspInit+0xdc>)
 80031d4:	601a      	str	r2, [r3, #0]
    hdma_spi1_rx.Init.Request = DMA_REQUEST_SPI1_RX;
 80031d6:	4b17      	ldr	r3, [pc, #92]	@ (8003234 <HAL_SPI_MspInit+0xd8>)
 80031d8:	220a      	movs	r2, #10
 80031da:	605a      	str	r2, [r3, #4]
    hdma_spi1_rx.Init.Direction = DMA_PERIPH_TO_MEMORY;
 80031dc:	4b15      	ldr	r3, [pc, #84]	@ (8003234 <HAL_SPI_MspInit+0xd8>)
 80031de:	2200      	movs	r2, #0
 80031e0:	609a      	str	r2, [r3, #8]
    hdma_spi1_rx.Init.PeriphInc = DMA_PINC_DISABLE;
 80031e2:	4b14      	ldr	r3, [pc, #80]	@ (8003234 <HAL_SPI_MspInit+0xd8>)
 80031e4:	2200      	movs	r2, #0
 80031e6:	60da      	str	r2, [r3, #12]
    hdma_spi1_rx.Init.MemInc = DMA_MINC_ENABLE;
 80031e8:	4b12      	ldr	r3, [pc, #72]	@ (8003234 <HAL_SPI_MspInit+0xd8>)
 80031ea:	2280      	movs	r2, #128	@ 0x80
 80031ec:	611a      	str	r2, [r3, #16]
    hdma_spi1_rx.Init.PeriphDataAlignment = DMA_PDATAALIGN_BYTE;
 80031ee:	4b11      	ldr	r3, [pc, #68]	@ (8003234 <HAL_SPI_MspInit+0xd8>)
 80031f0:	2200      	movs	r2, #0
 80031f2:	615a      	str	r2, [r3, #20]
    hdma_spi1_rx.Init.MemDataAlignment = DMA_MDATAALIGN_BYTE;
 80031f4:	4b0f      	ldr	r3, [pc, #60]	@ (8003234 <HAL_SPI_MspInit+0xd8>)
 80031f6:	2200      	movs	r2, #0
 80031f8:	619a      	str	r2, [r3, #24]
    hdma_spi1_rx.Init.Mode = DMA_NORMAL;
 80031fa:	4b0e      	ldr	r3, [pc, #56]	@ (8003234 <HAL_SPI_MspInit+0xd8>)
 80031fc:	2200      	movs	r2, #0
 80031fe:	61da      	str	r2, [r3, #28]
    hdma_spi1_rx.Init.Priority = DMA_PRIORITY_MEDIUM;
 8003200:	4b0c      	ldr	r3, [pc, #48]	@ (8003234 <HAL_SPI_MspInit+0xd8>)
 8003202:	f44f 5280 	mov.w	r2, #4096	@ 0x1000
 8003206:	621a      	str	r2, [r3, #32]
    if (HAL_DMA_Init(&hdma_spi1_rx) != HAL_OK)
 8003208:	480a      	ldr	r0, [pc, #40]	@ (8003234 <HAL_SPI_MspInit+0xd8>)
 800320a:	f001 fe31 	bl	8004e70 <HAL_DMA_Init>
 800320e:	4603      	mov	r3, r0
 8003210:	2b00      	cmp	r3, #0
 8003212:	d001      	beq.n	8003218 <HAL_SPI_MspInit+0xbc>
    {
      Error_Handler();
 8003214:	f7ff fb3c 	bl	8002890 <Error_Handler>
    }

    __HAL_LINKDMA(hspi,hdmarx,hdma_spi1_rx);
 8003218:	687b      	ldr	r3, [r7, #4]
 800321a:	4a06      	ldr	r2, [pc, #24]	@ (8003234 <HAL_SPI_MspInit+0xd8>)
 800321c:	659a      	str	r2, [r3, #88]	@ 0x58
 800321e:	4a05      	ldr	r2, [pc, #20]	@ (8003234 <HAL_SPI_MspInit+0xd8>)
 8003220:	687b      	ldr	r3, [r7, #4]
 8003222:	6293      	str	r3, [r2, #40]	@ 0x28
    /* USER CODE BEGIN SPI1_MspInit 1 */
    /* USER CODE END SPI1_MspInit 1 */

  }

}
 8003224:	bf00      	nop
 8003226:	3728      	adds	r7, #40	@ 0x28
 8003228:	46bd      	mov	sp, r7
 800322a:	bd80      	pop	{r7, pc}
 800322c:	40013000 	.word	0x40013000
 8003230:	40021000 	.word	0x40021000
 8003234:	200002cc 	.word	0x200002cc
 8003238:	4002001c 	.word	0x4002001c

0800323c <HAL_TIM_Base_MspInit>:
  * This function configures the hardware resources used in this example
  * @param htim_base: TIM_Base handle pointer
  * @retval None
  */
void HAL_TIM_Base_MspInit(TIM_HandleTypeDef* htim_base)
{
 800323c:	b580      	push	{r7, lr}
 800323e:	b084      	sub	sp, #16
 8003240:	af00      	add	r7, sp, #0
 8003242:	6078      	str	r0, [r7, #4]
  if(htim_base->Instance==TIM6)
 8003244:	687b      	ldr	r3, [r7, #4]
 8003246:	681b      	ldr	r3, [r3, #0]
 8003248:	4a1a      	ldr	r2, [pc, #104]	@ (80032b4 <HAL_TIM_Base_MspInit+0x78>)
 800324a:	4293      	cmp	r3, r2
 800324c:	d114      	bne.n	8003278 <HAL_TIM_Base_MspInit+0x3c>
  {
    /* USER CODE BEGIN TIM6_MspInit 0 */

    /* USER CODE END TIM6_MspInit 0 */
    /* Peripheral clock enable */
    __HAL_RCC_TIM6_CLK_ENABLE();
 800324e:	4b1a      	ldr	r3, [pc, #104]	@ (80032b8 <HAL_TIM_Base_MspInit+0x7c>)
 8003250:	6d9b      	ldr	r3, [r3, #88]	@ 0x58
 8003252:	4a19      	ldr	r2, [pc, #100]	@ (80032b8 <HAL_TIM_Base_MspInit+0x7c>)
 8003254:	f043 0310 	orr.w	r3, r3, #16
 8003258:	6593      	str	r3, [r2, #88]	@ 0x58
 800325a:	4b17      	ldr	r3, [pc, #92]	@ (80032b8 <HAL_TIM_Base_MspInit+0x7c>)
 800325c:	6d9b      	ldr	r3, [r3, #88]	@ 0x58
 800325e:	f003 0310 	and.w	r3, r3, #16
 8003262:	60fb      	str	r3, [r7, #12]
 8003264:	68fb      	ldr	r3, [r7, #12]
    /* TIM6 interrupt Init */
    HAL_NVIC_SetPriority(TIM6_DAC_IRQn, 0, 0);
 8003266:	2200      	movs	r2, #0
 8003268:	2100      	movs	r1, #0
 800326a:	2036      	movs	r0, #54	@ 0x36
 800326c:	f001 fdcb 	bl	8004e06 <HAL_NVIC_SetPriority>
    HAL_NVIC_EnableIRQ(TIM6_DAC_IRQn);
 8003270:	2036      	movs	r0, #54	@ 0x36
 8003272:	f001 fde2 	bl	8004e3a <HAL_NVIC_EnableIRQ>
    /* USER CODE BEGIN TIM7_MspInit 1 */

    /* USER CODE END TIM7_MspInit 1 */
  }

}
 8003276:	e018      	b.n	80032aa <HAL_TIM_Base_MspInit+0x6e>
  else if(htim_base->Instance==TIM7)
 8003278:	687b      	ldr	r3, [r7, #4]
 800327a:	681b      	ldr	r3, [r3, #0]
 800327c:	4a0f      	ldr	r2, [pc, #60]	@ (80032bc <HAL_TIM_Base_MspInit+0x80>)
 800327e:	4293      	cmp	r3, r2
 8003280:	d113      	bne.n	80032aa <HAL_TIM_Base_MspInit+0x6e>
    __HAL_RCC_TIM7_CLK_ENABLE();
 8003282:	4b0d      	ldr	r3, [pc, #52]	@ (80032b8 <HAL_TIM_Base_MspInit+0x7c>)
 8003284:	6d9b      	ldr	r3, [r3, #88]	@ 0x58
 8003286:	4a0c      	ldr	r2, [pc, #48]	@ (80032b8 <HAL_TIM_Base_MspInit+0x7c>)
 8003288:	f043 0320 	orr.w	r3, r3, #32
 800328c:	6593      	str	r3, [r2, #88]	@ 0x58
 800328e:	4b0a      	ldr	r3, [pc, #40]	@ (80032b8 <HAL_TIM_Base_MspInit+0x7c>)
 8003290:	6d9b      	ldr	r3, [r3, #88]	@ 0x58
 8003292:	f003 0320 	and.w	r3, r3, #32
 8003296:	60bb      	str	r3, [r7, #8]
 8003298:	68bb      	ldr	r3, [r7, #8]
    HAL_NVIC_SetPriority(TIM7_IRQn, 0, 0);
 800329a:	2200      	movs	r2, #0
 800329c:	2100      	movs	r1, #0
 800329e:	2037      	movs	r0, #55	@ 0x37
 80032a0:	f001 fdb1 	bl	8004e06 <HAL_NVIC_SetPriority>
    HAL_NVIC_EnableIRQ(TIM7_IRQn);
 80032a4:	2037      	movs	r0, #55	@ 0x37
 80032a6:	f001 fdc8 	bl	8004e3a <HAL_NVIC_EnableIRQ>
}
 80032aa:	bf00      	nop
 80032ac:	3710      	adds	r7, #16
 80032ae:	46bd      	mov	sp, r7
 80032b0:	bd80      	pop	{r7, pc}
 80032b2:	bf00      	nop
 80032b4:	40001000 	.word	0x40001000
 80032b8:	40021000 	.word	0x40021000
 80032bc:	40001400 	.word	0x40001400

080032c0 <NMI_Handler>:
/******************************************************************************/
/**
  * @brief This function handles Non maskable interrupt.
  */
void NMI_Handler(void)
{
 80032c0:	b480      	push	{r7}
 80032c2:	af00      	add	r7, sp, #0
  /* USER CODE BEGIN NonMaskableInt_IRQn 0 */
  /* USER CODE END NonMaskableInt_IRQn 0 */
  /* USER CODE BEGIN NonMaskableInt_IRQn 1 */
  while (1) {}
 80032c4:	bf00      	nop
 80032c6:	e7fd      	b.n	80032c4 <NMI_Handler+0x4>

080032c8 <HardFault_Handler>:

/**
  * @brief This function handles Hard fault interrupt.
  */
void HardFault_Handler(void)
{
 80032c8:	b480      	push	{r7}
 80032ca:	af00      	add	r7, sp, #0
  /* USER CODE BEGIN HardFault_IRQn 0 */
  /* USER CODE END HardFault_IRQn 0 */
  while (1)
 80032cc:	bf00      	nop
 80032ce:	e7fd      	b.n	80032cc <HardFault_Handler+0x4>

080032d0 <MemManage_Handler>:

/**
  * @brief This function handles Memory management fault.
  */
void MemManage_Handler(void)
{
 80032d0:	b480      	push	{r7}
 80032d2:	af00      	add	r7, sp, #0
  /* USER CODE BEGIN MemoryManagement_IRQn 0 */
  /* USER CODE END MemoryManagement_IRQn 0 */
  while (1)
 80032d4:	bf00      	nop
 80032d6:	e7fd      	b.n	80032d4 <MemManage_Handler+0x4>

080032d8 <BusFault_Handler>:

/**
  * @brief This function handles Prefetch fault, memory access fault.
  */
void BusFault_Handler(void)
{
 80032d8:	b480      	push	{r7}
 80032da:	af00      	add	r7, sp, #0
  /* USER CODE BEGIN BusFault_IRQn 0 */
  /* USER CODE END BusFault_IRQn 0 */
  while (1)
 80032dc:	bf00      	nop
 80032de:	e7fd      	b.n	80032dc <BusFault_Handler+0x4>

080032e0 <UsageFault_Handler>:

/**
  * @brief This function handles Undefined instruction or illegal state.
  */
void UsageFault_Handler(void)
{
 80032e0:	b480      	push	{r7}
 80032e2:	af00      	add	r7, sp, #0
  /* USER CODE BEGIN UsageFault_IRQn 0 */
  /* USER CODE END UsageFault_IRQn 0 */
  while (1)
 80032e4:	bf00      	nop
 80032e6:	e7fd      	b.n	80032e4 <UsageFault_Handler+0x4>

080032e8 <SVC_Handler>:

/**
  * @brief This function handles System service call via SWI instruction.
  */
void SVC_Handler(void)
{
 80032e8:	b480      	push	{r7}
 80032ea:	af00      	add	r7, sp, #0
  /* USER CODE BEGIN SVCall_IRQn 0 */
  /* USER CODE END SVCall_IRQn 0 */
  /* USER CODE BEGIN SVCall_IRQn 1 */
  /* USER CODE END SVCall_IRQn 1 */
}
 80032ec:	bf00      	nop
 80032ee:	46bd      	mov	sp, r7
 80032f0:	f85d 7b04 	ldr.w	r7, [sp], #4
 80032f4:	4770      	bx	lr

080032f6 <DebugMon_Handler>:

/**
  * @brief This function handles Debug monitor.
  */
void DebugMon_Handler(void)
{
 80032f6:	b480      	push	{r7}
 80032f8:	af00      	add	r7, sp, #0
  /* USER CODE BEGIN DebugMonitor_IRQn 0 */
  /* USER CODE END DebugMonitor_IRQn 0 */
  /* USER CODE BEGIN DebugMonitor_IRQn 1 */
  /* USER CODE END DebugMonitor_IRQn 1 */
}
 80032fa:	bf00      	nop
 80032fc:	46bd      	mov	sp, r7
 80032fe:	f85d 7b04 	ldr.w	r7, [sp], #4
 8003302:	4770      	bx	lr

08003304 <PendSV_Handler>:

/**
  * @brief This function handles Pendable request for system service.
  */
void PendSV_Handler(void)
{
 8003304:	b480      	push	{r7}
 8003306:	af00      	add	r7, sp, #0
  /* USER CODE BEGIN PendSV_IRQn 0 */
  /* USER CODE END PendSV_IRQn 0 */
  /* USER CODE BEGIN PendSV_IRQn 1 */
  /* USER CODE END PendSV_IRQn 1 */
}
 8003308:	bf00      	nop
 800330a:	46bd      	mov	sp, r7
 800330c:	f85d 7b04 	ldr.w	r7, [sp], #4
 8003310:	4770      	bx	lr

08003312 <SysTick_Handler>:

/**
  * @brief This function handles System tick timer.
  */
void SysTick_Handler(void)
{
 8003312:	b580      	push	{r7, lr}
 8003314:	af00      	add	r7, sp, #0
  /* USER CODE BEGIN SysTick_IRQn 0 */
  /* USER CODE END SysTick_IRQn 0 */
  HAL_IncTick();
 8003316:	f000 f909 	bl	800352c <HAL_IncTick>
  /* USER CODE BEGIN SysTick_IRQn 1 */
  /* USER CODE END SysTick_IRQn 1 */
}
 800331a:	bf00      	nop
 800331c:	bd80      	pop	{r7, pc}
	...

08003320 <DMA1_Channel1_IRQHandler>:

/**
  * @brief This function handles DMA1 channel1 global interrupt.
  */
void DMA1_Channel1_IRQHandler(void)
{
 8003320:	b580      	push	{r7, lr}
 8003322:	af00      	add	r7, sp, #0
  /* USER CODE BEGIN DMA1_Channel1_IRQn 0 */
  /* USER CODE END DMA1_Channel1_IRQn 0 */
  HAL_DMA_IRQHandler(&hdma_adc1);
 8003324:	4802      	ldr	r0, [pc, #8]	@ (8003330 <DMA1_Channel1_IRQHandler+0x10>)
 8003326:	f001 fec6 	bl	80050b6 <HAL_DMA_IRQHandler>
  /* USER CODE BEGIN DMA1_Channel1_IRQn 1 */
  /* USER CODE END DMA1_Channel1_IRQn 1 */
}
 800332a:	bf00      	nop
 800332c:	bd80      	pop	{r7, pc}
 800332e:	bf00      	nop
 8003330:	20000154 	.word	0x20000154

08003334 <DMA1_Channel2_IRQHandler>:

/**
  * @brief This function handles DMA1 channel2 global interrupt.
  */
void DMA1_Channel2_IRQHandler(void)
{
 8003334:	b580      	push	{r7, lr}
 8003336:	af00      	add	r7, sp, #0
  /* USER CODE BEGIN DMA1_Channel2_IRQn 0 */
  /* USER CODE END DMA1_Channel2_IRQn 0 */
  HAL_DMA_IRQHandler(&hdma_spi1_rx);
 8003338:	4802      	ldr	r0, [pc, #8]	@ (8003344 <DMA1_Channel2_IRQHandler+0x10>)
 800333a:	f001 febc 	bl	80050b6 <HAL_DMA_IRQHandler>
  /* USER CODE BEGIN DMA1_Channel2_IRQn 1 */
  /* USER CODE END DMA1_Channel2_IRQn 1 */
}
 800333e:	bf00      	nop
 8003340:	bd80      	pop	{r7, pc}
 8003342:	bf00      	nop
 8003344:	200002cc 	.word	0x200002cc

08003348 <DMA1_Channel3_IRQHandler>:

/**
  * @brief This function handles DMA1 channel3 global interrupt.
  */
void DMA1_Channel3_IRQHandler(void)
{
 8003348:	b580      	push	{r7, lr}
 800334a:	af00      	add	r7, sp, #0
  /* USER CODE BEGIN DMA1_Channel3_IRQn 0 */

  /* USER CODE END DMA1_Channel3_IRQn 0 */
  HAL_DMA_IRQHandler(&hdma_adc2);
 800334c:	4802      	ldr	r0, [pc, #8]	@ (8003358 <DMA1_Channel3_IRQHandler+0x10>)
 800334e:	f001 feb2 	bl	80050b6 <HAL_DMA_IRQHandler>
  /* USER CODE BEGIN DMA1_Channel3_IRQn 1 */

  /* USER CODE END DMA1_Channel3_IRQn 1 */
}
 8003352:	bf00      	nop
 8003354:	bd80      	pop	{r7, pc}
 8003356:	bf00      	nop
 8003358:	200001b4 	.word	0x200001b4

0800335c <TIM6_DAC_IRQHandler>:

/**
  * @brief This function handles TIM6 global interrupt, DAC1 and DAC3 channel underrun error interrupts.
  */
void TIM6_DAC_IRQHandler(void)
{
 800335c:	b580      	push	{r7, lr}
 800335e:	af00      	add	r7, sp, #0
  /* USER CODE BEGIN TIM6_DAC_IRQn 0 */
  /* USER CODE END TIM6_DAC_IRQn 0 */
  HAL_TIM_IRQHandler(&htim6);
 8003360:	4802      	ldr	r0, [pc, #8]	@ (800336c <TIM6_DAC_IRQHandler+0x10>)
 8003362:	f005 f825 	bl	80083b0 <HAL_TIM_IRQHandler>
  /* USER CODE BEGIN TIM6_DAC_IRQn 1 */
  /* USER CODE END TIM6_DAC_IRQn 1 */
}
 8003366:	bf00      	nop
 8003368:	bd80      	pop	{r7, pc}
 800336a:	bf00      	nop
 800336c:	2000032c 	.word	0x2000032c

08003370 <TIM7_IRQHandler>:

/**
  * @brief This function handles TIM7 global interrupt.
  */
void TIM7_IRQHandler(void)
{
 8003370:	b580      	push	{r7, lr}
 8003372:	af00      	add	r7, sp, #0
  /* USER CODE BEGIN TIM7_IRQn 0 */
  /* USER CODE END TIM7_IRQn 0 */
  HAL_TIM_IRQHandler(&htim7);
 8003374:	4802      	ldr	r0, [pc, #8]	@ (8003380 <TIM7_IRQHandler+0x10>)
 8003376:	f005 f81b 	bl	80083b0 <HAL_TIM_IRQHandler>
  /* USER CODE BEGIN TIM7_IRQn 1 */
  /* USER CODE END TIM7_IRQn 1 */
}
 800337a:	bf00      	nop
 800337c:	bd80      	pop	{r7, pc}
 800337e:	bf00      	nop
 8003380:	20000378 	.word	0x20000378

08003384 <HAL_TIM_PeriodElapsedCallback>:
  * @brief  Timer period elapsed callback.
  *         Called by HAL from within TIM6/TIM7 IRQ handlers.
  *         Sets flag only — no processing here, keeps ISR latency minimal.
  */
void HAL_TIM_PeriodElapsedCallback(TIM_HandleTypeDef *htim)
{
 8003384:	b480      	push	{r7}
 8003386:	b083      	sub	sp, #12
 8003388:	af00      	add	r7, sp, #0
 800338a:	6078      	str	r0, [r7, #4]
    if (htim->Instance == TIM6)
 800338c:	687b      	ldr	r3, [r7, #4]
 800338e:	681b      	ldr	r3, [r3, #0]
 8003390:	4a09      	ldr	r2, [pc, #36]	@ (80033b8 <HAL_TIM_PeriodElapsedCallback+0x34>)
 8003392:	4293      	cmp	r3, r2
 8003394:	d102      	bne.n	800339c <HAL_TIM_PeriodElapsedCallback+0x18>
        kalman_flag = true;   /* 640  Hz — Kalman filter */
 8003396:	4b09      	ldr	r3, [pc, #36]	@ (80033bc <HAL_TIM_PeriodElapsedCallback+0x38>)
 8003398:	2201      	movs	r2, #1
 800339a:	701a      	strb	r2, [r3, #0]
    if (htim->Instance == TIM7)
 800339c:	687b      	ldr	r3, [r7, #4]
 800339e:	681b      	ldr	r3, [r3, #0]
 80033a0:	4a07      	ldr	r2, [pc, #28]	@ (80033c0 <HAL_TIM_PeriodElapsedCallback+0x3c>)
 80033a2:	4293      	cmp	r3, r2
 80033a4:	d102      	bne.n	80033ac <HAL_TIM_PeriodElapsedCallback+0x28>
        quad_flag = true;     /* 6900 Hz — quadrature output */
 80033a6:	4b07      	ldr	r3, [pc, #28]	@ (80033c4 <HAL_TIM_PeriodElapsedCallback+0x40>)
 80033a8:	2201      	movs	r2, #1
 80033aa:	701a      	strb	r2, [r3, #0]
}
 80033ac:	bf00      	nop
 80033ae:	370c      	adds	r7, #12
 80033b0:	46bd      	mov	sp, r7
 80033b2:	f85d 7b04 	ldr.w	r7, [sp], #4
 80033b6:	4770      	bx	lr
 80033b8:	40001000 	.word	0x40001000
 80033bc:	20000c2c 	.word	0x20000c2c
 80033c0:	40001400 	.word	0x40001400
 80033c4:	20000c2d 	.word	0x20000c2d

080033c8 <GetKalmanReady>:
/**
  * @brief  Read and atomically clear the Kalman ready flag.
  *         Returns true once per TIM6 period (640 Hz).
  */
bool GetKalmanReady(void)
{
 80033c8:	b480      	push	{r7}
 80033ca:	b083      	sub	sp, #12
 80033cc:	af00      	add	r7, sp, #0
    bool flag = kalman_flag;
 80033ce:	4b06      	ldr	r3, [pc, #24]	@ (80033e8 <GetKalmanReady+0x20>)
 80033d0:	781b      	ldrb	r3, [r3, #0]
 80033d2:	71fb      	strb	r3, [r7, #7]
    kalman_flag = false;
 80033d4:	4b04      	ldr	r3, [pc, #16]	@ (80033e8 <GetKalmanReady+0x20>)
 80033d6:	2200      	movs	r2, #0
 80033d8:	701a      	strb	r2, [r3, #0]
    return flag;
 80033da:	79fb      	ldrb	r3, [r7, #7]
}
 80033dc:	4618      	mov	r0, r3
 80033de:	370c      	adds	r7, #12
 80033e0:	46bd      	mov	sp, r7
 80033e2:	f85d 7b04 	ldr.w	r7, [sp], #4
 80033e6:	4770      	bx	lr
 80033e8:	20000c2c 	.word	0x20000c2c

080033ec <GetQuadReady>:
/**
  * @brief  Read and atomically clear the quadrature ready flag.
  *         Returns true once per TIM7 period (6900 Hz).
  */
bool GetQuadReady(void)
{
 80033ec:	b480      	push	{r7}
 80033ee:	b083      	sub	sp, #12
 80033f0:	af00      	add	r7, sp, #0
    bool flag = quad_flag;
 80033f2:	4b06      	ldr	r3, [pc, #24]	@ (800340c <GetQuadReady+0x20>)
 80033f4:	781b      	ldrb	r3, [r3, #0]
 80033f6:	71fb      	strb	r3, [r7, #7]
    quad_flag = false;
 80033f8:	4b04      	ldr	r3, [pc, #16]	@ (800340c <GetQuadReady+0x20>)
 80033fa:	2200      	movs	r2, #0
 80033fc:	701a      	strb	r2, [r3, #0]
    return flag;
 80033fe:	79fb      	ldrb	r3, [r7, #7]
}
 8003400:	4618      	mov	r0, r3
 8003402:	370c      	adds	r7, #12
 8003404:	46bd      	mov	sp, r7
 8003406:	f85d 7b04 	ldr.w	r7, [sp], #4
 800340a:	4770      	bx	lr
 800340c:	20000c2d 	.word	0x20000c2d

08003410 <SystemInit>:
  * @param  None
  * @retval None
  */

void SystemInit(void)
{
 8003410:	b480      	push	{r7}
 8003412:	af00      	add	r7, sp, #0
  /* FPU settings ------------------------------------------------------------*/
  #if (__FPU_PRESENT == 1) && (__FPU_USED == 1)
    SCB->CPACR |= ((3UL << (10*2))|(3UL << (11*2)));  /* set CP10 and CP11 Full Access */
 8003414:	4b06      	ldr	r3, [pc, #24]	@ (8003430 <SystemInit+0x20>)
 8003416:	f8d3 3088 	ldr.w	r3, [r3, #136]	@ 0x88
 800341a:	4a05      	ldr	r2, [pc, #20]	@ (8003430 <SystemInit+0x20>)
 800341c:	f443 0370 	orr.w	r3, r3, #15728640	@ 0xf00000
 8003420:	f8c2 3088 	str.w	r3, [r2, #136]	@ 0x88

  /* Configure the Vector Table location add offset address ------------------*/
#if defined(USER_VECT_TAB_ADDRESS)
  SCB->VTOR = VECT_TAB_BASE_ADDRESS | VECT_TAB_OFFSET; /* Vector Table Relocation in Internal SRAM */
#endif /* USER_VECT_TAB_ADDRESS */
}
 8003424:	bf00      	nop
 8003426:	46bd      	mov	sp, r7
 8003428:	f85d 7b04 	ldr.w	r7, [sp], #4
 800342c:	4770      	bx	lr
 800342e:	bf00      	nop
 8003430:	e000ed00 	.word	0xe000ed00

08003434 <Reset_Handler>:

    .section	.text.Reset_Handler
	.weak	Reset_Handler
	.type	Reset_Handler, %function
Reset_Handler:
  ldr   r0, =_estack
 8003434:	480d      	ldr	r0, [pc, #52]	@ (800346c <LoopForever+0x2>)
  mov   sp, r0          /* set stack pointer */
 8003436:	4685      	mov	sp, r0
  
/* Call the clock system initialization function.*/
    bl  SystemInit
 8003438:	f7ff ffea 	bl	8003410 <SystemInit>

/* Copy the data segment initializers from flash to SRAM */
  ldr r0, =_sdata
 800343c:	480c      	ldr	r0, [pc, #48]	@ (8003470 <LoopForever+0x6>)
  ldr r1, =_edata
 800343e:	490d      	ldr	r1, [pc, #52]	@ (8003474 <LoopForever+0xa>)
  ldr r2, =_sidata
 8003440:	4a0d      	ldr	r2, [pc, #52]	@ (8003478 <LoopForever+0xe>)
  movs r3, #0
 8003442:	2300      	movs	r3, #0
  b	LoopCopyDataInit
 8003444:	e002      	b.n	800344c <LoopCopyDataInit>

08003446 <CopyDataInit>:

CopyDataInit:
  ldr r4, [r2, r3]
 8003446:	58d4      	ldr	r4, [r2, r3]
  str r4, [r0, r3]
 8003448:	50c4      	str	r4, [r0, r3]
  adds r3, r3, #4
 800344a:	3304      	adds	r3, #4

0800344c <LoopCopyDataInit>:

LoopCopyDataInit:
  adds r4, r0, r3
 800344c:	18c4      	adds	r4, r0, r3
  cmp r4, r1
 800344e:	428c      	cmp	r4, r1
  bcc CopyDataInit
 8003450:	d3f9      	bcc.n	8003446 <CopyDataInit>
  
/* Zero fill the bss segment. */
  ldr r2, =_sbss
 8003452:	4a0a      	ldr	r2, [pc, #40]	@ (800347c <LoopForever+0x12>)
  ldr r4, =_ebss
 8003454:	4c0a      	ldr	r4, [pc, #40]	@ (8003480 <LoopForever+0x16>)
  movs r3, #0
 8003456:	2300      	movs	r3, #0
  b LoopFillZerobss
 8003458:	e001      	b.n	800345e <LoopFillZerobss>

0800345a <FillZerobss>:

FillZerobss:
  str  r3, [r2]
 800345a:	6013      	str	r3, [r2, #0]
  adds r2, r2, #4
 800345c:	3204      	adds	r2, #4

0800345e <LoopFillZerobss>:

LoopFillZerobss:
  cmp r2, r4
 800345e:	42a2      	cmp	r2, r4
  bcc FillZerobss
 8003460:	d3fb      	bcc.n	800345a <FillZerobss>
/* Call static constructors */
    bl __libc_init_array
 8003462:	f005 fa89 	bl	8008978 <__libc_init_array>
/* Call the application's entry point.*/
	bl	main
 8003466:	f7fe fd2f 	bl	8001ec8 <main>

0800346a <LoopForever>:

LoopForever:
    b LoopForever
 800346a:	e7fe      	b.n	800346a <LoopForever>
  ldr   r0, =_estack
 800346c:	20008000 	.word	0x20008000
  ldr r0, =_sdata
 8003470:	20000000 	.word	0x20000000
  ldr r1, =_edata
 8003474:	20000060 	.word	0x20000060
  ldr r2, =_sidata
 8003478:	08009cd0 	.word	0x08009cd0
  ldr r2, =_sbss
 800347c:	20000060 	.word	0x20000060
  ldr r4, =_ebss
 8003480:	20000d6c 	.word	0x20000d6c

08003484 <ADC1_2_IRQHandler>:
 * @retval : None
*/
    .section	.text.Default_Handler,"ax",%progbits
Default_Handler:
Infinite_Loop:
	b	Infinite_Loop
 8003484:	e7fe      	b.n	8003484 <ADC1_2_IRQHandler>

08003486 <HAL_Init>:
  *         each 1ms in the SysTick_Handler() interrupt handler.
  *
  * @retval HAL status
  */
HAL_StatusTypeDef HAL_Init(void)
{
 8003486:	b580      	push	{r7, lr}
 8003488:	b082      	sub	sp, #8
 800348a:	af00      	add	r7, sp, #0
  HAL_StatusTypeDef  status = HAL_OK;
 800348c:	2300      	movs	r3, #0
 800348e:	71fb      	strb	r3, [r7, #7]
#if (PREFETCH_ENABLE != 0U)
  __HAL_FLASH_PREFETCH_BUFFER_ENABLE();
#endif /* PREFETCH_ENABLE */

  /* Set Interrupt Group Priority */
  HAL_NVIC_SetPriorityGrouping(NVIC_PRIORITYGROUP_4);
 8003490:	2003      	movs	r0, #3
 8003492:	f001 fcad 	bl	8004df0 <HAL_NVIC_SetPriorityGrouping>

  /* Use SysTick as time base source and configure 1ms tick (default clock after Reset is HSI) */
  if (HAL_InitTick(TICK_INT_PRIORITY) != HAL_OK)
 8003496:	200f      	movs	r0, #15
 8003498:	f000 f80e 	bl	80034b8 <HAL_InitTick>
 800349c:	4603      	mov	r3, r0
 800349e:	2b00      	cmp	r3, #0
 80034a0:	d002      	beq.n	80034a8 <HAL_Init+0x22>
  {
    status = HAL_ERROR;
 80034a2:	2301      	movs	r3, #1
 80034a4:	71fb      	strb	r3, [r7, #7]
 80034a6:	e001      	b.n	80034ac <HAL_Init+0x26>
  }
  else
  {
    /* Init the low level hardware */
    HAL_MspInit();
 80034a8:	f7ff fc86 	bl	8002db8 <HAL_MspInit>
  }

  /* Return function status */
  return status;
 80034ac:	79fb      	ldrb	r3, [r7, #7]

}
 80034ae:	4618      	mov	r0, r3
 80034b0:	3708      	adds	r7, #8
 80034b2:	46bd      	mov	sp, r7
 80034b4:	bd80      	pop	{r7, pc}
	...

080034b8 <HAL_InitTick>:
  *       implementation  in user file.
  * @param TickPriority: Tick interrupt priority.
  * @retval HAL status
  */
__weak HAL_StatusTypeDef HAL_InitTick(uint32_t TickPriority)
{
 80034b8:	b580      	push	{r7, lr}
 80034ba:	b084      	sub	sp, #16
 80034bc:	af00      	add	r7, sp, #0
 80034be:	6078      	str	r0, [r7, #4]
  HAL_StatusTypeDef  status = HAL_OK;
 80034c0:	2300      	movs	r3, #0
 80034c2:	73fb      	strb	r3, [r7, #15]

  if (uwTickFreq != 0U)
 80034c4:	4b16      	ldr	r3, [pc, #88]	@ (8003520 <HAL_InitTick+0x68>)
 80034c6:	681b      	ldr	r3, [r3, #0]
 80034c8:	2b00      	cmp	r3, #0
 80034ca:	d022      	beq.n	8003512 <HAL_InitTick+0x5a>
  {
    /* Configure the SysTick to have interrupt in 1ms time basis*/
    if (HAL_SYSTICK_Config(SystemCoreClock / (1000U / uwTickFreq)) == 0U)
 80034cc:	4b15      	ldr	r3, [pc, #84]	@ (8003524 <HAL_InitTick+0x6c>)
 80034ce:	681a      	ldr	r2, [r3, #0]
 80034d0:	4b13      	ldr	r3, [pc, #76]	@ (8003520 <HAL_InitTick+0x68>)
 80034d2:	681b      	ldr	r3, [r3, #0]
 80034d4:	f44f 717a 	mov.w	r1, #1000	@ 0x3e8
 80034d8:	fbb1 f3f3 	udiv	r3, r1, r3
 80034dc:	fbb2 f3f3 	udiv	r3, r2, r3
 80034e0:	4618      	mov	r0, r3
 80034e2:	f001 fcb8 	bl	8004e56 <HAL_SYSTICK_Config>
 80034e6:	4603      	mov	r3, r0
 80034e8:	2b00      	cmp	r3, #0
 80034ea:	d10f      	bne.n	800350c <HAL_InitTick+0x54>
    {
      /* Configure the SysTick IRQ priority */
      if (TickPriority < (1UL << __NVIC_PRIO_BITS))
 80034ec:	687b      	ldr	r3, [r7, #4]
 80034ee:	2b0f      	cmp	r3, #15
 80034f0:	d809      	bhi.n	8003506 <HAL_InitTick+0x4e>
      {
        HAL_NVIC_SetPriority(SysTick_IRQn, TickPriority, 0U);
 80034f2:	2200      	movs	r2, #0
 80034f4:	6879      	ldr	r1, [r7, #4]
 80034f6:	f04f 30ff 	mov.w	r0, #4294967295
 80034fa:	f001 fc84 	bl	8004e06 <HAL_NVIC_SetPriority>
        uwTickPrio = TickPriority;
 80034fe:	4a0a      	ldr	r2, [pc, #40]	@ (8003528 <HAL_InitTick+0x70>)
 8003500:	687b      	ldr	r3, [r7, #4]
 8003502:	6013      	str	r3, [r2, #0]
 8003504:	e007      	b.n	8003516 <HAL_InitTick+0x5e>
      }
      else
      {
        status = HAL_ERROR;
 8003506:	2301      	movs	r3, #1
 8003508:	73fb      	strb	r3, [r7, #15]
 800350a:	e004      	b.n	8003516 <HAL_InitTick+0x5e>
      }
    }
    else
    {
      status = HAL_ERROR;
 800350c:	2301      	movs	r3, #1
 800350e:	73fb      	strb	r3, [r7, #15]
 8003510:	e001      	b.n	8003516 <HAL_InitTick+0x5e>
    }
  }
  else
  {
    status = HAL_ERROR;
 8003512:	2301      	movs	r3, #1
 8003514:	73fb      	strb	r3, [r7, #15]
  }

  /* Return function status */
  return status;
 8003516:	7bfb      	ldrb	r3, [r7, #15]
}
 8003518:	4618      	mov	r0, r3
 800351a:	3710      	adds	r7, #16
 800351c:	46bd      	mov	sp, r7
 800351e:	bd80      	pop	{r7, pc}
 8003520:	2000000c 	.word	0x2000000c
 8003524:	20000004 	.word	0x20000004
 8003528:	20000008 	.word	0x20000008

0800352c <HAL_IncTick>:
  * @note This function is declared as __weak to be overwritten in case of other
  *      implementations in user file.
  * @retval None
  */
__weak void HAL_IncTick(void)
{
 800352c:	b480      	push	{r7}
 800352e:	af00      	add	r7, sp, #0
  uwTick += uwTickFreq;
 8003530:	4b05      	ldr	r3, [pc, #20]	@ (8003548 <HAL_IncTick+0x1c>)
 8003532:	681a      	ldr	r2, [r3, #0]
 8003534:	4b05      	ldr	r3, [pc, #20]	@ (800354c <HAL_IncTick+0x20>)
 8003536:	681b      	ldr	r3, [r3, #0]
 8003538:	4413      	add	r3, r2
 800353a:	4a03      	ldr	r2, [pc, #12]	@ (8003548 <HAL_IncTick+0x1c>)
 800353c:	6013      	str	r3, [r2, #0]
}
 800353e:	bf00      	nop
 8003540:	46bd      	mov	sp, r7
 8003542:	f85d 7b04 	ldr.w	r7, [sp], #4
 8003546:	4770      	bx	lr
 8003548:	20000c30 	.word	0x20000c30
 800354c:	2000000c 	.word	0x2000000c

08003550 <HAL_GetTick>:
  * @note This function is declared as __weak to be overwritten in case of other
  *       implementations in user file.
  * @retval tick value
  */
__weak uint32_t HAL_GetTick(void)
{
 8003550:	b480      	push	{r7}
 8003552:	af00      	add	r7, sp, #0
  return uwTick;
 8003554:	4b03      	ldr	r3, [pc, #12]	@ (8003564 <HAL_GetTick+0x14>)
 8003556:	681b      	ldr	r3, [r3, #0]
}
 8003558:	4618      	mov	r0, r3
 800355a:	46bd      	mov	sp, r7
 800355c:	f85d 7b04 	ldr.w	r7, [sp], #4
 8003560:	4770      	bx	lr
 8003562:	bf00      	nop
 8003564:	20000c30 	.word	0x20000c30

08003568 <HAL_Delay>:
  *       implementations in user file.
  * @param Delay specifies the delay time length, in milliseconds.
  * @retval None
  */
__weak void HAL_Delay(uint32_t Delay)
{
 8003568:	b580      	push	{r7, lr}
 800356a:	b084      	sub	sp, #16
 800356c:	af00      	add	r7, sp, #0
 800356e:	6078      	str	r0, [r7, #4]
  uint32_t tickstart = HAL_GetTick();
 8003570:	f7ff ffee 	bl	8003550 <HAL_GetTick>
 8003574:	60b8      	str	r0, [r7, #8]
  uint32_t wait = Delay;
 8003576:	687b      	ldr	r3, [r7, #4]
 8003578:	60fb      	str	r3, [r7, #12]

  /* Add a freq to guarantee minimum wait */
  if (wait < HAL_MAX_DELAY)
 800357a:	68fb      	ldr	r3, [r7, #12]
 800357c:	f1b3 3fff 	cmp.w	r3, #4294967295
 8003580:	d004      	beq.n	800358c <HAL_Delay+0x24>
  {
    wait += (uint32_t)(uwTickFreq);
 8003582:	4b09      	ldr	r3, [pc, #36]	@ (80035a8 <HAL_Delay+0x40>)
 8003584:	681b      	ldr	r3, [r3, #0]
 8003586:	68fa      	ldr	r2, [r7, #12]
 8003588:	4413      	add	r3, r2
 800358a:	60fb      	str	r3, [r7, #12]
  }

  while ((HAL_GetTick() - tickstart) < wait)
 800358c:	bf00      	nop
 800358e:	f7ff ffdf 	bl	8003550 <HAL_GetTick>
 8003592:	4602      	mov	r2, r0
 8003594:	68bb      	ldr	r3, [r7, #8]
 8003596:	1ad3      	subs	r3, r2, r3
 8003598:	68fa      	ldr	r2, [r7, #12]
 800359a:	429a      	cmp	r2, r3
 800359c:	d8f7      	bhi.n	800358e <HAL_Delay+0x26>
  {
  }
}
 800359e:	bf00      	nop
 80035a0:	bf00      	nop
 80035a2:	3710      	adds	r7, #16
 80035a4:	46bd      	mov	sp, r7
 80035a6:	bd80      	pop	{r7, pc}
 80035a8:	2000000c 	.word	0x2000000c

080035ac <LL_ADC_SetCommonClock>:
  *         @arg @ref LL_ADC_CLOCK_ASYNC_DIV128
  *         @arg @ref LL_ADC_CLOCK_ASYNC_DIV256
  * @retval None
  */
__STATIC_INLINE void LL_ADC_SetCommonClock(ADC_Common_TypeDef *ADCxy_COMMON, uint32_t CommonClock)
{
 80035ac:	b480      	push	{r7}
 80035ae:	b083      	sub	sp, #12
 80035b0:	af00      	add	r7, sp, #0
 80035b2:	6078      	str	r0, [r7, #4]
 80035b4:	6039      	str	r1, [r7, #0]
  MODIFY_REG(ADCxy_COMMON->CCR, ADC_CCR_CKMODE | ADC_CCR_PRESC, CommonClock);
 80035b6:	687b      	ldr	r3, [r7, #4]
 80035b8:	689b      	ldr	r3, [r3, #8]
 80035ba:	f423 127c 	bic.w	r2, r3, #4128768	@ 0x3f0000
 80035be:	683b      	ldr	r3, [r7, #0]
 80035c0:	431a      	orrs	r2, r3
 80035c2:	687b      	ldr	r3, [r7, #4]
 80035c4:	609a      	str	r2, [r3, #8]
}
 80035c6:	bf00      	nop
 80035c8:	370c      	adds	r7, #12
 80035ca:	46bd      	mov	sp, r7
 80035cc:	f85d 7b04 	ldr.w	r7, [sp], #4
 80035d0:	4770      	bx	lr

080035d2 <LL_ADC_SetCommonPathInternalCh>:
  *         @arg @ref LL_ADC_PATH_INTERNAL_TEMPSENSOR
  *         @arg @ref LL_ADC_PATH_INTERNAL_VBAT
  * @retval None
  */
__STATIC_INLINE void LL_ADC_SetCommonPathInternalCh(ADC_Common_TypeDef *ADCxy_COMMON, uint32_t PathInternal)
{
 80035d2:	b480      	push	{r7}
 80035d4:	b083      	sub	sp, #12
 80035d6:	af00      	add	r7, sp, #0
 80035d8:	6078      	str	r0, [r7, #4]
 80035da:	6039      	str	r1, [r7, #0]
  MODIFY_REG(ADCxy_COMMON->CCR, ADC_CCR_VREFEN | ADC_CCR_VSENSESEL | ADC_CCR_VBATSEL, PathInternal);
 80035dc:	687b      	ldr	r3, [r7, #4]
 80035de:	689b      	ldr	r3, [r3, #8]
 80035e0:	f023 72e0 	bic.w	r2, r3, #29360128	@ 0x1c00000
 80035e4:	683b      	ldr	r3, [r7, #0]
 80035e6:	431a      	orrs	r2, r3
 80035e8:	687b      	ldr	r3, [r7, #4]
 80035ea:	609a      	str	r2, [r3, #8]
}
 80035ec:	bf00      	nop
 80035ee:	370c      	adds	r7, #12
 80035f0:	46bd      	mov	sp, r7
 80035f2:	f85d 7b04 	ldr.w	r7, [sp], #4
 80035f6:	4770      	bx	lr

080035f8 <LL_ADC_GetCommonPathInternalCh>:
  *         @arg @ref LL_ADC_PATH_INTERNAL_VREFINT
  *         @arg @ref LL_ADC_PATH_INTERNAL_TEMPSENSOR
  *         @arg @ref LL_ADC_PATH_INTERNAL_VBAT
  */
__STATIC_INLINE uint32_t LL_ADC_GetCommonPathInternalCh(const ADC_Common_TypeDef *ADCxy_COMMON)
{
 80035f8:	b480      	push	{r7}
 80035fa:	b083      	sub	sp, #12
 80035fc:	af00      	add	r7, sp, #0
 80035fe:	6078      	str	r0, [r7, #4]
  return (uint32_t)(READ_BIT(ADCxy_COMMON->CCR, ADC_CCR_VREFEN | ADC_CCR_VSENSESEL | ADC_CCR_VBATSEL));
 8003600:	687b      	ldr	r3, [r7, #4]
 8003602:	689b      	ldr	r3, [r3, #8]
 8003604:	f003 73e0 	and.w	r3, r3, #29360128	@ 0x1c00000
}
 8003608:	4618      	mov	r0, r3
 800360a:	370c      	adds	r7, #12
 800360c:	46bd      	mov	sp, r7
 800360e:	f85d 7b04 	ldr.w	r7, [sp], #4
 8003612:	4770      	bx	lr

08003614 <LL_ADC_SetOffset>:
  *             (fADC) to convert in 12-bit resolution.\n
  * @param  OffsetLevel Value between Min_Data=0x000 and Max_Data=0xFFF
  * @retval None
  */
__STATIC_INLINE void LL_ADC_SetOffset(ADC_TypeDef *ADCx, uint32_t Offsety, uint32_t Channel, uint32_t OffsetLevel)
{
 8003614:	b480      	push	{r7}
 8003616:	b087      	sub	sp, #28
 8003618:	af00      	add	r7, sp, #0
 800361a:	60f8      	str	r0, [r7, #12]
 800361c:	60b9      	str	r1, [r7, #8]
 800361e:	607a      	str	r2, [r7, #4]
 8003620:	603b      	str	r3, [r7, #0]
  __IO uint32_t *preg = __ADC_PTR_REG_OFFSET(ADCx->OFR1, Offsety);
 8003622:	68fb      	ldr	r3, [r7, #12]
 8003624:	3360      	adds	r3, #96	@ 0x60
 8003626:	461a      	mov	r2, r3
 8003628:	68bb      	ldr	r3, [r7, #8]
 800362a:	009b      	lsls	r3, r3, #2
 800362c:	4413      	add	r3, r2
 800362e:	617b      	str	r3, [r7, #20]

  MODIFY_REG(*preg,
 8003630:	697b      	ldr	r3, [r7, #20]
 8003632:	681a      	ldr	r2, [r3, #0]
 8003634:	4b08      	ldr	r3, [pc, #32]	@ (8003658 <LL_ADC_SetOffset+0x44>)
 8003636:	4013      	ands	r3, r2
 8003638:	687a      	ldr	r2, [r7, #4]
 800363a:	f002 41f8 	and.w	r1, r2, #2080374784	@ 0x7c000000
 800363e:	683a      	ldr	r2, [r7, #0]
 8003640:	430a      	orrs	r2, r1
 8003642:	4313      	orrs	r3, r2
 8003644:	f043 4200 	orr.w	r2, r3, #2147483648	@ 0x80000000
 8003648:	697b      	ldr	r3, [r7, #20]
 800364a:	601a      	str	r2, [r3, #0]
             ADC_OFR1_OFFSET1_EN | ADC_OFR1_OFFSET1_CH | ADC_OFR1_OFFSET1,
             ADC_OFR1_OFFSET1_EN | (Channel & ADC_CHANNEL_ID_NUMBER_MASK) | OffsetLevel);
}
 800364c:	bf00      	nop
 800364e:	371c      	adds	r7, #28
 8003650:	46bd      	mov	sp, r7
 8003652:	f85d 7b04 	ldr.w	r7, [sp], #4
 8003656:	4770      	bx	lr
 8003658:	03fff000 	.word	0x03fff000

0800365c <LL_ADC_GetOffsetChannel>:
  *         (1, 2, 3, 4, 5, 7) For ADC channel read back from ADC register,
  *                      comparison with internal channel parameter to be done
  *                      using helper macro @ref __LL_ADC_CHANNEL_INTERNAL_TO_EXTERNAL().
  */
__STATIC_INLINE uint32_t LL_ADC_GetOffsetChannel(const ADC_TypeDef *ADCx, uint32_t Offsety)
{
 800365c:	b480      	push	{r7}
 800365e:	b085      	sub	sp, #20
 8003660:	af00      	add	r7, sp, #0
 8003662:	6078      	str	r0, [r7, #4]
 8003664:	6039      	str	r1, [r7, #0]
  const __IO uint32_t *preg = __ADC_PTR_REG_OFFSET(ADCx->OFR1, Offsety);
 8003666:	687b      	ldr	r3, [r7, #4]
 8003668:	3360      	adds	r3, #96	@ 0x60
 800366a:	461a      	mov	r2, r3
 800366c:	683b      	ldr	r3, [r7, #0]
 800366e:	009b      	lsls	r3, r3, #2
 8003670:	4413      	add	r3, r2
 8003672:	60fb      	str	r3, [r7, #12]

  return (uint32_t) READ_BIT(*preg, ADC_OFR1_OFFSET1_CH);
 8003674:	68fb      	ldr	r3, [r7, #12]
 8003676:	681b      	ldr	r3, [r3, #0]
 8003678:	f003 43f8 	and.w	r3, r3, #2080374784	@ 0x7c000000
}
 800367c:	4618      	mov	r0, r3
 800367e:	3714      	adds	r7, #20
 8003680:	46bd      	mov	sp, r7
 8003682:	f85d 7b04 	ldr.w	r7, [sp], #4
 8003686:	4770      	bx	lr

08003688 <LL_ADC_SetOffsetState>:
  *         @arg @ref LL_ADC_OFFSET_DISABLE
  *         @arg @ref LL_ADC_OFFSET_ENABLE
  * @retval None
  */
__STATIC_INLINE void LL_ADC_SetOffsetState(ADC_TypeDef *ADCx, uint32_t Offsety, uint32_t OffsetState)
{
 8003688:	b480      	push	{r7}
 800368a:	b087      	sub	sp, #28
 800368c:	af00      	add	r7, sp, #0
 800368e:	60f8      	str	r0, [r7, #12]
 8003690:	60b9      	str	r1, [r7, #8]
 8003692:	607a      	str	r2, [r7, #4]
  __IO uint32_t *preg = __ADC_PTR_REG_OFFSET(ADCx->OFR1, Offsety);
 8003694:	68fb      	ldr	r3, [r7, #12]
 8003696:	3360      	adds	r3, #96	@ 0x60
 8003698:	461a      	mov	r2, r3
 800369a:	68bb      	ldr	r3, [r7, #8]
 800369c:	009b      	lsls	r3, r3, #2
 800369e:	4413      	add	r3, r2
 80036a0:	617b      	str	r3, [r7, #20]

  MODIFY_REG(*preg,
 80036a2:	697b      	ldr	r3, [r7, #20]
 80036a4:	681b      	ldr	r3, [r3, #0]
 80036a6:	f023 4200 	bic.w	r2, r3, #2147483648	@ 0x80000000
 80036aa:	687b      	ldr	r3, [r7, #4]
 80036ac:	431a      	orrs	r2, r3
 80036ae:	697b      	ldr	r3, [r7, #20]
 80036b0:	601a      	str	r2, [r3, #0]
             ADC_OFR1_OFFSET1_EN,
             OffsetState);
}
 80036b2:	bf00      	nop
 80036b4:	371c      	adds	r7, #28
 80036b6:	46bd      	mov	sp, r7
 80036b8:	f85d 7b04 	ldr.w	r7, [sp], #4
 80036bc:	4770      	bx	lr

080036be <LL_ADC_SetOffsetSign>:
  *         @arg @ref LL_ADC_OFFSET_SIGN_NEGATIVE
  *         @arg @ref LL_ADC_OFFSET_SIGN_POSITIVE
  * @retval None
  */
__STATIC_INLINE void LL_ADC_SetOffsetSign(ADC_TypeDef *ADCx, uint32_t Offsety, uint32_t OffsetSign)
{
 80036be:	b480      	push	{r7}
 80036c0:	b087      	sub	sp, #28
 80036c2:	af00      	add	r7, sp, #0
 80036c4:	60f8      	str	r0, [r7, #12]
 80036c6:	60b9      	str	r1, [r7, #8]
 80036c8:	607a      	str	r2, [r7, #4]
  __IO uint32_t *preg = __ADC_PTR_REG_OFFSET(ADCx->OFR1, Offsety);
 80036ca:	68fb      	ldr	r3, [r7, #12]
 80036cc:	3360      	adds	r3, #96	@ 0x60
 80036ce:	461a      	mov	r2, r3
 80036d0:	68bb      	ldr	r3, [r7, #8]
 80036d2:	009b      	lsls	r3, r3, #2
 80036d4:	4413      	add	r3, r2
 80036d6:	617b      	str	r3, [r7, #20]

  MODIFY_REG(*preg,
 80036d8:	697b      	ldr	r3, [r7, #20]
 80036da:	681b      	ldr	r3, [r3, #0]
 80036dc:	f023 7280 	bic.w	r2, r3, #16777216	@ 0x1000000
 80036e0:	687b      	ldr	r3, [r7, #4]
 80036e2:	431a      	orrs	r2, r3
 80036e4:	697b      	ldr	r3, [r7, #20]
 80036e6:	601a      	str	r2, [r3, #0]
             ADC_OFR1_OFFSETPOS,
             OffsetSign);
}
 80036e8:	bf00      	nop
 80036ea:	371c      	adds	r7, #28
 80036ec:	46bd      	mov	sp, r7
 80036ee:	f85d 7b04 	ldr.w	r7, [sp], #4
 80036f2:	4770      	bx	lr

080036f4 <LL_ADC_SetOffsetSaturation>:
  *         @arg @ref LL_ADC_OFFSET_SATURATION_ENABLE
  *         @arg @ref LL_ADC_OFFSET_SATURATION_DISABLE
  * @retval None
  */
__STATIC_INLINE void LL_ADC_SetOffsetSaturation(ADC_TypeDef *ADCx, uint32_t Offsety, uint32_t OffsetSaturation)
{
 80036f4:	b480      	push	{r7}
 80036f6:	b087      	sub	sp, #28
 80036f8:	af00      	add	r7, sp, #0
 80036fa:	60f8      	str	r0, [r7, #12]
 80036fc:	60b9      	str	r1, [r7, #8]
 80036fe:	607a      	str	r2, [r7, #4]
  __IO uint32_t *preg = __ADC_PTR_REG_OFFSET(ADCx->OFR1, Offsety);
 8003700:	68fb      	ldr	r3, [r7, #12]
 8003702:	3360      	adds	r3, #96	@ 0x60
 8003704:	461a      	mov	r2, r3
 8003706:	68bb      	ldr	r3, [r7, #8]
 8003708:	009b      	lsls	r3, r3, #2
 800370a:	4413      	add	r3, r2
 800370c:	617b      	str	r3, [r7, #20]

  MODIFY_REG(*preg,
 800370e:	697b      	ldr	r3, [r7, #20]
 8003710:	681b      	ldr	r3, [r3, #0]
 8003712:	f023 7200 	bic.w	r2, r3, #33554432	@ 0x2000000
 8003716:	687b      	ldr	r3, [r7, #4]
 8003718:	431a      	orrs	r2, r3
 800371a:	697b      	ldr	r3, [r7, #20]
 800371c:	601a      	str	r2, [r3, #0]
             ADC_OFR1_SATEN,
             OffsetSaturation);
}
 800371e:	bf00      	nop
 8003720:	371c      	adds	r7, #28
 8003722:	46bd      	mov	sp, r7
 8003724:	f85d 7b04 	ldr.w	r7, [sp], #4
 8003728:	4770      	bx	lr

0800372a <LL_ADC_SetSamplingTimeCommonConfig>:
  *         @arg @ref LL_ADC_SAMPLINGTIME_COMMON_DEFAULT
  *         @arg @ref LL_ADC_SAMPLINGTIME_COMMON_3C5_REPL_2C5
  * @retval None
  */
__STATIC_INLINE void LL_ADC_SetSamplingTimeCommonConfig(ADC_TypeDef *ADCx, uint32_t SamplingTimeCommonConfig)
{
 800372a:	b480      	push	{r7}
 800372c:	b083      	sub	sp, #12
 800372e:	af00      	add	r7, sp, #0
 8003730:	6078      	str	r0, [r7, #4]
 8003732:	6039      	str	r1, [r7, #0]
  MODIFY_REG(ADCx->SMPR1, ADC_SMPR1_SMPPLUS, SamplingTimeCommonConfig);
 8003734:	687b      	ldr	r3, [r7, #4]
 8003736:	695b      	ldr	r3, [r3, #20]
 8003738:	f023 4200 	bic.w	r2, r3, #2147483648	@ 0x80000000
 800373c:	683b      	ldr	r3, [r7, #0]
 800373e:	431a      	orrs	r2, r3
 8003740:	687b      	ldr	r3, [r7, #4]
 8003742:	615a      	str	r2, [r3, #20]
}
 8003744:	bf00      	nop
 8003746:	370c      	adds	r7, #12
 8003748:	46bd      	mov	sp, r7
 800374a:	f85d 7b04 	ldr.w	r7, [sp], #4
 800374e:	4770      	bx	lr

08003750 <LL_ADC_REG_IsTriggerSourceSWStart>:
  * @param  ADCx ADC instance
  * @retval Value "0" if trigger source external trigger
  *         Value "1" if trigger source SW start.
  */
__STATIC_INLINE uint32_t LL_ADC_REG_IsTriggerSourceSWStart(const ADC_TypeDef *ADCx)
{
 8003750:	b480      	push	{r7}
 8003752:	b083      	sub	sp, #12
 8003754:	af00      	add	r7, sp, #0
 8003756:	6078      	str	r0, [r7, #4]
  return ((READ_BIT(ADCx->CFGR, ADC_CFGR_EXTEN) == (LL_ADC_REG_TRIG_SOFTWARE & ADC_CFGR_EXTEN)) ? 1UL : 0UL);
 8003758:	687b      	ldr	r3, [r7, #4]
 800375a:	68db      	ldr	r3, [r3, #12]
 800375c:	f403 6340 	and.w	r3, r3, #3072	@ 0xc00
 8003760:	2b00      	cmp	r3, #0
 8003762:	d101      	bne.n	8003768 <LL_ADC_REG_IsTriggerSourceSWStart+0x18>
 8003764:	2301      	movs	r3, #1
 8003766:	e000      	b.n	800376a <LL_ADC_REG_IsTriggerSourceSWStart+0x1a>
 8003768:	2300      	movs	r3, #0
}
 800376a:	4618      	mov	r0, r3
 800376c:	370c      	adds	r7, #12
 800376e:	46bd      	mov	sp, r7
 8003770:	f85d 7b04 	ldr.w	r7, [sp], #4
 8003774:	4770      	bx	lr

08003776 <LL_ADC_REG_SetSequencerRanks>:
  *             Other channels are slow channels  allows: 6.5 (sampling) + 12.5 (conversion) = 19 ADC clock cycles
  *             (fADC) to convert in 12-bit resolution.\n
  * @retval None
  */
__STATIC_INLINE void LL_ADC_REG_SetSequencerRanks(ADC_TypeDef *ADCx, uint32_t Rank, uint32_t Channel)
{
 8003776:	b480      	push	{r7}
 8003778:	b087      	sub	sp, #28
 800377a:	af00      	add	r7, sp, #0
 800377c:	60f8      	str	r0, [r7, #12]
 800377e:	60b9      	str	r1, [r7, #8]
 8003780:	607a      	str	r2, [r7, #4]
  /* Set bits with content of parameter "Channel" with bits position          */
  /* in register and register position depending on parameter "Rank".         */
  /* Parameters "Rank" and "Channel" are used with masks because containing   */
  /* other bits reserved for other purpose.                                   */
  __IO uint32_t *preg = __ADC_PTR_REG_OFFSET(ADCx->SQR1,
 8003782:	68fb      	ldr	r3, [r7, #12]
 8003784:	3330      	adds	r3, #48	@ 0x30
 8003786:	461a      	mov	r2, r3
 8003788:	68bb      	ldr	r3, [r7, #8]
 800378a:	0a1b      	lsrs	r3, r3, #8
 800378c:	009b      	lsls	r3, r3, #2
 800378e:	f003 030c 	and.w	r3, r3, #12
 8003792:	4413      	add	r3, r2
 8003794:	617b      	str	r3, [r7, #20]
                                             ((Rank & ADC_REG_SQRX_REGOFFSET_MASK) >> ADC_SQRX_REGOFFSET_POS));

  MODIFY_REG(*preg,
 8003796:	697b      	ldr	r3, [r7, #20]
 8003798:	681a      	ldr	r2, [r3, #0]
 800379a:	68bb      	ldr	r3, [r7, #8]
 800379c:	f003 031f 	and.w	r3, r3, #31
 80037a0:	211f      	movs	r1, #31
 80037a2:	fa01 f303 	lsl.w	r3, r1, r3
 80037a6:	43db      	mvns	r3, r3
 80037a8:	401a      	ands	r2, r3
 80037aa:	687b      	ldr	r3, [r7, #4]
 80037ac:	0e9b      	lsrs	r3, r3, #26
 80037ae:	f003 011f 	and.w	r1, r3, #31
 80037b2:	68bb      	ldr	r3, [r7, #8]
 80037b4:	f003 031f 	and.w	r3, r3, #31
 80037b8:	fa01 f303 	lsl.w	r3, r1, r3
 80037bc:	431a      	orrs	r2, r3
 80037be:	697b      	ldr	r3, [r7, #20]
 80037c0:	601a      	str	r2, [r3, #0]
             ADC_CHANNEL_ID_NUMBER_MASK_POSBIT0 << (Rank & ADC_REG_RANK_ID_SQRX_MASK),
             ((Channel & ADC_CHANNEL_ID_NUMBER_MASK) >> ADC_CHANNEL_ID_NUMBER_BITOFFSET_POS)
             << (Rank & ADC_REG_RANK_ID_SQRX_MASK));
}
 80037c2:	bf00      	nop
 80037c4:	371c      	adds	r7, #28
 80037c6:	46bd      	mov	sp, r7
 80037c8:	f85d 7b04 	ldr.w	r7, [sp], #4
 80037cc:	4770      	bx	lr

080037ce <LL_ADC_SetChannelSamplingTime>:
  *             can be replaced by 3.5 ADC clock cycles.
  *             Refer to function @ref LL_ADC_SetSamplingTimeCommonConfig().
  * @retval None
  */
__STATIC_INLINE void LL_ADC_SetChannelSamplingTime(ADC_TypeDef *ADCx, uint32_t Channel, uint32_t SamplingTime)
{
 80037ce:	b480      	push	{r7}
 80037d0:	b087      	sub	sp, #28
 80037d2:	af00      	add	r7, sp, #0
 80037d4:	60f8      	str	r0, [r7, #12]
 80037d6:	60b9      	str	r1, [r7, #8]
 80037d8:	607a      	str	r2, [r7, #4]
  /* Set bits with content of parameter "SamplingTime" with bits position     */
  /* in register and register position depending on parameter "Channel".      */
  /* Parameter "Channel" is used with masks because containing                */
  /* other bits reserved for other purpose.                                   */
  __IO uint32_t *preg = __ADC_PTR_REG_OFFSET(ADCx->SMPR1,
 80037da:	68fb      	ldr	r3, [r7, #12]
 80037dc:	3314      	adds	r3, #20
 80037de:	461a      	mov	r2, r3
 80037e0:	68bb      	ldr	r3, [r7, #8]
 80037e2:	0e5b      	lsrs	r3, r3, #25
 80037e4:	009b      	lsls	r3, r3, #2
 80037e6:	f003 0304 	and.w	r3, r3, #4
 80037ea:	4413      	add	r3, r2
 80037ec:	617b      	str	r3, [r7, #20]
                                             ((Channel & ADC_CHANNEL_SMPRX_REGOFFSET_MASK) >> ADC_SMPRX_REGOFFSET_POS));

  MODIFY_REG(*preg,
 80037ee:	697b      	ldr	r3, [r7, #20]
 80037f0:	681a      	ldr	r2, [r3, #0]
 80037f2:	68bb      	ldr	r3, [r7, #8]
 80037f4:	0d1b      	lsrs	r3, r3, #20
 80037f6:	f003 031f 	and.w	r3, r3, #31
 80037fa:	2107      	movs	r1, #7
 80037fc:	fa01 f303 	lsl.w	r3, r1, r3
 8003800:	43db      	mvns	r3, r3
 8003802:	401a      	ands	r2, r3
 8003804:	68bb      	ldr	r3, [r7, #8]
 8003806:	0d1b      	lsrs	r3, r3, #20
 8003808:	f003 031f 	and.w	r3, r3, #31
 800380c:	6879      	ldr	r1, [r7, #4]
 800380e:	fa01 f303 	lsl.w	r3, r1, r3
 8003812:	431a      	orrs	r2, r3
 8003814:	697b      	ldr	r3, [r7, #20]
 8003816:	601a      	str	r2, [r3, #0]
             ADC_SMPR1_SMP0 << ((Channel & ADC_CHANNEL_SMPx_BITOFFSET_MASK) >> ADC_CHANNEL_SMPx_BITOFFSET_POS),
             SamplingTime   << ((Channel & ADC_CHANNEL_SMPx_BITOFFSET_MASK) >> ADC_CHANNEL_SMPx_BITOFFSET_POS));
}
 8003818:	bf00      	nop
 800381a:	371c      	adds	r7, #28
 800381c:	46bd      	mov	sp, r7
 800381e:	f85d 7b04 	ldr.w	r7, [sp], #4
 8003822:	4770      	bx	lr

08003824 <LL_ADC_SetChannelSingleDiff>:
  *         @arg @ref LL_ADC_SINGLE_ENDED
  *         @arg @ref LL_ADC_DIFFERENTIAL_ENDED
  * @retval None
  */
__STATIC_INLINE void LL_ADC_SetChannelSingleDiff(ADC_TypeDef *ADCx, uint32_t Channel, uint32_t SingleDiff)
{
 8003824:	b480      	push	{r7}
 8003826:	b085      	sub	sp, #20
 8003828:	af00      	add	r7, sp, #0
 800382a:	60f8      	str	r0, [r7, #12]
 800382c:	60b9      	str	r1, [r7, #8]
 800382e:	607a      	str	r2, [r7, #4]
  /* Bits of channels in single or differential mode are set only for         */
  /* differential mode (for single mode, mask of bits allowed to be set is    */
  /* shifted out of range of bits of channels in single or differential mode. */
  MODIFY_REG(ADCx->DIFSEL,
 8003830:	68fb      	ldr	r3, [r7, #12]
 8003832:	f8d3 20b0 	ldr.w	r2, [r3, #176]	@ 0xb0
 8003836:	68bb      	ldr	r3, [r7, #8]
 8003838:	f3c3 0312 	ubfx	r3, r3, #0, #19
 800383c:	43db      	mvns	r3, r3
 800383e:	401a      	ands	r2, r3
 8003840:	687b      	ldr	r3, [r7, #4]
 8003842:	f003 0318 	and.w	r3, r3, #24
 8003846:	4908      	ldr	r1, [pc, #32]	@ (8003868 <LL_ADC_SetChannelSingleDiff+0x44>)
 8003848:	40d9      	lsrs	r1, r3
 800384a:	68bb      	ldr	r3, [r7, #8]
 800384c:	400b      	ands	r3, r1
 800384e:	f3c3 0312 	ubfx	r3, r3, #0, #19
 8003852:	431a      	orrs	r2, r3
 8003854:	68fb      	ldr	r3, [r7, #12]
 8003856:	f8c3 20b0 	str.w	r2, [r3, #176]	@ 0xb0
             Channel & ADC_SINGLEDIFF_CHANNEL_MASK,
             (Channel & ADC_SINGLEDIFF_CHANNEL_MASK)
             & (ADC_DIFSEL_DIFSEL >> (SingleDiff & ADC_SINGLEDIFF_CHANNEL_SHIFT_MASK)));
}
 800385a:	bf00      	nop
 800385c:	3714      	adds	r7, #20
 800385e:	46bd      	mov	sp, r7
 8003860:	f85d 7b04 	ldr.w	r7, [sp], #4
 8003864:	4770      	bx	lr
 8003866:	bf00      	nop
 8003868:	0007ffff 	.word	0x0007ffff

0800386c <LL_ADC_GetMultimode>:
  *         @arg @ref LL_ADC_MULTI_DUAL_REG_SIM_INJ_SIM
  *         @arg @ref LL_ADC_MULTI_DUAL_REG_SIM_INJ_ALT
  *         @arg @ref LL_ADC_MULTI_DUAL_REG_INT_INJ_SIM
  */
__STATIC_INLINE uint32_t LL_ADC_GetMultimode(const ADC_Common_TypeDef *ADCxy_COMMON)
{
 800386c:	b480      	push	{r7}
 800386e:	b083      	sub	sp, #12
 8003870:	af00      	add	r7, sp, #0
 8003872:	6078      	str	r0, [r7, #4]
  return (uint32_t)(READ_BIT(ADCxy_COMMON->CCR, ADC_CCR_DUAL));
 8003874:	687b      	ldr	r3, [r7, #4]
 8003876:	689b      	ldr	r3, [r3, #8]
 8003878:	f003 031f 	and.w	r3, r3, #31
}
 800387c:	4618      	mov	r0, r3
 800387e:	370c      	adds	r7, #12
 8003880:	46bd      	mov	sp, r7
 8003882:	f85d 7b04 	ldr.w	r7, [sp], #4
 8003886:	4770      	bx	lr

08003888 <LL_ADC_DisableDeepPowerDown>:
  * @rmtoll CR       DEEPPWD        LL_ADC_DisableDeepPowerDown
  * @param  ADCx ADC instance
  * @retval None
  */
__STATIC_INLINE void LL_ADC_DisableDeepPowerDown(ADC_TypeDef *ADCx)
{
 8003888:	b480      	push	{r7}
 800388a:	b083      	sub	sp, #12
 800388c:	af00      	add	r7, sp, #0
 800388e:	6078      	str	r0, [r7, #4]
  /* Note: Write register with some additional bits forced to state reset     */
  /*       instead of modifying only the selected bit for this function,      */
  /*       to not interfere with bits with HW property "rs".                  */
  CLEAR_BIT(ADCx->CR, (ADC_CR_DEEPPWD | ADC_CR_BITS_PROPERTY_RS));
 8003890:	687b      	ldr	r3, [r7, #4]
 8003892:	689b      	ldr	r3, [r3, #8]
 8003894:	f023 4320 	bic.w	r3, r3, #2684354560	@ 0xa0000000
 8003898:	f023 033f 	bic.w	r3, r3, #63	@ 0x3f
 800389c:	687a      	ldr	r2, [r7, #4]
 800389e:	6093      	str	r3, [r2, #8]
}
 80038a0:	bf00      	nop
 80038a2:	370c      	adds	r7, #12
 80038a4:	46bd      	mov	sp, r7
 80038a6:	f85d 7b04 	ldr.w	r7, [sp], #4
 80038aa:	4770      	bx	lr

080038ac <LL_ADC_IsDeepPowerDownEnabled>:
  * @rmtoll CR       DEEPPWD        LL_ADC_IsDeepPowerDownEnabled
  * @param  ADCx ADC instance
  * @retval 0: deep power down is disabled, 1: deep power down is enabled.
  */
__STATIC_INLINE uint32_t LL_ADC_IsDeepPowerDownEnabled(const ADC_TypeDef *ADCx)
{
 80038ac:	b480      	push	{r7}
 80038ae:	b083      	sub	sp, #12
 80038b0:	af00      	add	r7, sp, #0
 80038b2:	6078      	str	r0, [r7, #4]
  return ((READ_BIT(ADCx->CR, ADC_CR_DEEPPWD) == (ADC_CR_DEEPPWD)) ? 1UL : 0UL);
 80038b4:	687b      	ldr	r3, [r7, #4]
 80038b6:	689b      	ldr	r3, [r3, #8]
 80038b8:	f003 5300 	and.w	r3, r3, #536870912	@ 0x20000000
 80038bc:	f1b3 5f00 	cmp.w	r3, #536870912	@ 0x20000000
 80038c0:	d101      	bne.n	80038c6 <LL_ADC_IsDeepPowerDownEnabled+0x1a>
 80038c2:	2301      	movs	r3, #1
 80038c4:	e000      	b.n	80038c8 <LL_ADC_IsDeepPowerDownEnabled+0x1c>
 80038c6:	2300      	movs	r3, #0
}
 80038c8:	4618      	mov	r0, r3
 80038ca:	370c      	adds	r7, #12
 80038cc:	46bd      	mov	sp, r7
 80038ce:	f85d 7b04 	ldr.w	r7, [sp], #4
 80038d2:	4770      	bx	lr

080038d4 <LL_ADC_EnableInternalRegulator>:
  * @rmtoll CR       ADVREGEN       LL_ADC_EnableInternalRegulator
  * @param  ADCx ADC instance
  * @retval None
  */
__STATIC_INLINE void LL_ADC_EnableInternalRegulator(ADC_TypeDef *ADCx)
{
 80038d4:	b480      	push	{r7}
 80038d6:	b083      	sub	sp, #12
 80038d8:	af00      	add	r7, sp, #0
 80038da:	6078      	str	r0, [r7, #4]
  /* Note: Write register with some additional bits forced to state reset     */
  /*       instead of modifying only the selected bit for this function,      */
  /*       to not interfere with bits with HW property "rs".                  */
  MODIFY_REG(ADCx->CR,
 80038dc:	687b      	ldr	r3, [r7, #4]
 80038de:	689b      	ldr	r3, [r3, #8]
 80038e0:	f023 4310 	bic.w	r3, r3, #2415919104	@ 0x90000000
 80038e4:	f023 033f 	bic.w	r3, r3, #63	@ 0x3f
 80038e8:	f043 5280 	orr.w	r2, r3, #268435456	@ 0x10000000
 80038ec:	687b      	ldr	r3, [r7, #4]
 80038ee:	609a      	str	r2, [r3, #8]
             ADC_CR_BITS_PROPERTY_RS,
             ADC_CR_ADVREGEN);
}
 80038f0:	bf00      	nop
 80038f2:	370c      	adds	r7, #12
 80038f4:	46bd      	mov	sp, r7
 80038f6:	f85d 7b04 	ldr.w	r7, [sp], #4
 80038fa:	4770      	bx	lr

080038fc <LL_ADC_IsInternalRegulatorEnabled>:
  * @rmtoll CR       ADVREGEN       LL_ADC_IsInternalRegulatorEnabled
  * @param  ADCx ADC instance
  * @retval 0: internal regulator is disabled, 1: internal regulator is enabled.
  */
__STATIC_INLINE uint32_t LL_ADC_IsInternalRegulatorEnabled(const ADC_TypeDef *ADCx)
{
 80038fc:	b480      	push	{r7}
 80038fe:	b083      	sub	sp, #12
 8003900:	af00      	add	r7, sp, #0
 8003902:	6078      	str	r0, [r7, #4]
  return ((READ_BIT(ADCx->CR, ADC_CR_ADVREGEN) == (ADC_CR_ADVREGEN)) ? 1UL : 0UL);
 8003904:	687b      	ldr	r3, [r7, #4]
 8003906:	689b      	ldr	r3, [r3, #8]
 8003908:	f003 5380 	and.w	r3, r3, #268435456	@ 0x10000000
 800390c:	f1b3 5f80 	cmp.w	r3, #268435456	@ 0x10000000
 8003910:	d101      	bne.n	8003916 <LL_ADC_IsInternalRegulatorEnabled+0x1a>
 8003912:	2301      	movs	r3, #1
 8003914:	e000      	b.n	8003918 <LL_ADC_IsInternalRegulatorEnabled+0x1c>
 8003916:	2300      	movs	r3, #0
}
 8003918:	4618      	mov	r0, r3
 800391a:	370c      	adds	r7, #12
 800391c:	46bd      	mov	sp, r7
 800391e:	f85d 7b04 	ldr.w	r7, [sp], #4
 8003922:	4770      	bx	lr

08003924 <LL_ADC_Enable>:
  * @rmtoll CR       ADEN           LL_ADC_Enable
  * @param  ADCx ADC instance
  * @retval None
  */
__STATIC_INLINE void LL_ADC_Enable(ADC_TypeDef *ADCx)
{
 8003924:	b480      	push	{r7}
 8003926:	b083      	sub	sp, #12
 8003928:	af00      	add	r7, sp, #0
 800392a:	6078      	str	r0, [r7, #4]
  /* Note: Write register with some additional bits forced to state reset     */
  /*       instead of modifying only the selected bit for this function,      */
  /*       to not interfere with bits with HW property "rs".                  */
  MODIFY_REG(ADCx->CR,
 800392c:	687b      	ldr	r3, [r7, #4]
 800392e:	689b      	ldr	r3, [r3, #8]
 8003930:	f023 4300 	bic.w	r3, r3, #2147483648	@ 0x80000000
 8003934:	f023 033f 	bic.w	r3, r3, #63	@ 0x3f
 8003938:	f043 0201 	orr.w	r2, r3, #1
 800393c:	687b      	ldr	r3, [r7, #4]
 800393e:	609a      	str	r2, [r3, #8]
             ADC_CR_BITS_PROPERTY_RS,
             ADC_CR_ADEN);
}
 8003940:	bf00      	nop
 8003942:	370c      	adds	r7, #12
 8003944:	46bd      	mov	sp, r7
 8003946:	f85d 7b04 	ldr.w	r7, [sp], #4
 800394a:	4770      	bx	lr

0800394c <LL_ADC_Disable>:
  * @rmtoll CR       ADDIS          LL_ADC_Disable
  * @param  ADCx ADC instance
  * @retval None
  */
__STATIC_INLINE void LL_ADC_Disable(ADC_TypeDef *ADCx)
{
 800394c:	b480      	push	{r7}
 800394e:	b083      	sub	sp, #12
 8003950:	af00      	add	r7, sp, #0
 8003952:	6078      	str	r0, [r7, #4]
  /* Note: Write register with some additional bits forced to state reset     */
  /*       instead of modifying only the selected bit for this function,      */
  /*       to not interfere with bits with HW property "rs".                  */
  MODIFY_REG(ADCx->CR,
 8003954:	687b      	ldr	r3, [r7, #4]
 8003956:	689b      	ldr	r3, [r3, #8]
 8003958:	f023 4300 	bic.w	r3, r3, #2147483648	@ 0x80000000
 800395c:	f023 033f 	bic.w	r3, r3, #63	@ 0x3f
 8003960:	f043 0202 	orr.w	r2, r3, #2
 8003964:	687b      	ldr	r3, [r7, #4]
 8003966:	609a      	str	r2, [r3, #8]
             ADC_CR_BITS_PROPERTY_RS,
             ADC_CR_ADDIS);
}
 8003968:	bf00      	nop
 800396a:	370c      	adds	r7, #12
 800396c:	46bd      	mov	sp, r7
 800396e:	f85d 7b04 	ldr.w	r7, [sp], #4
 8003972:	4770      	bx	lr

08003974 <LL_ADC_IsEnabled>:
  * @rmtoll CR       ADEN           LL_ADC_IsEnabled
  * @param  ADCx ADC instance
  * @retval 0: ADC is disabled, 1: ADC is enabled.
  */
__STATIC_INLINE uint32_t LL_ADC_IsEnabled(const ADC_TypeDef *ADCx)
{
 8003974:	b480      	push	{r7}
 8003976:	b083      	sub	sp, #12
 8003978:	af00      	add	r7, sp, #0
 800397a:	6078      	str	r0, [r7, #4]
  return ((READ_BIT(ADCx->CR, ADC_CR_ADEN) == (ADC_CR_ADEN)) ? 1UL : 0UL);
 800397c:	687b      	ldr	r3, [r7, #4]
 800397e:	689b      	ldr	r3, [r3, #8]
 8003980:	f003 0301 	and.w	r3, r3, #1
 8003984:	2b01      	cmp	r3, #1
 8003986:	d101      	bne.n	800398c <LL_ADC_IsEnabled+0x18>
 8003988:	2301      	movs	r3, #1
 800398a:	e000      	b.n	800398e <LL_ADC_IsEnabled+0x1a>
 800398c:	2300      	movs	r3, #0
}
 800398e:	4618      	mov	r0, r3
 8003990:	370c      	adds	r7, #12
 8003992:	46bd      	mov	sp, r7
 8003994:	f85d 7b04 	ldr.w	r7, [sp], #4
 8003998:	4770      	bx	lr

0800399a <LL_ADC_IsDisableOngoing>:
  * @rmtoll CR       ADDIS          LL_ADC_IsDisableOngoing
  * @param  ADCx ADC instance
  * @retval 0: no ADC disable command on going.
  */
__STATIC_INLINE uint32_t LL_ADC_IsDisableOngoing(const ADC_TypeDef *ADCx)
{
 800399a:	b480      	push	{r7}
 800399c:	b083      	sub	sp, #12
 800399e:	af00      	add	r7, sp, #0
 80039a0:	6078      	str	r0, [r7, #4]
  return ((READ_BIT(ADCx->CR, ADC_CR_ADDIS) == (ADC_CR_ADDIS)) ? 1UL : 0UL);
 80039a2:	687b      	ldr	r3, [r7, #4]
 80039a4:	689b      	ldr	r3, [r3, #8]
 80039a6:	f003 0302 	and.w	r3, r3, #2
 80039aa:	2b02      	cmp	r3, #2
 80039ac:	d101      	bne.n	80039b2 <LL_ADC_IsDisableOngoing+0x18>
 80039ae:	2301      	movs	r3, #1
 80039b0:	e000      	b.n	80039b4 <LL_ADC_IsDisableOngoing+0x1a>
 80039b2:	2300      	movs	r3, #0
}
 80039b4:	4618      	mov	r0, r3
 80039b6:	370c      	adds	r7, #12
 80039b8:	46bd      	mov	sp, r7
 80039ba:	f85d 7b04 	ldr.w	r7, [sp], #4
 80039be:	4770      	bx	lr

080039c0 <LL_ADC_REG_StartConversion>:
  * @rmtoll CR       ADSTART        LL_ADC_REG_StartConversion
  * @param  ADCx ADC instance
  * @retval None
  */
__STATIC_INLINE void LL_ADC_REG_StartConversion(ADC_TypeDef *ADCx)
{
 80039c0:	b480      	push	{r7}
 80039c2:	b083      	sub	sp, #12
 80039c4:	af00      	add	r7, sp, #0
 80039c6:	6078      	str	r0, [r7, #4]
  /* Note: Write register with some additional bits forced to state reset     */
  /*       instead of modifying only the selected bit for this function,      */
  /*       to not interfere with bits with HW property "rs".                  */
  MODIFY_REG(ADCx->CR,
 80039c8:	687b      	ldr	r3, [r7, #4]
 80039ca:	689b      	ldr	r3, [r3, #8]
 80039cc:	f023 4300 	bic.w	r3, r3, #2147483648	@ 0x80000000
 80039d0:	f023 033f 	bic.w	r3, r3, #63	@ 0x3f
 80039d4:	f043 0204 	orr.w	r2, r3, #4
 80039d8:	687b      	ldr	r3, [r7, #4]
 80039da:	609a      	str	r2, [r3, #8]
             ADC_CR_BITS_PROPERTY_RS,
             ADC_CR_ADSTART);
}
 80039dc:	bf00      	nop
 80039de:	370c      	adds	r7, #12
 80039e0:	46bd      	mov	sp, r7
 80039e2:	f85d 7b04 	ldr.w	r7, [sp], #4
 80039e6:	4770      	bx	lr

080039e8 <LL_ADC_REG_IsConversionOngoing>:
  * @rmtoll CR       ADSTART        LL_ADC_REG_IsConversionOngoing
  * @param  ADCx ADC instance
  * @retval 0: no conversion is on going on ADC group regular.
  */
__STATIC_INLINE uint32_t LL_ADC_REG_IsConversionOngoing(const ADC_TypeDef *ADCx)
{
 80039e8:	b480      	push	{r7}
 80039ea:	b083      	sub	sp, #12
 80039ec:	af00      	add	r7, sp, #0
 80039ee:	6078      	str	r0, [r7, #4]
  return ((READ_BIT(ADCx->CR, ADC_CR_ADSTART) == (ADC_CR_ADSTART)) ? 1UL : 0UL);
 80039f0:	687b      	ldr	r3, [r7, #4]
 80039f2:	689b      	ldr	r3, [r3, #8]
 80039f4:	f003 0304 	and.w	r3, r3, #4
 80039f8:	2b04      	cmp	r3, #4
 80039fa:	d101      	bne.n	8003a00 <LL_ADC_REG_IsConversionOngoing+0x18>
 80039fc:	2301      	movs	r3, #1
 80039fe:	e000      	b.n	8003a02 <LL_ADC_REG_IsConversionOngoing+0x1a>
 8003a00:	2300      	movs	r3, #0
}
 8003a02:	4618      	mov	r0, r3
 8003a04:	370c      	adds	r7, #12
 8003a06:	46bd      	mov	sp, r7
 8003a08:	f85d 7b04 	ldr.w	r7, [sp], #4
 8003a0c:	4770      	bx	lr

08003a0e <LL_ADC_INJ_IsConversionOngoing>:
  * @rmtoll CR       JADSTART       LL_ADC_INJ_IsConversionOngoing
  * @param  ADCx ADC instance
  * @retval 0: no conversion is on going on ADC group injected.
  */
__STATIC_INLINE uint32_t LL_ADC_INJ_IsConversionOngoing(const ADC_TypeDef *ADCx)
{
 8003a0e:	b480      	push	{r7}
 8003a10:	b083      	sub	sp, #12
 8003a12:	af00      	add	r7, sp, #0
 8003a14:	6078      	str	r0, [r7, #4]
  return ((READ_BIT(ADCx->CR, ADC_CR_JADSTART) == (ADC_CR_JADSTART)) ? 1UL : 0UL);
 8003a16:	687b      	ldr	r3, [r7, #4]
 8003a18:	689b      	ldr	r3, [r3, #8]
 8003a1a:	f003 0308 	and.w	r3, r3, #8
 8003a1e:	2b08      	cmp	r3, #8
 8003a20:	d101      	bne.n	8003a26 <LL_ADC_INJ_IsConversionOngoing+0x18>
 8003a22:	2301      	movs	r3, #1
 8003a24:	e000      	b.n	8003a28 <LL_ADC_INJ_IsConversionOngoing+0x1a>
 8003a26:	2300      	movs	r3, #0
}
 8003a28:	4618      	mov	r0, r3
 8003a2a:	370c      	adds	r7, #12
 8003a2c:	46bd      	mov	sp, r7
 8003a2e:	f85d 7b04 	ldr.w	r7, [sp], #4
 8003a32:	4770      	bx	lr

08003a34 <HAL_ADC_Init>:
  *         without  disabling the other ADCs.
  * @param hadc ADC handle
  * @retval HAL status
  */
HAL_StatusTypeDef HAL_ADC_Init(ADC_HandleTypeDef *hadc)
{
 8003a34:	b590      	push	{r4, r7, lr}
 8003a36:	b089      	sub	sp, #36	@ 0x24
 8003a38:	af00      	add	r7, sp, #0
 8003a3a:	6078      	str	r0, [r7, #4]
  HAL_StatusTypeDef tmp_hal_status = HAL_OK;
 8003a3c:	2300      	movs	r3, #0
 8003a3e:	77fb      	strb	r3, [r7, #31]
  uint32_t tmp_cfgr;
  uint32_t tmp_adc_is_conversion_on_going_regular;
  uint32_t tmp_adc_is_conversion_on_going_injected;
  __IO uint32_t wait_loop_index = 0UL;
 8003a40:	2300      	movs	r3, #0
 8003a42:	60fb      	str	r3, [r7, #12]

  /* Check ADC handle */
  if (hadc == NULL)
 8003a44:	687b      	ldr	r3, [r7, #4]
 8003a46:	2b00      	cmp	r3, #0
 8003a48:	d101      	bne.n	8003a4e <HAL_ADC_Init+0x1a>
  {
    return HAL_ERROR;
 8003a4a:	2301      	movs	r3, #1
 8003a4c:	e167      	b.n	8003d1e <HAL_ADC_Init+0x2ea>
  assert_param(IS_ADC_EOC_SELECTION(hadc->Init.EOCSelection));
  assert_param(IS_ADC_OVERRUN(hadc->Init.Overrun));
  assert_param(IS_FUNCTIONAL_STATE(hadc->Init.LowPowerAutoWait));
  assert_param(IS_FUNCTIONAL_STATE(hadc->Init.OversamplingMode));

  if (hadc->Init.ScanConvMode != ADC_SCAN_DISABLE)
 8003a4e:	687b      	ldr	r3, [r7, #4]
 8003a50:	695b      	ldr	r3, [r3, #20]
 8003a52:	2b00      	cmp	r3, #0
  /* DISCEN and CONT bits cannot be set at the same time */
  assert_param(!((hadc->Init.DiscontinuousConvMode == ENABLE) && (hadc->Init.ContinuousConvMode == ENABLE)));

  /* Actions performed only if ADC is coming from state reset:                */
  /* - Initialization of ADC MSP                                              */
  if (hadc->State == HAL_ADC_STATE_RESET)
 8003a54:	687b      	ldr	r3, [r7, #4]
 8003a56:	6ddb      	ldr	r3, [r3, #92]	@ 0x5c
 8003a58:	2b00      	cmp	r3, #0
 8003a5a:	d109      	bne.n	8003a70 <HAL_ADC_Init+0x3c>

    /* Init the low level hardware */
    hadc->MspInitCallback(hadc);
#else
    /* Init the low level hardware */
    HAL_ADC_MspInit(hadc);
 8003a5c:	6878      	ldr	r0, [r7, #4]
 8003a5e:	f7ff f9cf 	bl	8002e00 <HAL_ADC_MspInit>
#endif /* USE_HAL_ADC_REGISTER_CALLBACKS */

    /* Set ADC error code to none */
    ADC_CLEAR_ERRORCODE(hadc);
 8003a62:	687b      	ldr	r3, [r7, #4]
 8003a64:	2200      	movs	r2, #0
 8003a66:	661a      	str	r2, [r3, #96]	@ 0x60

    /* Initialize Lock */
    hadc->Lock = HAL_UNLOCKED;
 8003a68:	687b      	ldr	r3, [r7, #4]
 8003a6a:	2200      	movs	r2, #0
 8003a6c:	f883 2058 	strb.w	r2, [r3, #88]	@ 0x58
  }

  /* - Exit from deep-power-down mode and ADC voltage regulator enable        */
  if (LL_ADC_IsDeepPowerDownEnabled(hadc->Instance) != 0UL)
 8003a70:	687b      	ldr	r3, [r7, #4]
 8003a72:	681b      	ldr	r3, [r3, #0]
 8003a74:	4618      	mov	r0, r3
 8003a76:	f7ff ff19 	bl	80038ac <LL_ADC_IsDeepPowerDownEnabled>
 8003a7a:	4603      	mov	r3, r0
 8003a7c:	2b00      	cmp	r3, #0
 8003a7e:	d004      	beq.n	8003a8a <HAL_ADC_Init+0x56>
  {
    /* Disable ADC deep power down mode */
    LL_ADC_DisableDeepPowerDown(hadc->Instance);
 8003a80:	687b      	ldr	r3, [r7, #4]
 8003a82:	681b      	ldr	r3, [r3, #0]
 8003a84:	4618      	mov	r0, r3
 8003a86:	f7ff feff 	bl	8003888 <LL_ADC_DisableDeepPowerDown>
    /* System was in deep power down mode, calibration must
     be relaunched or a previously saved calibration factor
     re-applied once the ADC voltage regulator is enabled */
  }

  if (LL_ADC_IsInternalRegulatorEnabled(hadc->Instance) == 0UL)
 8003a8a:	687b      	ldr	r3, [r7, #4]
 8003a8c:	681b      	ldr	r3, [r3, #0]
 8003a8e:	4618      	mov	r0, r3
 8003a90:	f7ff ff34 	bl	80038fc <LL_ADC_IsInternalRegulatorEnabled>
 8003a94:	4603      	mov	r3, r0
 8003a96:	2b00      	cmp	r3, #0
 8003a98:	d115      	bne.n	8003ac6 <HAL_ADC_Init+0x92>
  {
    /* Enable ADC internal voltage regulator */
    LL_ADC_EnableInternalRegulator(hadc->Instance);
 8003a9a:	687b      	ldr	r3, [r7, #4]
 8003a9c:	681b      	ldr	r3, [r3, #0]
 8003a9e:	4618      	mov	r0, r3
 8003aa0:	f7ff ff18 	bl	80038d4 <LL_ADC_EnableInternalRegulator>

    /* Note: Variable divided by 2 to compensate partially              */
    /*       CPU processing cycles, scaling in us split to not          */
    /*       exceed 32 bits register capacity and handle low frequency. */
    wait_loop_index = ((LL_ADC_DELAY_INTERNAL_REGUL_STAB_US / 10UL) * ((SystemCoreClock / (100000UL * 2UL)) + 1UL));
 8003aa4:	4ba0      	ldr	r3, [pc, #640]	@ (8003d28 <HAL_ADC_Init+0x2f4>)
 8003aa6:	681b      	ldr	r3, [r3, #0]
 8003aa8:	099b      	lsrs	r3, r3, #6
 8003aaa:	4aa0      	ldr	r2, [pc, #640]	@ (8003d2c <HAL_ADC_Init+0x2f8>)
 8003aac:	fba2 2303 	umull	r2, r3, r2, r3
 8003ab0:	099b      	lsrs	r3, r3, #6
 8003ab2:	3301      	adds	r3, #1
 8003ab4:	005b      	lsls	r3, r3, #1
 8003ab6:	60fb      	str	r3, [r7, #12]
    while (wait_loop_index != 0UL)
 8003ab8:	e002      	b.n	8003ac0 <HAL_ADC_Init+0x8c>
    {
      wait_loop_index--;
 8003aba:	68fb      	ldr	r3, [r7, #12]
 8003abc:	3b01      	subs	r3, #1
 8003abe:	60fb      	str	r3, [r7, #12]
    while (wait_loop_index != 0UL)
 8003ac0:	68fb      	ldr	r3, [r7, #12]
 8003ac2:	2b00      	cmp	r3, #0
 8003ac4:	d1f9      	bne.n	8003aba <HAL_ADC_Init+0x86>
  }

  /* Verification that ADC voltage regulator is correctly enabled, whether    */
  /* or not ADC is coming from state reset (if any potential problem of       */
  /* clocking, voltage regulator would not be enabled).                       */
  if (LL_ADC_IsInternalRegulatorEnabled(hadc->Instance) == 0UL)
 8003ac6:	687b      	ldr	r3, [r7, #4]
 8003ac8:	681b      	ldr	r3, [r3, #0]
 8003aca:	4618      	mov	r0, r3
 8003acc:	f7ff ff16 	bl	80038fc <LL_ADC_IsInternalRegulatorEnabled>
 8003ad0:	4603      	mov	r3, r0
 8003ad2:	2b00      	cmp	r3, #0
 8003ad4:	d10d      	bne.n	8003af2 <HAL_ADC_Init+0xbe>
  {
    /* Update ADC state machine to error */
    SET_BIT(hadc->State, HAL_ADC_STATE_ERROR_INTERNAL);
 8003ad6:	687b      	ldr	r3, [r7, #4]
 8003ad8:	6ddb      	ldr	r3, [r3, #92]	@ 0x5c
 8003ada:	f043 0210 	orr.w	r2, r3, #16
 8003ade:	687b      	ldr	r3, [r7, #4]
 8003ae0:	65da      	str	r2, [r3, #92]	@ 0x5c

    /* Set ADC error code to ADC peripheral internal error */
    SET_BIT(hadc->ErrorCode, HAL_ADC_ERROR_INTERNAL);
 8003ae2:	687b      	ldr	r3, [r7, #4]
 8003ae4:	6e1b      	ldr	r3, [r3, #96]	@ 0x60
 8003ae6:	f043 0201 	orr.w	r2, r3, #1
 8003aea:	687b      	ldr	r3, [r7, #4]
 8003aec:	661a      	str	r2, [r3, #96]	@ 0x60

    tmp_hal_status = HAL_ERROR;
 8003aee:	2301      	movs	r3, #1
 8003af0:	77fb      	strb	r3, [r7, #31]

  /* Configuration of ADC parameters if previous preliminary actions are      */
  /* correctly completed and if there is no conversion on going on regular    */
  /* group (ADC may already be enabled at this point if HAL_ADC_Init() is     */
  /* called to update a parameter on the fly).                                */
  tmp_adc_is_conversion_on_going_regular = LL_ADC_REG_IsConversionOngoing(hadc->Instance);
 8003af2:	687b      	ldr	r3, [r7, #4]
 8003af4:	681b      	ldr	r3, [r3, #0]
 8003af6:	4618      	mov	r0, r3
 8003af8:	f7ff ff76 	bl	80039e8 <LL_ADC_REG_IsConversionOngoing>
 8003afc:	6178      	str	r0, [r7, #20]

  if (((hadc->State & HAL_ADC_STATE_ERROR_INTERNAL) == 0UL)
 8003afe:	687b      	ldr	r3, [r7, #4]
 8003b00:	6ddb      	ldr	r3, [r3, #92]	@ 0x5c
 8003b02:	f003 0310 	and.w	r3, r3, #16
 8003b06:	2b00      	cmp	r3, #0
 8003b08:	f040 8100 	bne.w	8003d0c <HAL_ADC_Init+0x2d8>
      && (tmp_adc_is_conversion_on_going_regular == 0UL)
 8003b0c:	697b      	ldr	r3, [r7, #20]
 8003b0e:	2b00      	cmp	r3, #0
 8003b10:	f040 80fc 	bne.w	8003d0c <HAL_ADC_Init+0x2d8>
     )
  {
    /* Set ADC state */
    ADC_STATE_CLR_SET(hadc->State,
 8003b14:	687b      	ldr	r3, [r7, #4]
 8003b16:	6ddb      	ldr	r3, [r3, #92]	@ 0x5c
 8003b18:	f423 7381 	bic.w	r3, r3, #258	@ 0x102
 8003b1c:	f043 0202 	orr.w	r2, r3, #2
 8003b20:	687b      	ldr	r3, [r7, #4]
 8003b22:	65da      	str	r2, [r3, #92]	@ 0x5c
    /* Configuration of common ADC parameters                                 */

    /* Parameters update conditioned to ADC state:                            */
    /* Parameters that can be updated only when ADC is disabled:              */
    /*  - clock configuration                                                 */
    if (LL_ADC_IsEnabled(hadc->Instance) == 0UL)
 8003b24:	687b      	ldr	r3, [r7, #4]
 8003b26:	681b      	ldr	r3, [r3, #0]
 8003b28:	4618      	mov	r0, r3
 8003b2a:	f7ff ff23 	bl	8003974 <LL_ADC_IsEnabled>
 8003b2e:	4603      	mov	r3, r0
 8003b30:	2b00      	cmp	r3, #0
 8003b32:	d111      	bne.n	8003b58 <HAL_ADC_Init+0x124>
    {
      if (__LL_ADC_IS_ENABLED_ALL_COMMON_INSTANCE(__LL_ADC_COMMON_INSTANCE(hadc->Instance)) == 0UL)
 8003b34:	f04f 40a0 	mov.w	r0, #1342177280	@ 0x50000000
 8003b38:	f7ff ff1c 	bl	8003974 <LL_ADC_IsEnabled>
 8003b3c:	4604      	mov	r4, r0
 8003b3e:	487c      	ldr	r0, [pc, #496]	@ (8003d30 <HAL_ADC_Init+0x2fc>)
 8003b40:	f7ff ff18 	bl	8003974 <LL_ADC_IsEnabled>
 8003b44:	4603      	mov	r3, r0
 8003b46:	4323      	orrs	r3, r4
 8003b48:	2b00      	cmp	r3, #0
 8003b4a:	d105      	bne.n	8003b58 <HAL_ADC_Init+0x124>
        /*     parameters: MDMA, DMACFG, DELAY, DUAL (set by API                */
        /*     HAL_ADCEx_MultiModeConfigChannel() )                             */
        /*   - internal measurement paths: Vbat, temperature sensor, Vref       */
        /*     (set into HAL_ADC_ConfigChannel() or                             */
        /*     HAL_ADCEx_InjectedConfigChannel() )                              */
        LL_ADC_SetCommonClock(__LL_ADC_COMMON_INSTANCE(hadc->Instance), hadc->Init.ClockPrescaler);
 8003b4c:	687b      	ldr	r3, [r7, #4]
 8003b4e:	685b      	ldr	r3, [r3, #4]
 8003b50:	4619      	mov	r1, r3
 8003b52:	4878      	ldr	r0, [pc, #480]	@ (8003d34 <HAL_ADC_Init+0x300>)
 8003b54:	f7ff fd2a 	bl	80035ac <LL_ADC_SetCommonClock>
    /*  - external trigger polarity                Init.ExternalTrigConvEdge  */
    /*  - continuous conversion mode               Init.ContinuousConvMode    */
    /*  - overrun                                  Init.Overrun               */
    /*  - discontinuous mode                       Init.DiscontinuousConvMode */
    /*  - discontinuous mode channel count         Init.NbrOfDiscConversion   */
    tmp_cfgr  = (ADC_CFGR_CONTINUOUS((uint32_t)hadc->Init.ContinuousConvMode)           |
 8003b58:	687b      	ldr	r3, [r7, #4]
 8003b5a:	7f5b      	ldrb	r3, [r3, #29]
 8003b5c:	035a      	lsls	r2, r3, #13
                 hadc->Init.Overrun                                                     |
 8003b5e:	687b      	ldr	r3, [r7, #4]
 8003b60:	6bdb      	ldr	r3, [r3, #60]	@ 0x3c
    tmp_cfgr  = (ADC_CFGR_CONTINUOUS((uint32_t)hadc->Init.ContinuousConvMode)           |
 8003b62:	431a      	orrs	r2, r3
                 hadc->Init.DataAlign                                                   |
 8003b64:	687b      	ldr	r3, [r7, #4]
 8003b66:	68db      	ldr	r3, [r3, #12]
                 hadc->Init.Overrun                                                     |
 8003b68:	431a      	orrs	r2, r3
                 hadc->Init.Resolution                                                  |
 8003b6a:	687b      	ldr	r3, [r7, #4]
 8003b6c:	689b      	ldr	r3, [r3, #8]
                 hadc->Init.DataAlign                                                   |
 8003b6e:	431a      	orrs	r2, r3
                 ADC_CFGR_REG_DISCONTINUOUS((uint32_t)hadc->Init.DiscontinuousConvMode));
 8003b70:	687b      	ldr	r3, [r7, #4]
 8003b72:	f893 3024 	ldrb.w	r3, [r3, #36]	@ 0x24
 8003b76:	041b      	lsls	r3, r3, #16
    tmp_cfgr  = (ADC_CFGR_CONTINUOUS((uint32_t)hadc->Init.ContinuousConvMode)           |
 8003b78:	4313      	orrs	r3, r2
 8003b7a:	61bb      	str	r3, [r7, #24]

    if (hadc->Init.DiscontinuousConvMode == ENABLE)
 8003b7c:	687b      	ldr	r3, [r7, #4]
 8003b7e:	f893 3024 	ldrb.w	r3, [r3, #36]	@ 0x24
 8003b82:	2b01      	cmp	r3, #1
 8003b84:	d106      	bne.n	8003b94 <HAL_ADC_Init+0x160>
    {
      tmp_cfgr |= ADC_CFGR_DISCONTINUOUS_NUM(hadc->Init.NbrOfDiscConversion);
 8003b86:	687b      	ldr	r3, [r7, #4]
 8003b88:	6a9b      	ldr	r3, [r3, #40]	@ 0x28
 8003b8a:	3b01      	subs	r3, #1
 8003b8c:	045b      	lsls	r3, r3, #17
 8003b8e:	69ba      	ldr	r2, [r7, #24]
 8003b90:	4313      	orrs	r3, r2
 8003b92:	61bb      	str	r3, [r7, #24]
    /* Enable external trigger if trigger selection is different of software  */
    /* start.                                                                 */
    /* Note: This configuration keeps the hardware feature of parameter       */
    /*       ExternalTrigConvEdge "trigger edge none" equivalent to           */
    /*       software start.                                                  */
    if (hadc->Init.ExternalTrigConv != ADC_SOFTWARE_START)
 8003b94:	687b      	ldr	r3, [r7, #4]
 8003b96:	6adb      	ldr	r3, [r3, #44]	@ 0x2c
 8003b98:	2b00      	cmp	r3, #0
 8003b9a:	d009      	beq.n	8003bb0 <HAL_ADC_Init+0x17c>
    {
      tmp_cfgr |= ((hadc->Init.ExternalTrigConv & ADC_CFGR_EXTSEL)
 8003b9c:	687b      	ldr	r3, [r7, #4]
 8003b9e:	6adb      	ldr	r3, [r3, #44]	@ 0x2c
 8003ba0:	f403 7278 	and.w	r2, r3, #992	@ 0x3e0
                   | hadc->Init.ExternalTrigConvEdge
 8003ba4:	687b      	ldr	r3, [r7, #4]
 8003ba6:	6b1b      	ldr	r3, [r3, #48]	@ 0x30
 8003ba8:	4313      	orrs	r3, r2
      tmp_cfgr |= ((hadc->Init.ExternalTrigConv & ADC_CFGR_EXTSEL)
 8003baa:	69ba      	ldr	r2, [r7, #24]
 8003bac:	4313      	orrs	r3, r2
 8003bae:	61bb      	str	r3, [r7, #24]
                  );
    }

    /* Update Configuration Register CFGR */
    MODIFY_REG(hadc->Instance->CFGR, ADC_CFGR_FIELDS_1, tmp_cfgr);
 8003bb0:	687b      	ldr	r3, [r7, #4]
 8003bb2:	681b      	ldr	r3, [r3, #0]
 8003bb4:	68da      	ldr	r2, [r3, #12]
 8003bb6:	4b60      	ldr	r3, [pc, #384]	@ (8003d38 <HAL_ADC_Init+0x304>)
 8003bb8:	4013      	ands	r3, r2
 8003bba:	687a      	ldr	r2, [r7, #4]
 8003bbc:	6812      	ldr	r2, [r2, #0]
 8003bbe:	69b9      	ldr	r1, [r7, #24]
 8003bc0:	430b      	orrs	r3, r1
 8003bc2:	60d3      	str	r3, [r2, #12]

    /* Configuration of sampling mode */
    MODIFY_REG(hadc->Instance->CFGR2, ADC_CFGR2_BULB | ADC_CFGR2_SMPTRIG, hadc->Init.SamplingMode);
 8003bc4:	687b      	ldr	r3, [r7, #4]
 8003bc6:	681b      	ldr	r3, [r3, #0]
 8003bc8:	691b      	ldr	r3, [r3, #16]
 8003bca:	f023 6140 	bic.w	r1, r3, #201326592	@ 0xc000000
 8003bce:	687b      	ldr	r3, [r7, #4]
 8003bd0:	6b5a      	ldr	r2, [r3, #52]	@ 0x34
 8003bd2:	687b      	ldr	r3, [r7, #4]
 8003bd4:	681b      	ldr	r3, [r3, #0]
 8003bd6:	430a      	orrs	r2, r1
 8003bd8:	611a      	str	r2, [r3, #16]
    /* conversion on going on regular and injected groups:                    */
    /*  - Gain Compensation               Init.GainCompensation               */
    /*  - DMA continuous request          Init.DMAContinuousRequests          */
    /*  - LowPowerAutoWait feature        Init.LowPowerAutoWait               */
    /*  - Oversampling parameters         Init.Oversampling                   */
    tmp_adc_is_conversion_on_going_injected = LL_ADC_INJ_IsConversionOngoing(hadc->Instance);
 8003bda:	687b      	ldr	r3, [r7, #4]
 8003bdc:	681b      	ldr	r3, [r3, #0]
 8003bde:	4618      	mov	r0, r3
 8003be0:	f7ff ff15 	bl	8003a0e <LL_ADC_INJ_IsConversionOngoing>
 8003be4:	6138      	str	r0, [r7, #16]
    if ((tmp_adc_is_conversion_on_going_regular == 0UL)
 8003be6:	697b      	ldr	r3, [r7, #20]
 8003be8:	2b00      	cmp	r3, #0
 8003bea:	d16d      	bne.n	8003cc8 <HAL_ADC_Init+0x294>
        && (tmp_adc_is_conversion_on_going_injected == 0UL)
 8003bec:	693b      	ldr	r3, [r7, #16]
 8003bee:	2b00      	cmp	r3, #0
 8003bf0:	d16a      	bne.n	8003cc8 <HAL_ADC_Init+0x294>
       )
    {
      tmp_cfgr = (ADC_CFGR_DFSDM(hadc)                                            |
                   ADC_CFGR_AUTOWAIT((uint32_t)hadc->Init.LowPowerAutoWait)        |
 8003bf2:	687b      	ldr	r3, [r7, #4]
 8003bf4:	7f1b      	ldrb	r3, [r3, #28]
      tmp_cfgr = (ADC_CFGR_DFSDM(hadc)                                            |
 8003bf6:	039a      	lsls	r2, r3, #14
                   ADC_CFGR_DMACONTREQ((uint32_t)hadc->Init.DMAContinuousRequests));
 8003bf8:	687b      	ldr	r3, [r7, #4]
 8003bfa:	f893 3038 	ldrb.w	r3, [r3, #56]	@ 0x38
 8003bfe:	005b      	lsls	r3, r3, #1
      tmp_cfgr = (ADC_CFGR_DFSDM(hadc)                                            |
 8003c00:	4313      	orrs	r3, r2
 8003c02:	61bb      	str	r3, [r7, #24]

      MODIFY_REG(hadc->Instance->CFGR, ADC_CFGR_FIELDS_2, tmp_cfgr);
 8003c04:	687b      	ldr	r3, [r7, #4]
 8003c06:	681b      	ldr	r3, [r3, #0]
 8003c08:	68db      	ldr	r3, [r3, #12]
 8003c0a:	f423 4380 	bic.w	r3, r3, #16384	@ 0x4000
 8003c0e:	f023 0302 	bic.w	r3, r3, #2
 8003c12:	687a      	ldr	r2, [r7, #4]
 8003c14:	6812      	ldr	r2, [r2, #0]
 8003c16:	69b9      	ldr	r1, [r7, #24]
 8003c18:	430b      	orrs	r3, r1
 8003c1a:	60d3      	str	r3, [r2, #12]

      if (hadc->Init.GainCompensation != 0UL)
 8003c1c:	687b      	ldr	r3, [r7, #4]
 8003c1e:	691b      	ldr	r3, [r3, #16]
 8003c20:	2b00      	cmp	r3, #0
 8003c22:	d017      	beq.n	8003c54 <HAL_ADC_Init+0x220>
      {
        SET_BIT(hadc->Instance->CFGR2, ADC_CFGR2_GCOMP);
 8003c24:	687b      	ldr	r3, [r7, #4]
 8003c26:	681b      	ldr	r3, [r3, #0]
 8003c28:	691a      	ldr	r2, [r3, #16]
 8003c2a:	687b      	ldr	r3, [r7, #4]
 8003c2c:	681b      	ldr	r3, [r3, #0]
 8003c2e:	f442 3280 	orr.w	r2, r2, #65536	@ 0x10000
 8003c32:	611a      	str	r2, [r3, #16]
        MODIFY_REG(hadc->Instance->GCOMP, ADC_GCOMP_GCOMPCOEFF, hadc->Init.GainCompensation);
 8003c34:	687b      	ldr	r3, [r7, #4]
 8003c36:	681b      	ldr	r3, [r3, #0]
 8003c38:	f8d3 30c0 	ldr.w	r3, [r3, #192]	@ 0xc0
 8003c3c:	f423 537f 	bic.w	r3, r3, #16320	@ 0x3fc0
 8003c40:	f023 033f 	bic.w	r3, r3, #63	@ 0x3f
 8003c44:	687a      	ldr	r2, [r7, #4]
 8003c46:	6911      	ldr	r1, [r2, #16]
 8003c48:	687a      	ldr	r2, [r7, #4]
 8003c4a:	6812      	ldr	r2, [r2, #0]
 8003c4c:	430b      	orrs	r3, r1
 8003c4e:	f8c2 30c0 	str.w	r3, [r2, #192]	@ 0xc0
 8003c52:	e013      	b.n	8003c7c <HAL_ADC_Init+0x248>
      }
      else
      {
        CLEAR_BIT(hadc->Instance->CFGR2, ADC_CFGR2_GCOMP);
 8003c54:	687b      	ldr	r3, [r7, #4]
 8003c56:	681b      	ldr	r3, [r3, #0]
 8003c58:	691a      	ldr	r2, [r3, #16]
 8003c5a:	687b      	ldr	r3, [r7, #4]
 8003c5c:	681b      	ldr	r3, [r3, #0]
 8003c5e:	f422 3280 	bic.w	r2, r2, #65536	@ 0x10000
 8003c62:	611a      	str	r2, [r3, #16]
        MODIFY_REG(hadc->Instance->GCOMP, ADC_GCOMP_GCOMPCOEFF, 0UL);
 8003c64:	687b      	ldr	r3, [r7, #4]
 8003c66:	681b      	ldr	r3, [r3, #0]
 8003c68:	f8d3 30c0 	ldr.w	r3, [r3, #192]	@ 0xc0
 8003c6c:	687a      	ldr	r2, [r7, #4]
 8003c6e:	6812      	ldr	r2, [r2, #0]
 8003c70:	f423 537f 	bic.w	r3, r3, #16320	@ 0x3fc0
 8003c74:	f023 033f 	bic.w	r3, r3, #63	@ 0x3f
 8003c78:	f8c2 30c0 	str.w	r3, [r2, #192]	@ 0xc0
      }

      if (hadc->Init.OversamplingMode == ENABLE)
 8003c7c:	687b      	ldr	r3, [r7, #4]
 8003c7e:	f893 3040 	ldrb.w	r3, [r3, #64]	@ 0x40
 8003c82:	2b01      	cmp	r3, #1
 8003c84:	d118      	bne.n	8003cb8 <HAL_ADC_Init+0x284>
        /* Configuration of Oversampler:                                      */
        /*  - Oversampling Ratio                                              */
        /*  - Right bit shift                                                 */
        /*  - Triggered mode                                                  */
        /*  - Oversampling mode (continued/resumed)                           */
        MODIFY_REG(hadc->Instance->CFGR2,
 8003c86:	687b      	ldr	r3, [r7, #4]
 8003c88:	681b      	ldr	r3, [r3, #0]
 8003c8a:	691b      	ldr	r3, [r3, #16]
 8003c8c:	f423 63ff 	bic.w	r3, r3, #2040	@ 0x7f8
 8003c90:	f023 0304 	bic.w	r3, r3, #4
 8003c94:	687a      	ldr	r2, [r7, #4]
 8003c96:	6c51      	ldr	r1, [r2, #68]	@ 0x44
 8003c98:	687a      	ldr	r2, [r7, #4]
 8003c9a:	6c92      	ldr	r2, [r2, #72]	@ 0x48
 8003c9c:	4311      	orrs	r1, r2
 8003c9e:	687a      	ldr	r2, [r7, #4]
 8003ca0:	6cd2      	ldr	r2, [r2, #76]	@ 0x4c
 8003ca2:	4311      	orrs	r1, r2
 8003ca4:	687a      	ldr	r2, [r7, #4]
 8003ca6:	6d12      	ldr	r2, [r2, #80]	@ 0x50
 8003ca8:	430a      	orrs	r2, r1
 8003caa:	431a      	orrs	r2, r3
 8003cac:	687b      	ldr	r3, [r7, #4]
 8003cae:	681b      	ldr	r3, [r3, #0]
 8003cb0:	f042 0201 	orr.w	r2, r2, #1
 8003cb4:	611a      	str	r2, [r3, #16]
 8003cb6:	e007      	b.n	8003cc8 <HAL_ADC_Init+0x294>
                  );
      }
      else
      {
        /* Disable ADC oversampling scope on ADC group regular */
        CLEAR_BIT(hadc->Instance->CFGR2, ADC_CFGR2_ROVSE);
 8003cb8:	687b      	ldr	r3, [r7, #4]
 8003cba:	681b      	ldr	r3, [r3, #0]
 8003cbc:	691a      	ldr	r2, [r3, #16]
 8003cbe:	687b      	ldr	r3, [r7, #4]
 8003cc0:	681b      	ldr	r3, [r3, #0]
 8003cc2:	f022 0201 	bic.w	r2, r2, #1
 8003cc6:	611a      	str	r2, [r3, #16]
    /*   Note: Scan mode is not present by hardware on this device, but       */
    /*   emulated by software for alignment over all STM32 devices.           */
    /* - if scan mode is enabled, regular channels sequence length is set to  */
    /*   parameter "NbrOfConversion".                                         */

    if (hadc->Init.ScanConvMode == ADC_SCAN_ENABLE)
 8003cc8:	687b      	ldr	r3, [r7, #4]
 8003cca:	695b      	ldr	r3, [r3, #20]
 8003ccc:	2b01      	cmp	r3, #1
 8003cce:	d10c      	bne.n	8003cea <HAL_ADC_Init+0x2b6>
    {
      /* Set number of ranks in regular group sequencer */
      MODIFY_REG(hadc->Instance->SQR1, ADC_SQR1_L, (hadc->Init.NbrOfConversion - (uint8_t)1));
 8003cd0:	687b      	ldr	r3, [r7, #4]
 8003cd2:	681b      	ldr	r3, [r3, #0]
 8003cd4:	6b1b      	ldr	r3, [r3, #48]	@ 0x30
 8003cd6:	f023 010f 	bic.w	r1, r3, #15
 8003cda:	687b      	ldr	r3, [r7, #4]
 8003cdc:	6a1b      	ldr	r3, [r3, #32]
 8003cde:	1e5a      	subs	r2, r3, #1
 8003ce0:	687b      	ldr	r3, [r7, #4]
 8003ce2:	681b      	ldr	r3, [r3, #0]
 8003ce4:	430a      	orrs	r2, r1
 8003ce6:	631a      	str	r2, [r3, #48]	@ 0x30
 8003ce8:	e007      	b.n	8003cfa <HAL_ADC_Init+0x2c6>
    }
    else
    {
      CLEAR_BIT(hadc->Instance->SQR1, ADC_SQR1_L);
 8003cea:	687b      	ldr	r3, [r7, #4]
 8003cec:	681b      	ldr	r3, [r3, #0]
 8003cee:	6b1a      	ldr	r2, [r3, #48]	@ 0x30
 8003cf0:	687b      	ldr	r3, [r7, #4]
 8003cf2:	681b      	ldr	r3, [r3, #0]
 8003cf4:	f022 020f 	bic.w	r2, r2, #15
 8003cf8:	631a      	str	r2, [r3, #48]	@ 0x30
    }

    /* Initialize the ADC state */
    /* Clear HAL_ADC_STATE_BUSY_INTERNAL bit, set HAL_ADC_STATE_READY bit */
    ADC_STATE_CLR_SET(hadc->State, HAL_ADC_STATE_BUSY_INTERNAL, HAL_ADC_STATE_READY);
 8003cfa:	687b      	ldr	r3, [r7, #4]
 8003cfc:	6ddb      	ldr	r3, [r3, #92]	@ 0x5c
 8003cfe:	f023 0303 	bic.w	r3, r3, #3
 8003d02:	f043 0201 	orr.w	r2, r3, #1
 8003d06:	687b      	ldr	r3, [r7, #4]
 8003d08:	65da      	str	r2, [r3, #92]	@ 0x5c
 8003d0a:	e007      	b.n	8003d1c <HAL_ADC_Init+0x2e8>
  }
  else
  {
    /* Update ADC state machine to error */
    SET_BIT(hadc->State, HAL_ADC_STATE_ERROR_INTERNAL);
 8003d0c:	687b      	ldr	r3, [r7, #4]
 8003d0e:	6ddb      	ldr	r3, [r3, #92]	@ 0x5c
 8003d10:	f043 0210 	orr.w	r2, r3, #16
 8003d14:	687b      	ldr	r3, [r7, #4]
 8003d16:	65da      	str	r2, [r3, #92]	@ 0x5c

    tmp_hal_status = HAL_ERROR;
 8003d18:	2301      	movs	r3, #1
 8003d1a:	77fb      	strb	r3, [r7, #31]
  }

  /* Return function status */
  return tmp_hal_status;
 8003d1c:	7ffb      	ldrb	r3, [r7, #31]
}
 8003d1e:	4618      	mov	r0, r3
 8003d20:	3724      	adds	r7, #36	@ 0x24
 8003d22:	46bd      	mov	sp, r7
 8003d24:	bd90      	pop	{r4, r7, pc}
 8003d26:	bf00      	nop
 8003d28:	20000004 	.word	0x20000004
 8003d2c:	053e2d63 	.word	0x053e2d63
 8003d30:	50000100 	.word	0x50000100
 8003d34:	50000300 	.word	0x50000300
 8003d38:	fff04007 	.word	0xfff04007

08003d3c <HAL_ADC_Start_DMA>:
  * @param pData Destination Buffer address.
  * @param Length Number of data to be transferred from ADC peripheral to memory
  * @retval HAL status.
  */
HAL_StatusTypeDef HAL_ADC_Start_DMA(ADC_HandleTypeDef *hadc, uint32_t *pData, uint32_t Length)
{
 8003d3c:	b580      	push	{r7, lr}
 8003d3e:	b086      	sub	sp, #24
 8003d40:	af00      	add	r7, sp, #0
 8003d42:	60f8      	str	r0, [r7, #12]
 8003d44:	60b9      	str	r1, [r7, #8]
 8003d46:	607a      	str	r2, [r7, #4]
  HAL_StatusTypeDef tmp_hal_status;
#if defined(ADC_MULTIMODE_SUPPORT)
  uint32_t tmp_multimode_config = LL_ADC_GetMultimode(__LL_ADC_COMMON_INSTANCE(hadc->Instance));
 8003d48:	4851      	ldr	r0, [pc, #324]	@ (8003e90 <HAL_ADC_Start_DMA+0x154>)
 8003d4a:	f7ff fd8f 	bl	800386c <LL_ADC_GetMultimode>
 8003d4e:	6138      	str	r0, [r7, #16]

  /* Check the parameters */
  assert_param(IS_ADC_ALL_INSTANCE(hadc->Instance));

  /* Perform ADC enable and conversion start if no conversion is on going */
  if (LL_ADC_REG_IsConversionOngoing(hadc->Instance) == 0UL)
 8003d50:	68fb      	ldr	r3, [r7, #12]
 8003d52:	681b      	ldr	r3, [r3, #0]
 8003d54:	4618      	mov	r0, r3
 8003d56:	f7ff fe47 	bl	80039e8 <LL_ADC_REG_IsConversionOngoing>
 8003d5a:	4603      	mov	r3, r0
 8003d5c:	2b00      	cmp	r3, #0
 8003d5e:	f040 808f 	bne.w	8003e80 <HAL_ADC_Start_DMA+0x144>
  {
    /* Process locked */
    __HAL_LOCK(hadc);
 8003d62:	68fb      	ldr	r3, [r7, #12]
 8003d64:	f893 3058 	ldrb.w	r3, [r3, #88]	@ 0x58
 8003d68:	2b01      	cmp	r3, #1
 8003d6a:	d101      	bne.n	8003d70 <HAL_ADC_Start_DMA+0x34>
 8003d6c:	2302      	movs	r3, #2
 8003d6e:	e08a      	b.n	8003e86 <HAL_ADC_Start_DMA+0x14a>
 8003d70:	68fb      	ldr	r3, [r7, #12]
 8003d72:	2201      	movs	r2, #1
 8003d74:	f883 2058 	strb.w	r2, [r3, #88]	@ 0x58

#if defined(ADC_MULTIMODE_SUPPORT)
    /* Ensure that multimode regular conversions are not enabled.   */
    /* Otherwise, dedicated API HAL_ADCEx_MultiModeStart_DMA() must be used.  */
    if ((ADC_IS_INDEPENDENT(hadc) != RESET)
 8003d78:	693b      	ldr	r3, [r7, #16]
 8003d7a:	2b00      	cmp	r3, #0
 8003d7c:	d005      	beq.n	8003d8a <HAL_ADC_Start_DMA+0x4e>
        || (tmp_multimode_config == LL_ADC_MULTI_INDEPENDENT)
        || (tmp_multimode_config == LL_ADC_MULTI_DUAL_INJ_SIMULT)
 8003d7e:	693b      	ldr	r3, [r7, #16]
 8003d80:	2b05      	cmp	r3, #5
 8003d82:	d002      	beq.n	8003d8a <HAL_ADC_Start_DMA+0x4e>
        || (tmp_multimode_config == LL_ADC_MULTI_DUAL_INJ_ALTERN)
 8003d84:	693b      	ldr	r3, [r7, #16]
 8003d86:	2b09      	cmp	r3, #9
 8003d88:	d173      	bne.n	8003e72 <HAL_ADC_Start_DMA+0x136>
       )
#endif /* ADC_MULTIMODE_SUPPORT */
    {
      /* Enable the ADC peripheral */
      tmp_hal_status = ADC_Enable(hadc);
 8003d8a:	68f8      	ldr	r0, [r7, #12]
 8003d8c:	f000 fc8e 	bl	80046ac <ADC_Enable>
 8003d90:	4603      	mov	r3, r0
 8003d92:	75fb      	strb	r3, [r7, #23]

      /* Start conversion if ADC is effectively enabled */
      if (tmp_hal_status == HAL_OK)
 8003d94:	7dfb      	ldrb	r3, [r7, #23]
 8003d96:	2b00      	cmp	r3, #0
 8003d98:	d166      	bne.n	8003e68 <HAL_ADC_Start_DMA+0x12c>
      {
        /* Set ADC state                                                        */
        /* - Clear state bitfield related to regular group conversion results   */
        /* - Set state bitfield related to regular operation                    */
        ADC_STATE_CLR_SET(hadc->State,
 8003d9a:	68fb      	ldr	r3, [r7, #12]
 8003d9c:	6ddb      	ldr	r3, [r3, #92]	@ 0x5c
 8003d9e:	f423 6370 	bic.w	r3, r3, #3840	@ 0xf00
 8003da2:	f023 0301 	bic.w	r3, r3, #1
 8003da6:	f443 7280 	orr.w	r2, r3, #256	@ 0x100
 8003daa:	68fb      	ldr	r3, [r7, #12]
 8003dac:	65da      	str	r2, [r3, #92]	@ 0x5c

#if defined(ADC_MULTIMODE_SUPPORT)
        /* Reset HAL_ADC_STATE_MULTIMODE_SLAVE bit
          - if ADC instance is master or if multimode feature is not available
          - if multimode setting is disabled (ADC instance slave in independent mode) */
        if ((__LL_ADC_MULTI_INSTANCE_MASTER(hadc->Instance) == hadc->Instance)
 8003dae:	68fb      	ldr	r3, [r7, #12]
 8003db0:	681b      	ldr	r3, [r3, #0]
 8003db2:	4a38      	ldr	r2, [pc, #224]	@ (8003e94 <HAL_ADC_Start_DMA+0x158>)
 8003db4:	4293      	cmp	r3, r2
 8003db6:	d002      	beq.n	8003dbe <HAL_ADC_Start_DMA+0x82>
 8003db8:	68fb      	ldr	r3, [r7, #12]
 8003dba:	681b      	ldr	r3, [r3, #0]
 8003dbc:	e001      	b.n	8003dc2 <HAL_ADC_Start_DMA+0x86>
 8003dbe:	f04f 43a0 	mov.w	r3, #1342177280	@ 0x50000000
 8003dc2:	68fa      	ldr	r2, [r7, #12]
 8003dc4:	6812      	ldr	r2, [r2, #0]
 8003dc6:	4293      	cmp	r3, r2
 8003dc8:	d002      	beq.n	8003dd0 <HAL_ADC_Start_DMA+0x94>
            || (tmp_multimode_config == LL_ADC_MULTI_INDEPENDENT)
 8003dca:	693b      	ldr	r3, [r7, #16]
 8003dcc:	2b00      	cmp	r3, #0
 8003dce:	d105      	bne.n	8003ddc <HAL_ADC_Start_DMA+0xa0>
           )
        {
          CLEAR_BIT(hadc->State, HAL_ADC_STATE_MULTIMODE_SLAVE);
 8003dd0:	68fb      	ldr	r3, [r7, #12]
 8003dd2:	6ddb      	ldr	r3, [r3, #92]	@ 0x5c
 8003dd4:	f423 1280 	bic.w	r2, r3, #1048576	@ 0x100000
 8003dd8:	68fb      	ldr	r3, [r7, #12]
 8003dda:	65da      	str	r2, [r3, #92]	@ 0x5c
        }
#endif /* ADC_MULTIMODE_SUPPORT */

        /* Check if a conversion is on going on ADC group injected */
        if ((hadc->State & HAL_ADC_STATE_INJ_BUSY) != 0UL)
 8003ddc:	68fb      	ldr	r3, [r7, #12]
 8003dde:	6ddb      	ldr	r3, [r3, #92]	@ 0x5c
 8003de0:	f403 5380 	and.w	r3, r3, #4096	@ 0x1000
 8003de4:	2b00      	cmp	r3, #0
 8003de6:	d006      	beq.n	8003df6 <HAL_ADC_Start_DMA+0xba>
        {
          /* Reset ADC error code fields related to regular conversions only */
          CLEAR_BIT(hadc->ErrorCode, (HAL_ADC_ERROR_OVR | HAL_ADC_ERROR_DMA));
 8003de8:	68fb      	ldr	r3, [r7, #12]
 8003dea:	6e1b      	ldr	r3, [r3, #96]	@ 0x60
 8003dec:	f023 0206 	bic.w	r2, r3, #6
 8003df0:	68fb      	ldr	r3, [r7, #12]
 8003df2:	661a      	str	r2, [r3, #96]	@ 0x60
 8003df4:	e002      	b.n	8003dfc <HAL_ADC_Start_DMA+0xc0>
        }
        else
        {
          /* Reset all ADC error code fields */
          ADC_CLEAR_ERRORCODE(hadc);
 8003df6:	68fb      	ldr	r3, [r7, #12]
 8003df8:	2200      	movs	r2, #0
 8003dfa:	661a      	str	r2, [r3, #96]	@ 0x60
        }

        /* Set the DMA transfer complete callback */
        hadc->DMA_Handle->XferCpltCallback = ADC_DMAConvCplt;
 8003dfc:	68fb      	ldr	r3, [r7, #12]
 8003dfe:	6d5b      	ldr	r3, [r3, #84]	@ 0x54
 8003e00:	4a25      	ldr	r2, [pc, #148]	@ (8003e98 <HAL_ADC_Start_DMA+0x15c>)
 8003e02:	62da      	str	r2, [r3, #44]	@ 0x2c

        /* Set the DMA half transfer complete callback */
        hadc->DMA_Handle->XferHalfCpltCallback = ADC_DMAHalfConvCplt;
 8003e04:	68fb      	ldr	r3, [r7, #12]
 8003e06:	6d5b      	ldr	r3, [r3, #84]	@ 0x54
 8003e08:	4a24      	ldr	r2, [pc, #144]	@ (8003e9c <HAL_ADC_Start_DMA+0x160>)
 8003e0a:	631a      	str	r2, [r3, #48]	@ 0x30

        /* Set the DMA error callback */
        hadc->DMA_Handle->XferErrorCallback = ADC_DMAError;
 8003e0c:	68fb      	ldr	r3, [r7, #12]
 8003e0e:	6d5b      	ldr	r3, [r3, #84]	@ 0x54
 8003e10:	4a23      	ldr	r2, [pc, #140]	@ (8003ea0 <HAL_ADC_Start_DMA+0x164>)
 8003e12:	635a      	str	r2, [r3, #52]	@ 0x34
        /* ADC start (in case of SW start):                                   */

        /* Clear regular group conversion flag and overrun flag               */
        /* (To ensure of no unknown state from potential previous ADC         */
        /* operations)                                                        */
        __HAL_ADC_CLEAR_FLAG(hadc, (ADC_FLAG_EOC | ADC_FLAG_EOS | ADC_FLAG_OVR));
 8003e14:	68fb      	ldr	r3, [r7, #12]
 8003e16:	681b      	ldr	r3, [r3, #0]
 8003e18:	221c      	movs	r2, #28
 8003e1a:	601a      	str	r2, [r3, #0]

        /* Process unlocked */
        /* Unlock before starting ADC conversions: in case of potential         */
        /* interruption, to let the process to ADC IRQ Handler.                 */
        __HAL_UNLOCK(hadc);
 8003e1c:	68fb      	ldr	r3, [r7, #12]
 8003e1e:	2200      	movs	r2, #0
 8003e20:	f883 2058 	strb.w	r2, [r3, #88]	@ 0x58

        /* With DMA, overrun event is always considered as an error even if
           hadc->Init.Overrun is set to ADC_OVR_DATA_OVERWRITTEN. Therefore,
           ADC_IT_OVR is enabled. */
        __HAL_ADC_ENABLE_IT(hadc, ADC_IT_OVR);
 8003e24:	68fb      	ldr	r3, [r7, #12]
 8003e26:	681b      	ldr	r3, [r3, #0]
 8003e28:	685a      	ldr	r2, [r3, #4]
 8003e2a:	68fb      	ldr	r3, [r7, #12]
 8003e2c:	681b      	ldr	r3, [r3, #0]
 8003e2e:	f042 0210 	orr.w	r2, r2, #16
 8003e32:	605a      	str	r2, [r3, #4]

        /* Enable ADC DMA mode */
        SET_BIT(hadc->Instance->CFGR, ADC_CFGR_DMAEN);
 8003e34:	68fb      	ldr	r3, [r7, #12]
 8003e36:	681b      	ldr	r3, [r3, #0]
 8003e38:	68da      	ldr	r2, [r3, #12]
 8003e3a:	68fb      	ldr	r3, [r7, #12]
 8003e3c:	681b      	ldr	r3, [r3, #0]
 8003e3e:	f042 0201 	orr.w	r2, r2, #1
 8003e42:	60da      	str	r2, [r3, #12]

        /* Start the DMA channel */
        tmp_hal_status = HAL_DMA_Start_IT(hadc->DMA_Handle, (uint32_t)&hadc->Instance->DR, (uint32_t)pData, Length);
 8003e44:	68fb      	ldr	r3, [r7, #12]
 8003e46:	6d58      	ldr	r0, [r3, #84]	@ 0x54
 8003e48:	68fb      	ldr	r3, [r7, #12]
 8003e4a:	681b      	ldr	r3, [r3, #0]
 8003e4c:	3340      	adds	r3, #64	@ 0x40
 8003e4e:	4619      	mov	r1, r3
 8003e50:	68ba      	ldr	r2, [r7, #8]
 8003e52:	687b      	ldr	r3, [r7, #4]
 8003e54:	f001 f8b4 	bl	8004fc0 <HAL_DMA_Start_IT>
 8003e58:	4603      	mov	r3, r0
 8003e5a:	75fb      	strb	r3, [r7, #23]
        /* Enable conversion of regular group.                                  */
        /* If software start has been selected, conversion starts immediately.  */
        /* If external trigger has been selected, conversion will start at next */
        /* trigger event.                                                       */
        /* Start ADC group regular conversion */
        LL_ADC_REG_StartConversion(hadc->Instance);
 8003e5c:	68fb      	ldr	r3, [r7, #12]
 8003e5e:	681b      	ldr	r3, [r3, #0]
 8003e60:	4618      	mov	r0, r3
 8003e62:	f7ff fdad 	bl	80039c0 <LL_ADC_REG_StartConversion>
      if (tmp_hal_status == HAL_OK)
 8003e66:	e00d      	b.n	8003e84 <HAL_ADC_Start_DMA+0x148>
      }
      else
      {
        /* Process unlocked */
        __HAL_UNLOCK(hadc);
 8003e68:	68fb      	ldr	r3, [r7, #12]
 8003e6a:	2200      	movs	r2, #0
 8003e6c:	f883 2058 	strb.w	r2, [r3, #88]	@ 0x58
      if (tmp_hal_status == HAL_OK)
 8003e70:	e008      	b.n	8003e84 <HAL_ADC_Start_DMA+0x148>

    }
#if defined(ADC_MULTIMODE_SUPPORT)
    else
    {
      tmp_hal_status = HAL_ERROR;
 8003e72:	2301      	movs	r3, #1
 8003e74:	75fb      	strb	r3, [r7, #23]
      /* Process unlocked */
      __HAL_UNLOCK(hadc);
 8003e76:	68fb      	ldr	r3, [r7, #12]
 8003e78:	2200      	movs	r2, #0
 8003e7a:	f883 2058 	strb.w	r2, [r3, #88]	@ 0x58
 8003e7e:	e001      	b.n	8003e84 <HAL_ADC_Start_DMA+0x148>
    }
#endif /* ADC_MULTIMODE_SUPPORT */
  }
  else
  {
    tmp_hal_status = HAL_BUSY;
 8003e80:	2302      	movs	r3, #2
 8003e82:	75fb      	strb	r3, [r7, #23]
  }

  /* Return function status */
  return tmp_hal_status;
 8003e84:	7dfb      	ldrb	r3, [r7, #23]
}
 8003e86:	4618      	mov	r0, r3
 8003e88:	3718      	adds	r7, #24
 8003e8a:	46bd      	mov	sp, r7
 8003e8c:	bd80      	pop	{r7, pc}
 8003e8e:	bf00      	nop
 8003e90:	50000300 	.word	0x50000300
 8003e94:	50000100 	.word	0x50000100
 8003e98:	08004877 	.word	0x08004877
 8003e9c:	0800494f 	.word	0x0800494f
 8003ea0:	0800496b 	.word	0x0800496b

08003ea4 <HAL_ADC_ConvHalfCpltCallback>:
  * @brief  Conversion DMA half-transfer callback in non-blocking mode.
  * @param hadc ADC handle
  * @retval None
  */
__weak void HAL_ADC_ConvHalfCpltCallback(ADC_HandleTypeDef *hadc)
{
 8003ea4:	b480      	push	{r7}
 8003ea6:	b083      	sub	sp, #12
 8003ea8:	af00      	add	r7, sp, #0
 8003eaa:	6078      	str	r0, [r7, #4]
  UNUSED(hadc);

  /* NOTE : This function should not be modified. When the callback is needed,
            function HAL_ADC_ConvHalfCpltCallback must be implemented in the user file.
  */
}
 8003eac:	bf00      	nop
 8003eae:	370c      	adds	r7, #12
 8003eb0:	46bd      	mov	sp, r7
 8003eb2:	f85d 7b04 	ldr.w	r7, [sp], #4
 8003eb6:	4770      	bx	lr

08003eb8 <HAL_ADC_ErrorCallback>:
  *           (this function is also clearing overrun flag)
  * @param hadc ADC handle
  * @retval None
  */
__weak void HAL_ADC_ErrorCallback(ADC_HandleTypeDef *hadc)
{
 8003eb8:	b480      	push	{r7}
 8003eba:	b083      	sub	sp, #12
 8003ebc:	af00      	add	r7, sp, #0
 8003ebe:	6078      	str	r0, [r7, #4]
  UNUSED(hadc);

  /* NOTE : This function should not be modified. When the callback is needed,
            function HAL_ADC_ErrorCallback must be implemented in the user file.
  */
}
 8003ec0:	bf00      	nop
 8003ec2:	370c      	adds	r7, #12
 8003ec4:	46bd      	mov	sp, r7
 8003ec6:	f85d 7b04 	ldr.w	r7, [sp], #4
 8003eca:	4770      	bx	lr

08003ecc <HAL_ADC_ConfigChannel>:
  * @param hadc ADC handle
  * @param pConfig Structure of ADC channel assigned to ADC group regular.
  * @retval HAL status
  */
HAL_StatusTypeDef HAL_ADC_ConfigChannel(ADC_HandleTypeDef *hadc, const ADC_ChannelConfTypeDef *pConfig)
{
 8003ecc:	b580      	push	{r7, lr}
 8003ece:	b0b6      	sub	sp, #216	@ 0xd8
 8003ed0:	af00      	add	r7, sp, #0
 8003ed2:	6078      	str	r0, [r7, #4]
 8003ed4:	6039      	str	r1, [r7, #0]
  HAL_StatusTypeDef tmp_hal_status = HAL_OK;
 8003ed6:	2300      	movs	r3, #0
 8003ed8:	f887 30d7 	strb.w	r3, [r7, #215]	@ 0xd7
  uint32_t tmpOffsetShifted;
  uint32_t tmp_config_internal_channel;
  __IO uint32_t wait_loop_index = 0UL;
 8003edc:	2300      	movs	r3, #0
 8003ede:	60fb      	str	r3, [r7, #12]
  {
    assert_param(IS_ADC_DIFF_CHANNEL(hadc, pConfig->Channel));
  }

  /* Process locked */
  __HAL_LOCK(hadc);
 8003ee0:	687b      	ldr	r3, [r7, #4]
 8003ee2:	f893 3058 	ldrb.w	r3, [r3, #88]	@ 0x58
 8003ee6:	2b01      	cmp	r3, #1
 8003ee8:	d101      	bne.n	8003eee <HAL_ADC_ConfigChannel+0x22>
 8003eea:	2302      	movs	r3, #2
 8003eec:	e3c8      	b.n	8004680 <HAL_ADC_ConfigChannel+0x7b4>
 8003eee:	687b      	ldr	r3, [r7, #4]
 8003ef0:	2201      	movs	r2, #1
 8003ef2:	f883 2058 	strb.w	r2, [r3, #88]	@ 0x58
  /* Parameters update conditioned to ADC state:                              */
  /* Parameters that can be updated when ADC is disabled or enabled without   */
  /* conversion on going on regular group:                                    */
  /*  - Channel number                                                        */
  /*  - Channel rank                                                          */
  if (LL_ADC_REG_IsConversionOngoing(hadc->Instance) == 0UL)
 8003ef6:	687b      	ldr	r3, [r7, #4]
 8003ef8:	681b      	ldr	r3, [r3, #0]
 8003efa:	4618      	mov	r0, r3
 8003efc:	f7ff fd74 	bl	80039e8 <LL_ADC_REG_IsConversionOngoing>
 8003f00:	4603      	mov	r3, r0
 8003f02:	2b00      	cmp	r3, #0
 8003f04:	f040 83ad 	bne.w	8004662 <HAL_ADC_ConfigChannel+0x796>
  {
    /* Set ADC group regular sequence: channel on the selected scan sequence rank */
    LL_ADC_REG_SetSequencerRanks(hadc->Instance, pConfig->Rank, pConfig->Channel);
 8003f08:	687b      	ldr	r3, [r7, #4]
 8003f0a:	6818      	ldr	r0, [r3, #0]
 8003f0c:	683b      	ldr	r3, [r7, #0]
 8003f0e:	6859      	ldr	r1, [r3, #4]
 8003f10:	683b      	ldr	r3, [r7, #0]
 8003f12:	681b      	ldr	r3, [r3, #0]
 8003f14:	461a      	mov	r2, r3
 8003f16:	f7ff fc2e 	bl	8003776 <LL_ADC_REG_SetSequencerRanks>
    /* Parameters update conditioned to ADC state:                              */
    /* Parameters that can be updated when ADC is disabled or enabled without   */
    /* conversion on going on regular group:                                    */
    /*  - Channel sampling time                                                 */
    /*  - Channel offset                                                        */
    tmp_adc_is_conversion_on_going_regular = LL_ADC_REG_IsConversionOngoing(hadc->Instance);
 8003f1a:	687b      	ldr	r3, [r7, #4]
 8003f1c:	681b      	ldr	r3, [r3, #0]
 8003f1e:	4618      	mov	r0, r3
 8003f20:	f7ff fd62 	bl	80039e8 <LL_ADC_REG_IsConversionOngoing>
 8003f24:	f8c7 00d0 	str.w	r0, [r7, #208]	@ 0xd0
    tmp_adc_is_conversion_on_going_injected = LL_ADC_INJ_IsConversionOngoing(hadc->Instance);
 8003f28:	687b      	ldr	r3, [r7, #4]
 8003f2a:	681b      	ldr	r3, [r3, #0]
 8003f2c:	4618      	mov	r0, r3
 8003f2e:	f7ff fd6e 	bl	8003a0e <LL_ADC_INJ_IsConversionOngoing>
 8003f32:	f8c7 00cc 	str.w	r0, [r7, #204]	@ 0xcc
    if ((tmp_adc_is_conversion_on_going_regular == 0UL)
 8003f36:	f8d7 30d0 	ldr.w	r3, [r7, #208]	@ 0xd0
 8003f3a:	2b00      	cmp	r3, #0
 8003f3c:	f040 81d9 	bne.w	80042f2 <HAL_ADC_ConfigChannel+0x426>
        && (tmp_adc_is_conversion_on_going_injected == 0UL)
 8003f40:	f8d7 30cc 	ldr.w	r3, [r7, #204]	@ 0xcc
 8003f44:	2b00      	cmp	r3, #0
 8003f46:	f040 81d4 	bne.w	80042f2 <HAL_ADC_ConfigChannel+0x426>
       )
    {
      /* Manage specific case of sampling time 3.5 cycles replacing 2.5 cyles */
      if (pConfig->SamplingTime == ADC_SAMPLETIME_3CYCLES_5)
 8003f4a:	683b      	ldr	r3, [r7, #0]
 8003f4c:	689b      	ldr	r3, [r3, #8]
 8003f4e:	f1b3 4f00 	cmp.w	r3, #2147483648	@ 0x80000000
 8003f52:	d10f      	bne.n	8003f74 <HAL_ADC_ConfigChannel+0xa8>
      {
        /* Set sampling time of the selected ADC channel */
        LL_ADC_SetChannelSamplingTime(hadc->Instance, pConfig->Channel, LL_ADC_SAMPLINGTIME_2CYCLES_5);
 8003f54:	687b      	ldr	r3, [r7, #4]
 8003f56:	6818      	ldr	r0, [r3, #0]
 8003f58:	683b      	ldr	r3, [r7, #0]
 8003f5a:	681b      	ldr	r3, [r3, #0]
 8003f5c:	2200      	movs	r2, #0
 8003f5e:	4619      	mov	r1, r3
 8003f60:	f7ff fc35 	bl	80037ce <LL_ADC_SetChannelSamplingTime>

        /* Set ADC sampling time common configuration */
        LL_ADC_SetSamplingTimeCommonConfig(hadc->Instance, LL_ADC_SAMPLINGTIME_COMMON_3C5_REPL_2C5);
 8003f64:	687b      	ldr	r3, [r7, #4]
 8003f66:	681b      	ldr	r3, [r3, #0]
 8003f68:	f04f 4100 	mov.w	r1, #2147483648	@ 0x80000000
 8003f6c:	4618      	mov	r0, r3
 8003f6e:	f7ff fbdc 	bl	800372a <LL_ADC_SetSamplingTimeCommonConfig>
 8003f72:	e00e      	b.n	8003f92 <HAL_ADC_ConfigChannel+0xc6>
      }
      else
      {
        /* Set sampling time of the selected ADC channel */
        LL_ADC_SetChannelSamplingTime(hadc->Instance, pConfig->Channel, pConfig->SamplingTime);
 8003f74:	687b      	ldr	r3, [r7, #4]
 8003f76:	6818      	ldr	r0, [r3, #0]
 8003f78:	683b      	ldr	r3, [r7, #0]
 8003f7a:	6819      	ldr	r1, [r3, #0]
 8003f7c:	683b      	ldr	r3, [r7, #0]
 8003f7e:	689b      	ldr	r3, [r3, #8]
 8003f80:	461a      	mov	r2, r3
 8003f82:	f7ff fc24 	bl	80037ce <LL_ADC_SetChannelSamplingTime>

        /* Set ADC sampling time common configuration */
        LL_ADC_SetSamplingTimeCommonConfig(hadc->Instance, LL_ADC_SAMPLINGTIME_COMMON_DEFAULT);
 8003f86:	687b      	ldr	r3, [r7, #4]
 8003f88:	681b      	ldr	r3, [r3, #0]
 8003f8a:	2100      	movs	r1, #0
 8003f8c:	4618      	mov	r0, r3
 8003f8e:	f7ff fbcc 	bl	800372a <LL_ADC_SetSamplingTimeCommonConfig>

      /* Configure the offset: offset enable/disable, channel, offset value */

      /* Shift the offset with respect to the selected ADC resolution. */
      /* Offset has to be left-aligned on bit 11, the LSB (right bits) are set to 0 */
      tmpOffsetShifted = ADC_OFFSET_SHIFT_RESOLUTION(hadc, (uint32_t)pConfig->Offset);
 8003f92:	683b      	ldr	r3, [r7, #0]
 8003f94:	695a      	ldr	r2, [r3, #20]
 8003f96:	687b      	ldr	r3, [r7, #4]
 8003f98:	681b      	ldr	r3, [r3, #0]
 8003f9a:	68db      	ldr	r3, [r3, #12]
 8003f9c:	08db      	lsrs	r3, r3, #3
 8003f9e:	f003 0303 	and.w	r3, r3, #3
 8003fa2:	005b      	lsls	r3, r3, #1
 8003fa4:	fa02 f303 	lsl.w	r3, r2, r3
 8003fa8:	f8c7 30c8 	str.w	r3, [r7, #200]	@ 0xc8

      if (pConfig->OffsetNumber != ADC_OFFSET_NONE)
 8003fac:	683b      	ldr	r3, [r7, #0]
 8003fae:	691b      	ldr	r3, [r3, #16]
 8003fb0:	2b04      	cmp	r3, #4
 8003fb2:	d022      	beq.n	8003ffa <HAL_ADC_ConfigChannel+0x12e>
      {
        /* Set ADC selected offset number */
        LL_ADC_SetOffset(hadc->Instance, pConfig->OffsetNumber, pConfig->Channel, tmpOffsetShifted);
 8003fb4:	687b      	ldr	r3, [r7, #4]
 8003fb6:	6818      	ldr	r0, [r3, #0]
 8003fb8:	683b      	ldr	r3, [r7, #0]
 8003fba:	6919      	ldr	r1, [r3, #16]
 8003fbc:	683b      	ldr	r3, [r7, #0]
 8003fbe:	681a      	ldr	r2, [r3, #0]
 8003fc0:	f8d7 30c8 	ldr.w	r3, [r7, #200]	@ 0xc8
 8003fc4:	f7ff fb26 	bl	8003614 <LL_ADC_SetOffset>

        assert_param(IS_ADC_OFFSET_SIGN(pConfig->OffsetSign));
        assert_param(IS_FUNCTIONAL_STATE(pConfig->OffsetSaturation));
        /* Set ADC selected offset sign & saturation */
        LL_ADC_SetOffsetSign(hadc->Instance, pConfig->OffsetNumber, pConfig->OffsetSign);
 8003fc8:	687b      	ldr	r3, [r7, #4]
 8003fca:	6818      	ldr	r0, [r3, #0]
 8003fcc:	683b      	ldr	r3, [r7, #0]
 8003fce:	6919      	ldr	r1, [r3, #16]
 8003fd0:	683b      	ldr	r3, [r7, #0]
 8003fd2:	699b      	ldr	r3, [r3, #24]
 8003fd4:	461a      	mov	r2, r3
 8003fd6:	f7ff fb72 	bl	80036be <LL_ADC_SetOffsetSign>
        LL_ADC_SetOffsetSaturation(hadc->Instance, pConfig->OffsetNumber,
 8003fda:	687b      	ldr	r3, [r7, #4]
 8003fdc:	6818      	ldr	r0, [r3, #0]
 8003fde:	683b      	ldr	r3, [r7, #0]
 8003fe0:	6919      	ldr	r1, [r3, #16]
                                   (pConfig->OffsetSaturation == ENABLE) ?
 8003fe2:	683b      	ldr	r3, [r7, #0]
 8003fe4:	7f1b      	ldrb	r3, [r3, #28]
        LL_ADC_SetOffsetSaturation(hadc->Instance, pConfig->OffsetNumber,
 8003fe6:	2b01      	cmp	r3, #1
 8003fe8:	d102      	bne.n	8003ff0 <HAL_ADC_ConfigChannel+0x124>
 8003fea:	f04f 7300 	mov.w	r3, #33554432	@ 0x2000000
 8003fee:	e000      	b.n	8003ff2 <HAL_ADC_ConfigChannel+0x126>
 8003ff0:	2300      	movs	r3, #0
 8003ff2:	461a      	mov	r2, r3
 8003ff4:	f7ff fb7e 	bl	80036f4 <LL_ADC_SetOffsetSaturation>
 8003ff8:	e17b      	b.n	80042f2 <HAL_ADC_ConfigChannel+0x426>
      }
      else
      {
        /* Scan each offset register to check if the selected channel is targeted. */
        /* If this is the case, the corresponding offset number is disabled.       */
        if (__LL_ADC_CHANNEL_TO_DECIMAL_NB(LL_ADC_GetOffsetChannel(hadc->Instance, LL_ADC_OFFSET_1))
 8003ffa:	687b      	ldr	r3, [r7, #4]
 8003ffc:	681b      	ldr	r3, [r3, #0]
 8003ffe:	2100      	movs	r1, #0
 8004000:	4618      	mov	r0, r3
 8004002:	f7ff fb2b 	bl	800365c <LL_ADC_GetOffsetChannel>
 8004006:	4603      	mov	r3, r0
 8004008:	f3c3 0312 	ubfx	r3, r3, #0, #19
 800400c:	2b00      	cmp	r3, #0
 800400e:	d10a      	bne.n	8004026 <HAL_ADC_ConfigChannel+0x15a>
 8004010:	687b      	ldr	r3, [r7, #4]
 8004012:	681b      	ldr	r3, [r3, #0]
 8004014:	2100      	movs	r1, #0
 8004016:	4618      	mov	r0, r3
 8004018:	f7ff fb20 	bl	800365c <LL_ADC_GetOffsetChannel>
 800401c:	4603      	mov	r3, r0
 800401e:	0e9b      	lsrs	r3, r3, #26
 8004020:	f003 021f 	and.w	r2, r3, #31
 8004024:	e01e      	b.n	8004064 <HAL_ADC_ConfigChannel+0x198>
 8004026:	687b      	ldr	r3, [r7, #4]
 8004028:	681b      	ldr	r3, [r3, #0]
 800402a:	2100      	movs	r1, #0
 800402c:	4618      	mov	r0, r3
 800402e:	f7ff fb15 	bl	800365c <LL_ADC_GetOffsetChannel>
 8004032:	4603      	mov	r3, r0
 8004034:	f8c7 30bc 	str.w	r3, [r7, #188]	@ 0xbc
  uint32_t result;

#if ((defined (__ARM_ARCH_7M__      ) && (__ARM_ARCH_7M__      == 1)) || \
     (defined (__ARM_ARCH_7EM__     ) && (__ARM_ARCH_7EM__     == 1)) || \
     (defined (__ARM_ARCH_8M_MAIN__ ) && (__ARM_ARCH_8M_MAIN__ == 1))    )
   __ASM volatile ("rbit %0, %1" : "=r" (result) : "r" (value) );
 8004038:	f8d7 30bc 	ldr.w	r3, [r7, #188]	@ 0xbc
 800403c:	fa93 f3a3 	rbit	r3, r3
 8004040:	f8c7 30c0 	str.w	r3, [r7, #192]	@ 0xc0
    result |= value & 1U;
    s--;
  }
  result <<= s;                        /* shift when v's highest bits are zero */
#endif
  return result;
 8004044:	f8d7 30c0 	ldr.w	r3, [r7, #192]	@ 0xc0
 8004048:	f8c7 30b8 	str.w	r3, [r7, #184]	@ 0xb8
     optimisations using the logic "value was passed to __builtin_clz, so it
     is non-zero".
     ARM GCC 7.3 and possibly earlier will optimise this test away, leaving a
     single CLZ instruction.
   */
  if (value == 0U)
 800404c:	f8d7 30b8 	ldr.w	r3, [r7, #184]	@ 0xb8
 8004050:	2b00      	cmp	r3, #0
 8004052:	d101      	bne.n	8004058 <HAL_ADC_ConfigChannel+0x18c>
  {
    return 32U;
 8004054:	2320      	movs	r3, #32
 8004056:	e004      	b.n	8004062 <HAL_ADC_ConfigChannel+0x196>
  }
  return __builtin_clz(value);
 8004058:	f8d7 30b8 	ldr.w	r3, [r7, #184]	@ 0xb8
 800405c:	fab3 f383 	clz	r3, r3
 8004060:	b2db      	uxtb	r3, r3
 8004062:	461a      	mov	r2, r3
            == __LL_ADC_CHANNEL_TO_DECIMAL_NB(pConfig->Channel))
 8004064:	683b      	ldr	r3, [r7, #0]
 8004066:	681b      	ldr	r3, [r3, #0]
 8004068:	f3c3 0312 	ubfx	r3, r3, #0, #19
 800406c:	2b00      	cmp	r3, #0
 800406e:	d105      	bne.n	800407c <HAL_ADC_ConfigChannel+0x1b0>
 8004070:	683b      	ldr	r3, [r7, #0]
 8004072:	681b      	ldr	r3, [r3, #0]
 8004074:	0e9b      	lsrs	r3, r3, #26
 8004076:	f003 031f 	and.w	r3, r3, #31
 800407a:	e018      	b.n	80040ae <HAL_ADC_ConfigChannel+0x1e2>
 800407c:	683b      	ldr	r3, [r7, #0]
 800407e:	681b      	ldr	r3, [r3, #0]
 8004080:	f8c7 30b0 	str.w	r3, [r7, #176]	@ 0xb0
   __ASM volatile ("rbit %0, %1" : "=r" (result) : "r" (value) );
 8004084:	f8d7 30b0 	ldr.w	r3, [r7, #176]	@ 0xb0
 8004088:	fa93 f3a3 	rbit	r3, r3
 800408c:	f8c7 30ac 	str.w	r3, [r7, #172]	@ 0xac
  return result;
 8004090:	f8d7 30ac 	ldr.w	r3, [r7, #172]	@ 0xac
 8004094:	f8c7 30b4 	str.w	r3, [r7, #180]	@ 0xb4
  if (value == 0U)
 8004098:	f8d7 30b4 	ldr.w	r3, [r7, #180]	@ 0xb4
 800409c:	2b00      	cmp	r3, #0
 800409e:	d101      	bne.n	80040a4 <HAL_ADC_ConfigChannel+0x1d8>
    return 32U;
 80040a0:	2320      	movs	r3, #32
 80040a2:	e004      	b.n	80040ae <HAL_ADC_ConfigChannel+0x1e2>
  return __builtin_clz(value);
 80040a4:	f8d7 30b4 	ldr.w	r3, [r7, #180]	@ 0xb4
 80040a8:	fab3 f383 	clz	r3, r3
 80040ac:	b2db      	uxtb	r3, r3
        if (__LL_ADC_CHANNEL_TO_DECIMAL_NB(LL_ADC_GetOffsetChannel(hadc->Instance, LL_ADC_OFFSET_1))
 80040ae:	429a      	cmp	r2, r3
 80040b0:	d106      	bne.n	80040c0 <HAL_ADC_ConfigChannel+0x1f4>
        {
          LL_ADC_SetOffsetState(hadc->Instance, LL_ADC_OFFSET_1, LL_ADC_OFFSET_DISABLE);
 80040b2:	687b      	ldr	r3, [r7, #4]
 80040b4:	681b      	ldr	r3, [r3, #0]
 80040b6:	2200      	movs	r2, #0
 80040b8:	2100      	movs	r1, #0
 80040ba:	4618      	mov	r0, r3
 80040bc:	f7ff fae4 	bl	8003688 <LL_ADC_SetOffsetState>
        }
        if (__LL_ADC_CHANNEL_TO_DECIMAL_NB(LL_ADC_GetOffsetChannel(hadc->Instance, LL_ADC_OFFSET_2))
 80040c0:	687b      	ldr	r3, [r7, #4]
 80040c2:	681b      	ldr	r3, [r3, #0]
 80040c4:	2101      	movs	r1, #1
 80040c6:	4618      	mov	r0, r3
 80040c8:	f7ff fac8 	bl	800365c <LL_ADC_GetOffsetChannel>
 80040cc:	4603      	mov	r3, r0
 80040ce:	f3c3 0312 	ubfx	r3, r3, #0, #19
 80040d2:	2b00      	cmp	r3, #0
 80040d4:	d10a      	bne.n	80040ec <HAL_ADC_ConfigChannel+0x220>
 80040d6:	687b      	ldr	r3, [r7, #4]
 80040d8:	681b      	ldr	r3, [r3, #0]
 80040da:	2101      	movs	r1, #1
 80040dc:	4618      	mov	r0, r3
 80040de:	f7ff fabd 	bl	800365c <LL_ADC_GetOffsetChannel>
 80040e2:	4603      	mov	r3, r0
 80040e4:	0e9b      	lsrs	r3, r3, #26
 80040e6:	f003 021f 	and.w	r2, r3, #31
 80040ea:	e01e      	b.n	800412a <HAL_ADC_ConfigChannel+0x25e>
 80040ec:	687b      	ldr	r3, [r7, #4]
 80040ee:	681b      	ldr	r3, [r3, #0]
 80040f0:	2101      	movs	r1, #1
 80040f2:	4618      	mov	r0, r3
 80040f4:	f7ff fab2 	bl	800365c <LL_ADC_GetOffsetChannel>
 80040f8:	4603      	mov	r3, r0
 80040fa:	f8c7 30a4 	str.w	r3, [r7, #164]	@ 0xa4
   __ASM volatile ("rbit %0, %1" : "=r" (result) : "r" (value) );
 80040fe:	f8d7 30a4 	ldr.w	r3, [r7, #164]	@ 0xa4
 8004102:	fa93 f3a3 	rbit	r3, r3
 8004106:	f8c7 30a0 	str.w	r3, [r7, #160]	@ 0xa0
  return result;
 800410a:	f8d7 30a0 	ldr.w	r3, [r7, #160]	@ 0xa0
 800410e:	f8c7 30a8 	str.w	r3, [r7, #168]	@ 0xa8
  if (value == 0U)
 8004112:	f8d7 30a8 	ldr.w	r3, [r7, #168]	@ 0xa8
 8004116:	2b00      	cmp	r3, #0
 8004118:	d101      	bne.n	800411e <HAL_ADC_ConfigChannel+0x252>
    return 32U;
 800411a:	2320      	movs	r3, #32
 800411c:	e004      	b.n	8004128 <HAL_ADC_ConfigChannel+0x25c>
  return __builtin_clz(value);
 800411e:	f8d7 30a8 	ldr.w	r3, [r7, #168]	@ 0xa8
 8004122:	fab3 f383 	clz	r3, r3
 8004126:	b2db      	uxtb	r3, r3
 8004128:	461a      	mov	r2, r3
            == __LL_ADC_CHANNEL_TO_DECIMAL_NB(pConfig->Channel))
 800412a:	683b      	ldr	r3, [r7, #0]
 800412c:	681b      	ldr	r3, [r3, #0]
 800412e:	f3c3 0312 	ubfx	r3, r3, #0, #19
 8004132:	2b00      	cmp	r3, #0
 8004134:	d105      	bne.n	8004142 <HAL_ADC_ConfigChannel+0x276>
 8004136:	683b      	ldr	r3, [r7, #0]
 8004138:	681b      	ldr	r3, [r3, #0]
 800413a:	0e9b      	lsrs	r3, r3, #26
 800413c:	f003 031f 	and.w	r3, r3, #31
 8004140:	e018      	b.n	8004174 <HAL_ADC_ConfigChannel+0x2a8>
 8004142:	683b      	ldr	r3, [r7, #0]
 8004144:	681b      	ldr	r3, [r3, #0]
 8004146:	f8c7 3098 	str.w	r3, [r7, #152]	@ 0x98
   __ASM volatile ("rbit %0, %1" : "=r" (result) : "r" (value) );
 800414a:	f8d7 3098 	ldr.w	r3, [r7, #152]	@ 0x98
 800414e:	fa93 f3a3 	rbit	r3, r3
 8004152:	f8c7 3094 	str.w	r3, [r7, #148]	@ 0x94
  return result;
 8004156:	f8d7 3094 	ldr.w	r3, [r7, #148]	@ 0x94
 800415a:	f8c7 309c 	str.w	r3, [r7, #156]	@ 0x9c
  if (value == 0U)
 800415e:	f8d7 309c 	ldr.w	r3, [r7, #156]	@ 0x9c
 8004162:	2b00      	cmp	r3, #0
 8004164:	d101      	bne.n	800416a <HAL_ADC_ConfigChannel+0x29e>
    return 32U;
 8004166:	2320      	movs	r3, #32
 8004168:	e004      	b.n	8004174 <HAL_ADC_ConfigChannel+0x2a8>
  return __builtin_clz(value);
 800416a:	f8d7 309c 	ldr.w	r3, [r7, #156]	@ 0x9c
 800416e:	fab3 f383 	clz	r3, r3
 8004172:	b2db      	uxtb	r3, r3
        if (__LL_ADC_CHANNEL_TO_DECIMAL_NB(LL_ADC_GetOffsetChannel(hadc->Instance, LL_ADC_OFFSET_2))
 8004174:	429a      	cmp	r2, r3
 8004176:	d106      	bne.n	8004186 <HAL_ADC_ConfigChannel+0x2ba>
        {
          LL_ADC_SetOffsetState(hadc->Instance, LL_ADC_OFFSET_2, LL_ADC_OFFSET_DISABLE);
 8004178:	687b      	ldr	r3, [r7, #4]
 800417a:	681b      	ldr	r3, [r3, #0]
 800417c:	2200      	movs	r2, #0
 800417e:	2101      	movs	r1, #1
 8004180:	4618      	mov	r0, r3
 8004182:	f7ff fa81 	bl	8003688 <LL_ADC_SetOffsetState>
        }
        if (__LL_ADC_CHANNEL_TO_DECIMAL_NB(LL_ADC_GetOffsetChannel(hadc->Instance, LL_ADC_OFFSET_3))
 8004186:	687b      	ldr	r3, [r7, #4]
 8004188:	681b      	ldr	r3, [r3, #0]
 800418a:	2102      	movs	r1, #2
 800418c:	4618      	mov	r0, r3
 800418e:	f7ff fa65 	bl	800365c <LL_ADC_GetOffsetChannel>
 8004192:	4603      	mov	r3, r0
 8004194:	f3c3 0312 	ubfx	r3, r3, #0, #19
 8004198:	2b00      	cmp	r3, #0
 800419a:	d10a      	bne.n	80041b2 <HAL_ADC_ConfigChannel+0x2e6>
 800419c:	687b      	ldr	r3, [r7, #4]
 800419e:	681b      	ldr	r3, [r3, #0]
 80041a0:	2102      	movs	r1, #2
 80041a2:	4618      	mov	r0, r3
 80041a4:	f7ff fa5a 	bl	800365c <LL_ADC_GetOffsetChannel>
 80041a8:	4603      	mov	r3, r0
 80041aa:	0e9b      	lsrs	r3, r3, #26
 80041ac:	f003 021f 	and.w	r2, r3, #31
 80041b0:	e01e      	b.n	80041f0 <HAL_ADC_ConfigChannel+0x324>
 80041b2:	687b      	ldr	r3, [r7, #4]
 80041b4:	681b      	ldr	r3, [r3, #0]
 80041b6:	2102      	movs	r1, #2
 80041b8:	4618      	mov	r0, r3
 80041ba:	f7ff fa4f 	bl	800365c <LL_ADC_GetOffsetChannel>
 80041be:	4603      	mov	r3, r0
 80041c0:	f8c7 308c 	str.w	r3, [r7, #140]	@ 0x8c
   __ASM volatile ("rbit %0, %1" : "=r" (result) : "r" (value) );
 80041c4:	f8d7 308c 	ldr.w	r3, [r7, #140]	@ 0x8c
 80041c8:	fa93 f3a3 	rbit	r3, r3
 80041cc:	f8c7 3088 	str.w	r3, [r7, #136]	@ 0x88
  return result;
 80041d0:	f8d7 3088 	ldr.w	r3, [r7, #136]	@ 0x88
 80041d4:	f8c7 3090 	str.w	r3, [r7, #144]	@ 0x90
  if (value == 0U)
 80041d8:	f8d7 3090 	ldr.w	r3, [r7, #144]	@ 0x90
 80041dc:	2b00      	cmp	r3, #0
 80041de:	d101      	bne.n	80041e4 <HAL_ADC_ConfigChannel+0x318>
    return 32U;
 80041e0:	2320      	movs	r3, #32
 80041e2:	e004      	b.n	80041ee <HAL_ADC_ConfigChannel+0x322>
  return __builtin_clz(value);
 80041e4:	f8d7 3090 	ldr.w	r3, [r7, #144]	@ 0x90
 80041e8:	fab3 f383 	clz	r3, r3
 80041ec:	b2db      	uxtb	r3, r3
 80041ee:	461a      	mov	r2, r3
            == __LL_ADC_CHANNEL_TO_DECIMAL_NB(pConfig->Channel))
 80041f0:	683b      	ldr	r3, [r7, #0]
 80041f2:	681b      	ldr	r3, [r3, #0]
 80041f4:	f3c3 0312 	ubfx	r3, r3, #0, #19
 80041f8:	2b00      	cmp	r3, #0
 80041fa:	d105      	bne.n	8004208 <HAL_ADC_ConfigChannel+0x33c>
 80041fc:	683b      	ldr	r3, [r7, #0]
 80041fe:	681b      	ldr	r3, [r3, #0]
 8004200:	0e9b      	lsrs	r3, r3, #26
 8004202:	f003 031f 	and.w	r3, r3, #31
 8004206:	e016      	b.n	8004236 <HAL_ADC_ConfigChannel+0x36a>
 8004208:	683b      	ldr	r3, [r7, #0]
 800420a:	681b      	ldr	r3, [r3, #0]
 800420c:	f8c7 3080 	str.w	r3, [r7, #128]	@ 0x80
   __ASM volatile ("rbit %0, %1" : "=r" (result) : "r" (value) );
 8004210:	f8d7 3080 	ldr.w	r3, [r7, #128]	@ 0x80
 8004214:	fa93 f3a3 	rbit	r3, r3
 8004218:	67fb      	str	r3, [r7, #124]	@ 0x7c
  return result;
 800421a:	6ffb      	ldr	r3, [r7, #124]	@ 0x7c
 800421c:	f8c7 3084 	str.w	r3, [r7, #132]	@ 0x84
  if (value == 0U)
 8004220:	f8d7 3084 	ldr.w	r3, [r7, #132]	@ 0x84
 8004224:	2b00      	cmp	r3, #0
 8004226:	d101      	bne.n	800422c <HAL_ADC_ConfigChannel+0x360>
    return 32U;
 8004228:	2320      	movs	r3, #32
 800422a:	e004      	b.n	8004236 <HAL_ADC_ConfigChannel+0x36a>
  return __builtin_clz(value);
 800422c:	f8d7 3084 	ldr.w	r3, [r7, #132]	@ 0x84
 8004230:	fab3 f383 	clz	r3, r3
 8004234:	b2db      	uxtb	r3, r3
        if (__LL_ADC_CHANNEL_TO_DECIMAL_NB(LL_ADC_GetOffsetChannel(hadc->Instance, LL_ADC_OFFSET_3))
 8004236:	429a      	cmp	r2, r3
 8004238:	d106      	bne.n	8004248 <HAL_ADC_ConfigChannel+0x37c>
        {
          LL_ADC_SetOffsetState(hadc->Instance, LL_ADC_OFFSET_3, LL_ADC_OFFSET_DISABLE);
 800423a:	687b      	ldr	r3, [r7, #4]
 800423c:	681b      	ldr	r3, [r3, #0]
 800423e:	2200      	movs	r2, #0
 8004240:	2102      	movs	r1, #2
 8004242:	4618      	mov	r0, r3
 8004244:	f7ff fa20 	bl	8003688 <LL_ADC_SetOffsetState>
        }
        if (__LL_ADC_CHANNEL_TO_DECIMAL_NB(LL_ADC_GetOffsetChannel(hadc->Instance, LL_ADC_OFFSET_4))
 8004248:	687b      	ldr	r3, [r7, #4]
 800424a:	681b      	ldr	r3, [r3, #0]
 800424c:	2103      	movs	r1, #3
 800424e:	4618      	mov	r0, r3
 8004250:	f7ff fa04 	bl	800365c <LL_ADC_GetOffsetChannel>
 8004254:	4603      	mov	r3, r0
 8004256:	f3c3 0312 	ubfx	r3, r3, #0, #19
 800425a:	2b00      	cmp	r3, #0
 800425c:	d10a      	bne.n	8004274 <HAL_ADC_ConfigChannel+0x3a8>
 800425e:	687b      	ldr	r3, [r7, #4]
 8004260:	681b      	ldr	r3, [r3, #0]
 8004262:	2103      	movs	r1, #3
 8004264:	4618      	mov	r0, r3
 8004266:	f7ff f9f9 	bl	800365c <LL_ADC_GetOffsetChannel>
 800426a:	4603      	mov	r3, r0
 800426c:	0e9b      	lsrs	r3, r3, #26
 800426e:	f003 021f 	and.w	r2, r3, #31
 8004272:	e017      	b.n	80042a4 <HAL_ADC_ConfigChannel+0x3d8>
 8004274:	687b      	ldr	r3, [r7, #4]
 8004276:	681b      	ldr	r3, [r3, #0]
 8004278:	2103      	movs	r1, #3
 800427a:	4618      	mov	r0, r3
 800427c:	f7ff f9ee 	bl	800365c <LL_ADC_GetOffsetChannel>
 8004280:	4603      	mov	r3, r0
 8004282:	677b      	str	r3, [r7, #116]	@ 0x74
   __ASM volatile ("rbit %0, %1" : "=r" (result) : "r" (value) );
 8004284:	6f7b      	ldr	r3, [r7, #116]	@ 0x74
 8004286:	fa93 f3a3 	rbit	r3, r3
 800428a:	673b      	str	r3, [r7, #112]	@ 0x70
  return result;
 800428c:	6f3b      	ldr	r3, [r7, #112]	@ 0x70
 800428e:	67bb      	str	r3, [r7, #120]	@ 0x78
  if (value == 0U)
 8004290:	6fbb      	ldr	r3, [r7, #120]	@ 0x78
 8004292:	2b00      	cmp	r3, #0
 8004294:	d101      	bne.n	800429a <HAL_ADC_ConfigChannel+0x3ce>
    return 32U;
 8004296:	2320      	movs	r3, #32
 8004298:	e003      	b.n	80042a2 <HAL_ADC_ConfigChannel+0x3d6>
  return __builtin_clz(value);
 800429a:	6fbb      	ldr	r3, [r7, #120]	@ 0x78
 800429c:	fab3 f383 	clz	r3, r3
 80042a0:	b2db      	uxtb	r3, r3
 80042a2:	461a      	mov	r2, r3
            == __LL_ADC_CHANNEL_TO_DECIMAL_NB(pConfig->Channel))
 80042a4:	683b      	ldr	r3, [r7, #0]
 80042a6:	681b      	ldr	r3, [r3, #0]
 80042a8:	f3c3 0312 	ubfx	r3, r3, #0, #19
 80042ac:	2b00      	cmp	r3, #0
 80042ae:	d105      	bne.n	80042bc <HAL_ADC_ConfigChannel+0x3f0>
 80042b0:	683b      	ldr	r3, [r7, #0]
 80042b2:	681b      	ldr	r3, [r3, #0]
 80042b4:	0e9b      	lsrs	r3, r3, #26
 80042b6:	f003 031f 	and.w	r3, r3, #31
 80042ba:	e011      	b.n	80042e0 <HAL_ADC_ConfigChannel+0x414>
 80042bc:	683b      	ldr	r3, [r7, #0]
 80042be:	681b      	ldr	r3, [r3, #0]
 80042c0:	66bb      	str	r3, [r7, #104]	@ 0x68
   __ASM volatile ("rbit %0, %1" : "=r" (result) : "r" (value) );
 80042c2:	6ebb      	ldr	r3, [r7, #104]	@ 0x68
 80042c4:	fa93 f3a3 	rbit	r3, r3
 80042c8:	667b      	str	r3, [r7, #100]	@ 0x64
  return result;
 80042ca:	6e7b      	ldr	r3, [r7, #100]	@ 0x64
 80042cc:	66fb      	str	r3, [r7, #108]	@ 0x6c
  if (value == 0U)
 80042ce:	6efb      	ldr	r3, [r7, #108]	@ 0x6c
 80042d0:	2b00      	cmp	r3, #0
 80042d2:	d101      	bne.n	80042d8 <HAL_ADC_ConfigChannel+0x40c>
    return 32U;
 80042d4:	2320      	movs	r3, #32
 80042d6:	e003      	b.n	80042e0 <HAL_ADC_ConfigChannel+0x414>
  return __builtin_clz(value);
 80042d8:	6efb      	ldr	r3, [r7, #108]	@ 0x6c
 80042da:	fab3 f383 	clz	r3, r3
 80042de:	b2db      	uxtb	r3, r3
        if (__LL_ADC_CHANNEL_TO_DECIMAL_NB(LL_ADC_GetOffsetChannel(hadc->Instance, LL_ADC_OFFSET_4))
 80042e0:	429a      	cmp	r2, r3
 80042e2:	d106      	bne.n	80042f2 <HAL_ADC_ConfigChannel+0x426>
        {
          LL_ADC_SetOffsetState(hadc->Instance, LL_ADC_OFFSET_4, LL_ADC_OFFSET_DISABLE);
 80042e4:	687b      	ldr	r3, [r7, #4]
 80042e6:	681b      	ldr	r3, [r3, #0]
 80042e8:	2200      	movs	r2, #0
 80042ea:	2103      	movs	r1, #3
 80042ec:	4618      	mov	r0, r3
 80042ee:	f7ff f9cb 	bl	8003688 <LL_ADC_SetOffsetState>
    }

    /* Parameters update conditioned to ADC state:                              */
    /* Parameters that can be updated only when ADC is disabled:                */
    /*  - Single or differential mode                                           */
    if (LL_ADC_IsEnabled(hadc->Instance) == 0UL)
 80042f2:	687b      	ldr	r3, [r7, #4]
 80042f4:	681b      	ldr	r3, [r3, #0]
 80042f6:	4618      	mov	r0, r3
 80042f8:	f7ff fb3c 	bl	8003974 <LL_ADC_IsEnabled>
 80042fc:	4603      	mov	r3, r0
 80042fe:	2b00      	cmp	r3, #0
 8004300:	f040 8140 	bne.w	8004584 <HAL_ADC_ConfigChannel+0x6b8>
    {
      /* Set mode single-ended or differential input of the selected ADC channel */
      LL_ADC_SetChannelSingleDiff(hadc->Instance, pConfig->Channel, pConfig->SingleDiff);
 8004304:	687b      	ldr	r3, [r7, #4]
 8004306:	6818      	ldr	r0, [r3, #0]
 8004308:	683b      	ldr	r3, [r7, #0]
 800430a:	6819      	ldr	r1, [r3, #0]
 800430c:	683b      	ldr	r3, [r7, #0]
 800430e:	68db      	ldr	r3, [r3, #12]
 8004310:	461a      	mov	r2, r3
 8004312:	f7ff fa87 	bl	8003824 <LL_ADC_SetChannelSingleDiff>

      /* Configuration of differential mode */
      if (pConfig->SingleDiff == ADC_DIFFERENTIAL_ENDED)
 8004316:	683b      	ldr	r3, [r7, #0]
 8004318:	68db      	ldr	r3, [r3, #12]
 800431a:	4a8f      	ldr	r2, [pc, #572]	@ (8004558 <HAL_ADC_ConfigChannel+0x68c>)
 800431c:	4293      	cmp	r3, r2
 800431e:	f040 8131 	bne.w	8004584 <HAL_ADC_ConfigChannel+0x6b8>
      {
        /* Set sampling time of the selected ADC channel */
        /* Note: ADC channel number masked with value "0x1F" to ensure shift value within 32 bits range */
        LL_ADC_SetChannelSamplingTime(hadc->Instance,
 8004322:	687b      	ldr	r3, [r7, #4]
 8004324:	6818      	ldr	r0, [r3, #0]
                                      (uint32_t)(__LL_ADC_DECIMAL_NB_TO_CHANNEL(
 8004326:	683b      	ldr	r3, [r7, #0]
 8004328:	681b      	ldr	r3, [r3, #0]
 800432a:	f3c3 0312 	ubfx	r3, r3, #0, #19
 800432e:	2b00      	cmp	r3, #0
 8004330:	d10b      	bne.n	800434a <HAL_ADC_ConfigChannel+0x47e>
 8004332:	683b      	ldr	r3, [r7, #0]
 8004334:	681b      	ldr	r3, [r3, #0]
 8004336:	0e9b      	lsrs	r3, r3, #26
 8004338:	3301      	adds	r3, #1
 800433a:	f003 031f 	and.w	r3, r3, #31
 800433e:	2b09      	cmp	r3, #9
 8004340:	bf94      	ite	ls
 8004342:	2301      	movls	r3, #1
 8004344:	2300      	movhi	r3, #0
 8004346:	b2db      	uxtb	r3, r3
 8004348:	e019      	b.n	800437e <HAL_ADC_ConfigChannel+0x4b2>
 800434a:	683b      	ldr	r3, [r7, #0]
 800434c:	681b      	ldr	r3, [r3, #0]
 800434e:	65fb      	str	r3, [r7, #92]	@ 0x5c
   __ASM volatile ("rbit %0, %1" : "=r" (result) : "r" (value) );
 8004350:	6dfb      	ldr	r3, [r7, #92]	@ 0x5c
 8004352:	fa93 f3a3 	rbit	r3, r3
 8004356:	65bb      	str	r3, [r7, #88]	@ 0x58
  return result;
 8004358:	6dbb      	ldr	r3, [r7, #88]	@ 0x58
 800435a:	663b      	str	r3, [r7, #96]	@ 0x60
  if (value == 0U)
 800435c:	6e3b      	ldr	r3, [r7, #96]	@ 0x60
 800435e:	2b00      	cmp	r3, #0
 8004360:	d101      	bne.n	8004366 <HAL_ADC_ConfigChannel+0x49a>
    return 32U;
 8004362:	2320      	movs	r3, #32
 8004364:	e003      	b.n	800436e <HAL_ADC_ConfigChannel+0x4a2>
  return __builtin_clz(value);
 8004366:	6e3b      	ldr	r3, [r7, #96]	@ 0x60
 8004368:	fab3 f383 	clz	r3, r3
 800436c:	b2db      	uxtb	r3, r3
 800436e:	3301      	adds	r3, #1
 8004370:	f003 031f 	and.w	r3, r3, #31
 8004374:	2b09      	cmp	r3, #9
 8004376:	bf94      	ite	ls
 8004378:	2301      	movls	r3, #1
 800437a:	2300      	movhi	r3, #0
 800437c:	b2db      	uxtb	r3, r3
        LL_ADC_SetChannelSamplingTime(hadc->Instance,
 800437e:	2b00      	cmp	r3, #0
 8004380:	d079      	beq.n	8004476 <HAL_ADC_ConfigChannel+0x5aa>
                                      (uint32_t)(__LL_ADC_DECIMAL_NB_TO_CHANNEL(
 8004382:	683b      	ldr	r3, [r7, #0]
 8004384:	681b      	ldr	r3, [r3, #0]
 8004386:	f3c3 0312 	ubfx	r3, r3, #0, #19
 800438a:	2b00      	cmp	r3, #0
 800438c:	d107      	bne.n	800439e <HAL_ADC_ConfigChannel+0x4d2>
 800438e:	683b      	ldr	r3, [r7, #0]
 8004390:	681b      	ldr	r3, [r3, #0]
 8004392:	0e9b      	lsrs	r3, r3, #26
 8004394:	3301      	adds	r3, #1
 8004396:	069b      	lsls	r3, r3, #26
 8004398:	f003 42f8 	and.w	r2, r3, #2080374784	@ 0x7c000000
 800439c:	e015      	b.n	80043ca <HAL_ADC_ConfigChannel+0x4fe>
 800439e:	683b      	ldr	r3, [r7, #0]
 80043a0:	681b      	ldr	r3, [r3, #0]
 80043a2:	653b      	str	r3, [r7, #80]	@ 0x50
   __ASM volatile ("rbit %0, %1" : "=r" (result) : "r" (value) );
 80043a4:	6d3b      	ldr	r3, [r7, #80]	@ 0x50
 80043a6:	fa93 f3a3 	rbit	r3, r3
 80043aa:	64fb      	str	r3, [r7, #76]	@ 0x4c
  return result;
 80043ac:	6cfb      	ldr	r3, [r7, #76]	@ 0x4c
 80043ae:	657b      	str	r3, [r7, #84]	@ 0x54
  if (value == 0U)
 80043b0:	6d7b      	ldr	r3, [r7, #84]	@ 0x54
 80043b2:	2b00      	cmp	r3, #0
 80043b4:	d101      	bne.n	80043ba <HAL_ADC_ConfigChannel+0x4ee>
    return 32U;
 80043b6:	2320      	movs	r3, #32
 80043b8:	e003      	b.n	80043c2 <HAL_ADC_ConfigChannel+0x4f6>
  return __builtin_clz(value);
 80043ba:	6d7b      	ldr	r3, [r7, #84]	@ 0x54
 80043bc:	fab3 f383 	clz	r3, r3
 80043c0:	b2db      	uxtb	r3, r3
 80043c2:	3301      	adds	r3, #1
 80043c4:	069b      	lsls	r3, r3, #26
 80043c6:	f003 42f8 	and.w	r2, r3, #2080374784	@ 0x7c000000
 80043ca:	683b      	ldr	r3, [r7, #0]
 80043cc:	681b      	ldr	r3, [r3, #0]
 80043ce:	f3c3 0312 	ubfx	r3, r3, #0, #19
 80043d2:	2b00      	cmp	r3, #0
 80043d4:	d109      	bne.n	80043ea <HAL_ADC_ConfigChannel+0x51e>
 80043d6:	683b      	ldr	r3, [r7, #0]
 80043d8:	681b      	ldr	r3, [r3, #0]
 80043da:	0e9b      	lsrs	r3, r3, #26
 80043dc:	3301      	adds	r3, #1
 80043de:	f003 031f 	and.w	r3, r3, #31
 80043e2:	2101      	movs	r1, #1
 80043e4:	fa01 f303 	lsl.w	r3, r1, r3
 80043e8:	e017      	b.n	800441a <HAL_ADC_ConfigChannel+0x54e>
 80043ea:	683b      	ldr	r3, [r7, #0]
 80043ec:	681b      	ldr	r3, [r3, #0]
 80043ee:	647b      	str	r3, [r7, #68]	@ 0x44
   __ASM volatile ("rbit %0, %1" : "=r" (result) : "r" (value) );
 80043f0:	6c7b      	ldr	r3, [r7, #68]	@ 0x44
 80043f2:	fa93 f3a3 	rbit	r3, r3
 80043f6:	643b      	str	r3, [r7, #64]	@ 0x40
  return result;
 80043f8:	6c3b      	ldr	r3, [r7, #64]	@ 0x40
 80043fa:	64bb      	str	r3, [r7, #72]	@ 0x48
  if (value == 0U)
 80043fc:	6cbb      	ldr	r3, [r7, #72]	@ 0x48
 80043fe:	2b00      	cmp	r3, #0
 8004400:	d101      	bne.n	8004406 <HAL_ADC_ConfigChannel+0x53a>
    return 32U;
 8004402:	2320      	movs	r3, #32
 8004404:	e003      	b.n	800440e <HAL_ADC_ConfigChannel+0x542>
  return __builtin_clz(value);
 8004406:	6cbb      	ldr	r3, [r7, #72]	@ 0x48
 8004408:	fab3 f383 	clz	r3, r3
 800440c:	b2db      	uxtb	r3, r3
 800440e:	3301      	adds	r3, #1
 8004410:	f003 031f 	and.w	r3, r3, #31
 8004414:	2101      	movs	r1, #1
 8004416:	fa01 f303 	lsl.w	r3, r1, r3
 800441a:	ea42 0103 	orr.w	r1, r2, r3
 800441e:	683b      	ldr	r3, [r7, #0]
 8004420:	681b      	ldr	r3, [r3, #0]
 8004422:	f3c3 0312 	ubfx	r3, r3, #0, #19
 8004426:	2b00      	cmp	r3, #0
 8004428:	d10a      	bne.n	8004440 <HAL_ADC_ConfigChannel+0x574>
 800442a:	683b      	ldr	r3, [r7, #0]
 800442c:	681b      	ldr	r3, [r3, #0]
 800442e:	0e9b      	lsrs	r3, r3, #26
 8004430:	3301      	adds	r3, #1
 8004432:	f003 021f 	and.w	r2, r3, #31
 8004436:	4613      	mov	r3, r2
 8004438:	005b      	lsls	r3, r3, #1
 800443a:	4413      	add	r3, r2
 800443c:	051b      	lsls	r3, r3, #20
 800443e:	e018      	b.n	8004472 <HAL_ADC_ConfigChannel+0x5a6>
 8004440:	683b      	ldr	r3, [r7, #0]
 8004442:	681b      	ldr	r3, [r3, #0]
 8004444:	63bb      	str	r3, [r7, #56]	@ 0x38
   __ASM volatile ("rbit %0, %1" : "=r" (result) : "r" (value) );
 8004446:	6bbb      	ldr	r3, [r7, #56]	@ 0x38
 8004448:	fa93 f3a3 	rbit	r3, r3
 800444c:	637b      	str	r3, [r7, #52]	@ 0x34
  return result;
 800444e:	6b7b      	ldr	r3, [r7, #52]	@ 0x34
 8004450:	63fb      	str	r3, [r7, #60]	@ 0x3c
  if (value == 0U)
 8004452:	6bfb      	ldr	r3, [r7, #60]	@ 0x3c
 8004454:	2b00      	cmp	r3, #0
 8004456:	d101      	bne.n	800445c <HAL_ADC_ConfigChannel+0x590>
    return 32U;
 8004458:	2320      	movs	r3, #32
 800445a:	e003      	b.n	8004464 <HAL_ADC_ConfigChannel+0x598>
  return __builtin_clz(value);
 800445c:	6bfb      	ldr	r3, [r7, #60]	@ 0x3c
 800445e:	fab3 f383 	clz	r3, r3
 8004462:	b2db      	uxtb	r3, r3
 8004464:	3301      	adds	r3, #1
 8004466:	f003 021f 	and.w	r2, r3, #31
 800446a:	4613      	mov	r3, r2
 800446c:	005b      	lsls	r3, r3, #1
 800446e:	4413      	add	r3, r2
 8004470:	051b      	lsls	r3, r3, #20
        LL_ADC_SetChannelSamplingTime(hadc->Instance,
 8004472:	430b      	orrs	r3, r1
 8004474:	e081      	b.n	800457a <HAL_ADC_ConfigChannel+0x6ae>
                                      (uint32_t)(__LL_ADC_DECIMAL_NB_TO_CHANNEL(
 8004476:	683b      	ldr	r3, [r7, #0]
 8004478:	681b      	ldr	r3, [r3, #0]
 800447a:	f3c3 0312 	ubfx	r3, r3, #0, #19
 800447e:	2b00      	cmp	r3, #0
 8004480:	d107      	bne.n	8004492 <HAL_ADC_ConfigChannel+0x5c6>
 8004482:	683b      	ldr	r3, [r7, #0]
 8004484:	681b      	ldr	r3, [r3, #0]
 8004486:	0e9b      	lsrs	r3, r3, #26
 8004488:	3301      	adds	r3, #1
 800448a:	069b      	lsls	r3, r3, #26
 800448c:	f003 42f8 	and.w	r2, r3, #2080374784	@ 0x7c000000
 8004490:	e015      	b.n	80044be <HAL_ADC_ConfigChannel+0x5f2>
 8004492:	683b      	ldr	r3, [r7, #0]
 8004494:	681b      	ldr	r3, [r3, #0]
 8004496:	62fb      	str	r3, [r7, #44]	@ 0x2c
   __ASM volatile ("rbit %0, %1" : "=r" (result) : "r" (value) );
 8004498:	6afb      	ldr	r3, [r7, #44]	@ 0x2c
 800449a:	fa93 f3a3 	rbit	r3, r3
 800449e:	62bb      	str	r3, [r7, #40]	@ 0x28
  return result;
 80044a0:	6abb      	ldr	r3, [r7, #40]	@ 0x28
 80044a2:	633b      	str	r3, [r7, #48]	@ 0x30
  if (value == 0U)
 80044a4:	6b3b      	ldr	r3, [r7, #48]	@ 0x30
 80044a6:	2b00      	cmp	r3, #0
 80044a8:	d101      	bne.n	80044ae <HAL_ADC_ConfigChannel+0x5e2>
    return 32U;
 80044aa:	2320      	movs	r3, #32
 80044ac:	e003      	b.n	80044b6 <HAL_ADC_ConfigChannel+0x5ea>
  return __builtin_clz(value);
 80044ae:	6b3b      	ldr	r3, [r7, #48]	@ 0x30
 80044b0:	fab3 f383 	clz	r3, r3
 80044b4:	b2db      	uxtb	r3, r3
 80044b6:	3301      	adds	r3, #1
 80044b8:	069b      	lsls	r3, r3, #26
 80044ba:	f003 42f8 	and.w	r2, r3, #2080374784	@ 0x7c000000
 80044be:	683b      	ldr	r3, [r7, #0]
 80044c0:	681b      	ldr	r3, [r3, #0]
 80044c2:	f3c3 0312 	ubfx	r3, r3, #0, #19
 80044c6:	2b00      	cmp	r3, #0
 80044c8:	d109      	bne.n	80044de <HAL_ADC_ConfigChannel+0x612>
 80044ca:	683b      	ldr	r3, [r7, #0]
 80044cc:	681b      	ldr	r3, [r3, #0]
 80044ce:	0e9b      	lsrs	r3, r3, #26
 80044d0:	3301      	adds	r3, #1
 80044d2:	f003 031f 	and.w	r3, r3, #31
 80044d6:	2101      	movs	r1, #1
 80044d8:	fa01 f303 	lsl.w	r3, r1, r3
 80044dc:	e017      	b.n	800450e <HAL_ADC_ConfigChannel+0x642>
 80044de:	683b      	ldr	r3, [r7, #0]
 80044e0:	681b      	ldr	r3, [r3, #0]
 80044e2:	623b      	str	r3, [r7, #32]
   __ASM volatile ("rbit %0, %1" : "=r" (result) : "r" (value) );
 80044e4:	6a3b      	ldr	r3, [r7, #32]
 80044e6:	fa93 f3a3 	rbit	r3, r3
 80044ea:	61fb      	str	r3, [r7, #28]
  return result;
 80044ec:	69fb      	ldr	r3, [r7, #28]
 80044ee:	627b      	str	r3, [r7, #36]	@ 0x24
  if (value == 0U)
 80044f0:	6a7b      	ldr	r3, [r7, #36]	@ 0x24
 80044f2:	2b00      	cmp	r3, #0
 80044f4:	d101      	bne.n	80044fa <HAL_ADC_ConfigChannel+0x62e>
    return 32U;
 80044f6:	2320      	movs	r3, #32
 80044f8:	e003      	b.n	8004502 <HAL_ADC_ConfigChannel+0x636>
  return __builtin_clz(value);
 80044fa:	6a7b      	ldr	r3, [r7, #36]	@ 0x24
 80044fc:	fab3 f383 	clz	r3, r3
 8004500:	b2db      	uxtb	r3, r3
 8004502:	3301      	adds	r3, #1
 8004504:	f003 031f 	and.w	r3, r3, #31
 8004508:	2101      	movs	r1, #1
 800450a:	fa01 f303 	lsl.w	r3, r1, r3
 800450e:	ea42 0103 	orr.w	r1, r2, r3
 8004512:	683b      	ldr	r3, [r7, #0]
 8004514:	681b      	ldr	r3, [r3, #0]
 8004516:	f3c3 0312 	ubfx	r3, r3, #0, #19
 800451a:	2b00      	cmp	r3, #0
 800451c:	d10d      	bne.n	800453a <HAL_ADC_ConfigChannel+0x66e>
 800451e:	683b      	ldr	r3, [r7, #0]
 8004520:	681b      	ldr	r3, [r3, #0]
 8004522:	0e9b      	lsrs	r3, r3, #26
 8004524:	3301      	adds	r3, #1
 8004526:	f003 021f 	and.w	r2, r3, #31
 800452a:	4613      	mov	r3, r2
 800452c:	005b      	lsls	r3, r3, #1
 800452e:	4413      	add	r3, r2
 8004530:	3b1e      	subs	r3, #30
 8004532:	051b      	lsls	r3, r3, #20
 8004534:	f043 7300 	orr.w	r3, r3, #33554432	@ 0x2000000
 8004538:	e01e      	b.n	8004578 <HAL_ADC_ConfigChannel+0x6ac>
 800453a:	683b      	ldr	r3, [r7, #0]
 800453c:	681b      	ldr	r3, [r3, #0]
 800453e:	617b      	str	r3, [r7, #20]
   __ASM volatile ("rbit %0, %1" : "=r" (result) : "r" (value) );
 8004540:	697b      	ldr	r3, [r7, #20]
 8004542:	fa93 f3a3 	rbit	r3, r3
 8004546:	613b      	str	r3, [r7, #16]
  return result;
 8004548:	693b      	ldr	r3, [r7, #16]
 800454a:	61bb      	str	r3, [r7, #24]
  if (value == 0U)
 800454c:	69bb      	ldr	r3, [r7, #24]
 800454e:	2b00      	cmp	r3, #0
 8004550:	d104      	bne.n	800455c <HAL_ADC_ConfigChannel+0x690>
    return 32U;
 8004552:	2320      	movs	r3, #32
 8004554:	e006      	b.n	8004564 <HAL_ADC_ConfigChannel+0x698>
 8004556:	bf00      	nop
 8004558:	407f0000 	.word	0x407f0000
  return __builtin_clz(value);
 800455c:	69bb      	ldr	r3, [r7, #24]
 800455e:	fab3 f383 	clz	r3, r3
 8004562:	b2db      	uxtb	r3, r3
 8004564:	3301      	adds	r3, #1
 8004566:	f003 021f 	and.w	r2, r3, #31
 800456a:	4613      	mov	r3, r2
 800456c:	005b      	lsls	r3, r3, #1
 800456e:	4413      	add	r3, r2
 8004570:	3b1e      	subs	r3, #30
 8004572:	051b      	lsls	r3, r3, #20
 8004574:	f043 7300 	orr.w	r3, r3, #33554432	@ 0x2000000
        LL_ADC_SetChannelSamplingTime(hadc->Instance,
 8004578:	430b      	orrs	r3, r1
                                                   (__LL_ADC_CHANNEL_TO_DECIMAL_NB((uint32_t)pConfig->Channel)
                                                    + 1UL) & 0x1FUL)),
                                      pConfig->SamplingTime);
 800457a:	683a      	ldr	r2, [r7, #0]
 800457c:	6892      	ldr	r2, [r2, #8]
        LL_ADC_SetChannelSamplingTime(hadc->Instance,
 800457e:	4619      	mov	r1, r3
 8004580:	f7ff f925 	bl	80037ce <LL_ADC_SetChannelSamplingTime>
    /* If internal channel selected, enable dedicated internal buffers and    */
    /* paths.                                                                 */
    /* Note: these internal measurement paths can be disabled using           */
    /* HAL_ADC_DeInit().                                                      */

    if (__LL_ADC_IS_CHANNEL_INTERNAL(pConfig->Channel))
 8004584:	683b      	ldr	r3, [r7, #0]
 8004586:	681a      	ldr	r2, [r3, #0]
 8004588:	4b3f      	ldr	r3, [pc, #252]	@ (8004688 <HAL_ADC_ConfigChannel+0x7bc>)
 800458a:	4013      	ands	r3, r2
 800458c:	2b00      	cmp	r3, #0
 800458e:	d071      	beq.n	8004674 <HAL_ADC_ConfigChannel+0x7a8>
    {
      tmp_config_internal_channel = LL_ADC_GetCommonPathInternalCh(__LL_ADC_COMMON_INSTANCE(hadc->Instance));
 8004590:	483e      	ldr	r0, [pc, #248]	@ (800468c <HAL_ADC_ConfigChannel+0x7c0>)
 8004592:	f7ff f831 	bl	80035f8 <LL_ADC_GetCommonPathInternalCh>
 8004596:	f8c7 00c4 	str.w	r0, [r7, #196]	@ 0xc4

      /* If the requested internal measurement path has already been enabled, */
      /* bypass the configuration processing.                                 */
      if (((pConfig->Channel == ADC_CHANNEL_TEMPSENSOR_ADC1) || (pConfig->Channel == ADC_CHANNEL_TEMPSENSOR_ADC5))
 800459a:	683b      	ldr	r3, [r7, #0]
 800459c:	681b      	ldr	r3, [r3, #0]
 800459e:	4a3c      	ldr	r2, [pc, #240]	@ (8004690 <HAL_ADC_ConfigChannel+0x7c4>)
 80045a0:	4293      	cmp	r3, r2
 80045a2:	d004      	beq.n	80045ae <HAL_ADC_ConfigChannel+0x6e2>
 80045a4:	683b      	ldr	r3, [r7, #0]
 80045a6:	681b      	ldr	r3, [r3, #0]
 80045a8:	4a3a      	ldr	r2, [pc, #232]	@ (8004694 <HAL_ADC_ConfigChannel+0x7c8>)
 80045aa:	4293      	cmp	r3, r2
 80045ac:	d127      	bne.n	80045fe <HAL_ADC_ConfigChannel+0x732>
          && ((tmp_config_internal_channel & LL_ADC_PATH_INTERNAL_TEMPSENSOR) == 0UL))
 80045ae:	f8d7 30c4 	ldr.w	r3, [r7, #196]	@ 0xc4
 80045b2:	f403 0300 	and.w	r3, r3, #8388608	@ 0x800000
 80045b6:	2b00      	cmp	r3, #0
 80045b8:	d121      	bne.n	80045fe <HAL_ADC_ConfigChannel+0x732>
      {
        if (ADC_TEMPERATURE_SENSOR_INSTANCE(hadc))
 80045ba:	687b      	ldr	r3, [r7, #4]
 80045bc:	681b      	ldr	r3, [r3, #0]
 80045be:	f1b3 4fa0 	cmp.w	r3, #1342177280	@ 0x50000000
 80045c2:	d157      	bne.n	8004674 <HAL_ADC_ConfigChannel+0x7a8>
        {
          LL_ADC_SetCommonPathInternalCh(__LL_ADC_COMMON_INSTANCE(hadc->Instance),
 80045c4:	f8d7 30c4 	ldr.w	r3, [r7, #196]	@ 0xc4
 80045c8:	f443 0300 	orr.w	r3, r3, #8388608	@ 0x800000
 80045cc:	4619      	mov	r1, r3
 80045ce:	482f      	ldr	r0, [pc, #188]	@ (800468c <HAL_ADC_ConfigChannel+0x7c0>)
 80045d0:	f7fe ffff 	bl	80035d2 <LL_ADC_SetCommonPathInternalCh>
          /* Delay for temperature sensor stabilization time */
          /* Wait loop initialization and execution */
          /* Note: Variable divided by 2 to compensate partially              */
          /*       CPU processing cycles, scaling in us split to not          */
          /*       exceed 32 bits register capacity and handle low frequency. */
          wait_loop_index = ((LL_ADC_DELAY_TEMPSENSOR_STAB_US / 10UL) * ((SystemCoreClock / (100000UL * 2UL)) + 1UL));
 80045d4:	4b30      	ldr	r3, [pc, #192]	@ (8004698 <HAL_ADC_ConfigChannel+0x7cc>)
 80045d6:	681b      	ldr	r3, [r3, #0]
 80045d8:	099b      	lsrs	r3, r3, #6
 80045da:	4a30      	ldr	r2, [pc, #192]	@ (800469c <HAL_ADC_ConfigChannel+0x7d0>)
 80045dc:	fba2 2303 	umull	r2, r3, r2, r3
 80045e0:	099b      	lsrs	r3, r3, #6
 80045e2:	1c5a      	adds	r2, r3, #1
 80045e4:	4613      	mov	r3, r2
 80045e6:	005b      	lsls	r3, r3, #1
 80045e8:	4413      	add	r3, r2
 80045ea:	009b      	lsls	r3, r3, #2
 80045ec:	60fb      	str	r3, [r7, #12]
          while (wait_loop_index != 0UL)
 80045ee:	e002      	b.n	80045f6 <HAL_ADC_ConfigChannel+0x72a>
          {
            wait_loop_index--;
 80045f0:	68fb      	ldr	r3, [r7, #12]
 80045f2:	3b01      	subs	r3, #1
 80045f4:	60fb      	str	r3, [r7, #12]
          while (wait_loop_index != 0UL)
 80045f6:	68fb      	ldr	r3, [r7, #12]
 80045f8:	2b00      	cmp	r3, #0
 80045fa:	d1f9      	bne.n	80045f0 <HAL_ADC_ConfigChannel+0x724>
        if (ADC_TEMPERATURE_SENSOR_INSTANCE(hadc))
 80045fc:	e03a      	b.n	8004674 <HAL_ADC_ConfigChannel+0x7a8>
          }
        }
      }
      else if ((pConfig->Channel == ADC_CHANNEL_VBAT)
 80045fe:	683b      	ldr	r3, [r7, #0]
 8004600:	681b      	ldr	r3, [r3, #0]
 8004602:	4a27      	ldr	r2, [pc, #156]	@ (80046a0 <HAL_ADC_ConfigChannel+0x7d4>)
 8004604:	4293      	cmp	r3, r2
 8004606:	d113      	bne.n	8004630 <HAL_ADC_ConfigChannel+0x764>
               && ((tmp_config_internal_channel & LL_ADC_PATH_INTERNAL_VBAT) == 0UL))
 8004608:	f8d7 30c4 	ldr.w	r3, [r7, #196]	@ 0xc4
 800460c:	f003 7380 	and.w	r3, r3, #16777216	@ 0x1000000
 8004610:	2b00      	cmp	r3, #0
 8004612:	d10d      	bne.n	8004630 <HAL_ADC_ConfigChannel+0x764>
      {
        if (ADC_BATTERY_VOLTAGE_INSTANCE(hadc))
 8004614:	687b      	ldr	r3, [r7, #4]
 8004616:	681b      	ldr	r3, [r3, #0]
 8004618:	4a22      	ldr	r2, [pc, #136]	@ (80046a4 <HAL_ADC_ConfigChannel+0x7d8>)
 800461a:	4293      	cmp	r3, r2
 800461c:	d02a      	beq.n	8004674 <HAL_ADC_ConfigChannel+0x7a8>
        {
          LL_ADC_SetCommonPathInternalCh(__LL_ADC_COMMON_INSTANCE(hadc->Instance),
 800461e:	f8d7 30c4 	ldr.w	r3, [r7, #196]	@ 0xc4
 8004622:	f043 7380 	orr.w	r3, r3, #16777216	@ 0x1000000
 8004626:	4619      	mov	r1, r3
 8004628:	4818      	ldr	r0, [pc, #96]	@ (800468c <HAL_ADC_ConfigChannel+0x7c0>)
 800462a:	f7fe ffd2 	bl	80035d2 <LL_ADC_SetCommonPathInternalCh>
        if (ADC_BATTERY_VOLTAGE_INSTANCE(hadc))
 800462e:	e021      	b.n	8004674 <HAL_ADC_ConfigChannel+0x7a8>
                                         LL_ADC_PATH_INTERNAL_VBAT | tmp_config_internal_channel);
        }
      }
      else if ((pConfig->Channel == ADC_CHANNEL_VREFINT)
 8004630:	683b      	ldr	r3, [r7, #0]
 8004632:	681b      	ldr	r3, [r3, #0]
 8004634:	4a1c      	ldr	r2, [pc, #112]	@ (80046a8 <HAL_ADC_ConfigChannel+0x7dc>)
 8004636:	4293      	cmp	r3, r2
 8004638:	d11c      	bne.n	8004674 <HAL_ADC_ConfigChannel+0x7a8>
               && ((tmp_config_internal_channel & LL_ADC_PATH_INTERNAL_VREFINT) == 0UL))
 800463a:	f8d7 30c4 	ldr.w	r3, [r7, #196]	@ 0xc4
 800463e:	f403 0380 	and.w	r3, r3, #4194304	@ 0x400000
 8004642:	2b00      	cmp	r3, #0
 8004644:	d116      	bne.n	8004674 <HAL_ADC_ConfigChannel+0x7a8>
      {
        if (ADC_VREFINT_INSTANCE(hadc))
 8004646:	687b      	ldr	r3, [r7, #4]
 8004648:	681b      	ldr	r3, [r3, #0]
 800464a:	4a16      	ldr	r2, [pc, #88]	@ (80046a4 <HAL_ADC_ConfigChannel+0x7d8>)
 800464c:	4293      	cmp	r3, r2
 800464e:	d011      	beq.n	8004674 <HAL_ADC_ConfigChannel+0x7a8>
        {
          LL_ADC_SetCommonPathInternalCh(__LL_ADC_COMMON_INSTANCE(hadc->Instance),
 8004650:	f8d7 30c4 	ldr.w	r3, [r7, #196]	@ 0xc4
 8004654:	f443 0380 	orr.w	r3, r3, #4194304	@ 0x400000
 8004658:	4619      	mov	r1, r3
 800465a:	480c      	ldr	r0, [pc, #48]	@ (800468c <HAL_ADC_ConfigChannel+0x7c0>)
 800465c:	f7fe ffb9 	bl	80035d2 <LL_ADC_SetCommonPathInternalCh>
 8004660:	e008      	b.n	8004674 <HAL_ADC_ConfigChannel+0x7a8>
  /* channel could be done on neither of the channel configuration structure  */
  /* parameters.                                                              */
  else
  {
    /* Update ADC state machine to error */
    SET_BIT(hadc->State, HAL_ADC_STATE_ERROR_CONFIG);
 8004662:	687b      	ldr	r3, [r7, #4]
 8004664:	6ddb      	ldr	r3, [r3, #92]	@ 0x5c
 8004666:	f043 0220 	orr.w	r2, r3, #32
 800466a:	687b      	ldr	r3, [r7, #4]
 800466c:	65da      	str	r2, [r3, #92]	@ 0x5c

    tmp_hal_status = HAL_ERROR;
 800466e:	2301      	movs	r3, #1
 8004670:	f887 30d7 	strb.w	r3, [r7, #215]	@ 0xd7
  }

  /* Process unlocked */
  __HAL_UNLOCK(hadc);
 8004674:	687b      	ldr	r3, [r7, #4]
 8004676:	2200      	movs	r2, #0
 8004678:	f883 2058 	strb.w	r2, [r3, #88]	@ 0x58

  /* Return function status */
  return tmp_hal_status;
 800467c:	f897 30d7 	ldrb.w	r3, [r7, #215]	@ 0xd7
}
 8004680:	4618      	mov	r0, r3
 8004682:	37d8      	adds	r7, #216	@ 0xd8
 8004684:	46bd      	mov	sp, r7
 8004686:	bd80      	pop	{r7, pc}
 8004688:	80080000 	.word	0x80080000
 800468c:	50000300 	.word	0x50000300
 8004690:	c3210000 	.word	0xc3210000
 8004694:	90c00010 	.word	0x90c00010
 8004698:	20000004 	.word	0x20000004
 800469c:	053e2d63 	.word	0x053e2d63
 80046a0:	c7520000 	.word	0xc7520000
 80046a4:	50000100 	.word	0x50000100
 80046a8:	cb840000 	.word	0xcb840000

080046ac <ADC_Enable>:
  *         and voltage regulator must be enabled (done into HAL_ADC_Init()).
  * @param hadc ADC handle
  * @retval HAL status.
  */
HAL_StatusTypeDef ADC_Enable(ADC_HandleTypeDef *hadc)
{
 80046ac:	b580      	push	{r7, lr}
 80046ae:	b084      	sub	sp, #16
 80046b0:	af00      	add	r7, sp, #0
 80046b2:	6078      	str	r0, [r7, #4]
  uint32_t tickstart;
  __IO uint32_t wait_loop_index = 0UL;
 80046b4:	2300      	movs	r3, #0
 80046b6:	60bb      	str	r3, [r7, #8]

  /* ADC enable and wait for ADC ready (in case of ADC is disabled or         */
  /* enabling phase not yet completed: flag ADC ready not yet set).           */
  /* Timeout implemented to not be stuck if ADC cannot be enabled (possible   */
  /* causes: ADC clock not running, ...).                                     */
  if (LL_ADC_IsEnabled(hadc->Instance) == 0UL)
 80046b8:	687b      	ldr	r3, [r7, #4]
 80046ba:	681b      	ldr	r3, [r3, #0]
 80046bc:	4618      	mov	r0, r3
 80046be:	f7ff f959 	bl	8003974 <LL_ADC_IsEnabled>
 80046c2:	4603      	mov	r3, r0
 80046c4:	2b00      	cmp	r3, #0
 80046c6:	d169      	bne.n	800479c <ADC_Enable+0xf0>
  {
    /* Check if conditions to enable the ADC are fulfilled */
    if ((hadc->Instance->CR & (ADC_CR_ADCAL | ADC_CR_JADSTP | ADC_CR_ADSTP | ADC_CR_JADSTART | ADC_CR_ADSTART
 80046c8:	687b      	ldr	r3, [r7, #4]
 80046ca:	681b      	ldr	r3, [r3, #0]
 80046cc:	689a      	ldr	r2, [r3, #8]
 80046ce:	4b36      	ldr	r3, [pc, #216]	@ (80047a8 <ADC_Enable+0xfc>)
 80046d0:	4013      	ands	r3, r2
 80046d2:	2b00      	cmp	r3, #0
 80046d4:	d00d      	beq.n	80046f2 <ADC_Enable+0x46>
                               | ADC_CR_ADDIS | ADC_CR_ADEN)) != 0UL)
    {
      /* Update ADC state machine to error */
      SET_BIT(hadc->State, HAL_ADC_STATE_ERROR_INTERNAL);
 80046d6:	687b      	ldr	r3, [r7, #4]
 80046d8:	6ddb      	ldr	r3, [r3, #92]	@ 0x5c
 80046da:	f043 0210 	orr.w	r2, r3, #16
 80046de:	687b      	ldr	r3, [r7, #4]
 80046e0:	65da      	str	r2, [r3, #92]	@ 0x5c

      /* Set ADC error code to ADC peripheral internal error */
      SET_BIT(hadc->ErrorCode, HAL_ADC_ERROR_INTERNAL);
 80046e2:	687b      	ldr	r3, [r7, #4]
 80046e4:	6e1b      	ldr	r3, [r3, #96]	@ 0x60
 80046e6:	f043 0201 	orr.w	r2, r3, #1
 80046ea:	687b      	ldr	r3, [r7, #4]
 80046ec:	661a      	str	r2, [r3, #96]	@ 0x60

      return HAL_ERROR;
 80046ee:	2301      	movs	r3, #1
 80046f0:	e055      	b.n	800479e <ADC_Enable+0xf2>
    }

    /* Enable the ADC peripheral */
    LL_ADC_Enable(hadc->Instance);
 80046f2:	687b      	ldr	r3, [r7, #4]
 80046f4:	681b      	ldr	r3, [r3, #0]
 80046f6:	4618      	mov	r0, r3
 80046f8:	f7ff f914 	bl	8003924 <LL_ADC_Enable>

    if ((LL_ADC_GetCommonPathInternalCh(__LL_ADC_COMMON_INSTANCE(hadc->Instance))
 80046fc:	482b      	ldr	r0, [pc, #172]	@ (80047ac <ADC_Enable+0x100>)
 80046fe:	f7fe ff7b 	bl	80035f8 <LL_ADC_GetCommonPathInternalCh>
 8004702:	4603      	mov	r3, r0
         & LL_ADC_PATH_INTERNAL_TEMPSENSOR) != 0UL)
 8004704:	f403 0300 	and.w	r3, r3, #8388608	@ 0x800000
    if ((LL_ADC_GetCommonPathInternalCh(__LL_ADC_COMMON_INSTANCE(hadc->Instance))
 8004708:	2b00      	cmp	r3, #0
 800470a:	d013      	beq.n	8004734 <ADC_Enable+0x88>

      /* Wait loop initialization and execution */
      /* Note: Variable divided by 2 to compensate partially              */
      /*       CPU processing cycles, scaling in us split to not          */
      /*       exceed 32 bits register capacity and handle low frequency. */
      wait_loop_index = ((LL_ADC_DELAY_TEMPSENSOR_STAB_US / 10UL) * ((SystemCoreClock / (100000UL * 2UL)) + 1UL));
 800470c:	4b28      	ldr	r3, [pc, #160]	@ (80047b0 <ADC_Enable+0x104>)
 800470e:	681b      	ldr	r3, [r3, #0]
 8004710:	099b      	lsrs	r3, r3, #6
 8004712:	4a28      	ldr	r2, [pc, #160]	@ (80047b4 <ADC_Enable+0x108>)
 8004714:	fba2 2303 	umull	r2, r3, r2, r3
 8004718:	099b      	lsrs	r3, r3, #6
 800471a:	1c5a      	adds	r2, r3, #1
 800471c:	4613      	mov	r3, r2
 800471e:	005b      	lsls	r3, r3, #1
 8004720:	4413      	add	r3, r2
 8004722:	009b      	lsls	r3, r3, #2
 8004724:	60bb      	str	r3, [r7, #8]
      while (wait_loop_index != 0UL)
 8004726:	e002      	b.n	800472e <ADC_Enable+0x82>
      {
        wait_loop_index--;
 8004728:	68bb      	ldr	r3, [r7, #8]
 800472a:	3b01      	subs	r3, #1
 800472c:	60bb      	str	r3, [r7, #8]
      while (wait_loop_index != 0UL)
 800472e:	68bb      	ldr	r3, [r7, #8]
 8004730:	2b00      	cmp	r3, #0
 8004732:	d1f9      	bne.n	8004728 <ADC_Enable+0x7c>
      }
    }

    /* Wait for ADC effectively enabled */
    tickstart = HAL_GetTick();
 8004734:	f7fe ff0c 	bl	8003550 <HAL_GetTick>
 8004738:	60f8      	str	r0, [r7, #12]

    while (__HAL_ADC_GET_FLAG(hadc, ADC_FLAG_RDY) == 0UL)
 800473a:	e028      	b.n	800478e <ADC_Enable+0xe2>
          The workaround is to continue setting ADEN until ADRDY is becomes 1.
          Additionally, ADC_ENABLE_TIMEOUT is defined to encompass this
          4 ADC clock cycle duration */
      /* Note: Test of ADC enabled required due to hardware constraint to     */
      /*       not enable ADC if already enabled.                             */
      if (LL_ADC_IsEnabled(hadc->Instance) == 0UL)
 800473c:	687b      	ldr	r3, [r7, #4]
 800473e:	681b      	ldr	r3, [r3, #0]
 8004740:	4618      	mov	r0, r3
 8004742:	f7ff f917 	bl	8003974 <LL_ADC_IsEnabled>
 8004746:	4603      	mov	r3, r0
 8004748:	2b00      	cmp	r3, #0
 800474a:	d104      	bne.n	8004756 <ADC_Enable+0xaa>
      {
        LL_ADC_Enable(hadc->Instance);
 800474c:	687b      	ldr	r3, [r7, #4]
 800474e:	681b      	ldr	r3, [r3, #0]
 8004750:	4618      	mov	r0, r3
 8004752:	f7ff f8e7 	bl	8003924 <LL_ADC_Enable>
      }

      if ((HAL_GetTick() - tickstart) > ADC_ENABLE_TIMEOUT)
 8004756:	f7fe fefb 	bl	8003550 <HAL_GetTick>
 800475a:	4602      	mov	r2, r0
 800475c:	68fb      	ldr	r3, [r7, #12]
 800475e:	1ad3      	subs	r3, r2, r3
 8004760:	2b02      	cmp	r3, #2
 8004762:	d914      	bls.n	800478e <ADC_Enable+0xe2>
      {
        /* New check to avoid false timeout detection in case of preemption */
        if (__HAL_ADC_GET_FLAG(hadc, ADC_FLAG_RDY) == 0UL)
 8004764:	687b      	ldr	r3, [r7, #4]
 8004766:	681b      	ldr	r3, [r3, #0]
 8004768:	681b      	ldr	r3, [r3, #0]
 800476a:	f003 0301 	and.w	r3, r3, #1
 800476e:	2b01      	cmp	r3, #1
 8004770:	d00d      	beq.n	800478e <ADC_Enable+0xe2>
        {
          /* Update ADC state machine to error */
          SET_BIT(hadc->State, HAL_ADC_STATE_ERROR_INTERNAL);
 8004772:	687b      	ldr	r3, [r7, #4]
 8004774:	6ddb      	ldr	r3, [r3, #92]	@ 0x5c
 8004776:	f043 0210 	orr.w	r2, r3, #16
 800477a:	687b      	ldr	r3, [r7, #4]
 800477c:	65da      	str	r2, [r3, #92]	@ 0x5c

          /* Set ADC error code to ADC peripheral internal error */
          SET_BIT(hadc->ErrorCode, HAL_ADC_ERROR_INTERNAL);
 800477e:	687b      	ldr	r3, [r7, #4]
 8004780:	6e1b      	ldr	r3, [r3, #96]	@ 0x60
 8004782:	f043 0201 	orr.w	r2, r3, #1
 8004786:	687b      	ldr	r3, [r7, #4]
 8004788:	661a      	str	r2, [r3, #96]	@ 0x60

          return HAL_ERROR;
 800478a:	2301      	movs	r3, #1
 800478c:	e007      	b.n	800479e <ADC_Enable+0xf2>
    while (__HAL_ADC_GET_FLAG(hadc, ADC_FLAG_RDY) == 0UL)
 800478e:	687b      	ldr	r3, [r7, #4]
 8004790:	681b      	ldr	r3, [r3, #0]
 8004792:	681b      	ldr	r3, [r3, #0]
 8004794:	f003 0301 	and.w	r3, r3, #1
 8004798:	2b01      	cmp	r3, #1
 800479a:	d1cf      	bne.n	800473c <ADC_Enable+0x90>
      }
    }
  }

  /* Return HAL status */
  return HAL_OK;
 800479c:	2300      	movs	r3, #0
}
 800479e:	4618      	mov	r0, r3
 80047a0:	3710      	adds	r7, #16
 80047a2:	46bd      	mov	sp, r7
 80047a4:	bd80      	pop	{r7, pc}
 80047a6:	bf00      	nop
 80047a8:	8000003f 	.word	0x8000003f
 80047ac:	50000300 	.word	0x50000300
 80047b0:	20000004 	.word	0x20000004
 80047b4:	053e2d63 	.word	0x053e2d63

080047b8 <ADC_Disable>:
  *         stopped.
  * @param hadc ADC handle
  * @retval HAL status.
  */
HAL_StatusTypeDef ADC_Disable(ADC_HandleTypeDef *hadc)
{
 80047b8:	b580      	push	{r7, lr}
 80047ba:	b084      	sub	sp, #16
 80047bc:	af00      	add	r7, sp, #0
 80047be:	6078      	str	r0, [r7, #4]
  uint32_t tickstart;
  const uint32_t tmp_adc_is_disable_on_going = LL_ADC_IsDisableOngoing(hadc->Instance);
 80047c0:	687b      	ldr	r3, [r7, #4]
 80047c2:	681b      	ldr	r3, [r3, #0]
 80047c4:	4618      	mov	r0, r3
 80047c6:	f7ff f8e8 	bl	800399a <LL_ADC_IsDisableOngoing>
 80047ca:	60f8      	str	r0, [r7, #12]

  /* Verification if ADC is not already disabled:                             */
  /* Note: forbidden to disable ADC (set bit ADC_CR_ADDIS) if ADC is already  */
  /*       disabled.                                                          */
  if ((LL_ADC_IsEnabled(hadc->Instance) != 0UL)
 80047cc:	687b      	ldr	r3, [r7, #4]
 80047ce:	681b      	ldr	r3, [r3, #0]
 80047d0:	4618      	mov	r0, r3
 80047d2:	f7ff f8cf 	bl	8003974 <LL_ADC_IsEnabled>
 80047d6:	4603      	mov	r3, r0
 80047d8:	2b00      	cmp	r3, #0
 80047da:	d047      	beq.n	800486c <ADC_Disable+0xb4>
      && (tmp_adc_is_disable_on_going == 0UL)
 80047dc:	68fb      	ldr	r3, [r7, #12]
 80047de:	2b00      	cmp	r3, #0
 80047e0:	d144      	bne.n	800486c <ADC_Disable+0xb4>
     )
  {
    /* Check if conditions to disable the ADC are fulfilled */
    if ((hadc->Instance->CR & (ADC_CR_JADSTART | ADC_CR_ADSTART | ADC_CR_ADEN)) == ADC_CR_ADEN)
 80047e2:	687b      	ldr	r3, [r7, #4]
 80047e4:	681b      	ldr	r3, [r3, #0]
 80047e6:	689b      	ldr	r3, [r3, #8]
 80047e8:	f003 030d 	and.w	r3, r3, #13
 80047ec:	2b01      	cmp	r3, #1
 80047ee:	d10c      	bne.n	800480a <ADC_Disable+0x52>
    {
      /* Disable the ADC peripheral */
      LL_ADC_Disable(hadc->Instance);
 80047f0:	687b      	ldr	r3, [r7, #4]
 80047f2:	681b      	ldr	r3, [r3, #0]
 80047f4:	4618      	mov	r0, r3
 80047f6:	f7ff f8a9 	bl	800394c <LL_ADC_Disable>
      __HAL_ADC_CLEAR_FLAG(hadc, (ADC_FLAG_EOSMP | ADC_FLAG_RDY));
 80047fa:	687b      	ldr	r3, [r7, #4]
 80047fc:	681b      	ldr	r3, [r3, #0]
 80047fe:	2203      	movs	r2, #3
 8004800:	601a      	str	r2, [r3, #0]
      return HAL_ERROR;
    }

    /* Wait for ADC effectively disabled */
    /* Get tick count */
    tickstart = HAL_GetTick();
 8004802:	f7fe fea5 	bl	8003550 <HAL_GetTick>
 8004806:	60b8      	str	r0, [r7, #8]

    while ((hadc->Instance->CR & ADC_CR_ADEN) != 0UL)
 8004808:	e029      	b.n	800485e <ADC_Disable+0xa6>
      SET_BIT(hadc->State, HAL_ADC_STATE_ERROR_INTERNAL);
 800480a:	687b      	ldr	r3, [r7, #4]
 800480c:	6ddb      	ldr	r3, [r3, #92]	@ 0x5c
 800480e:	f043 0210 	orr.w	r2, r3, #16
 8004812:	687b      	ldr	r3, [r7, #4]
 8004814:	65da      	str	r2, [r3, #92]	@ 0x5c
      SET_BIT(hadc->ErrorCode, HAL_ADC_ERROR_INTERNAL);
 8004816:	687b      	ldr	r3, [r7, #4]
 8004818:	6e1b      	ldr	r3, [r3, #96]	@ 0x60
 800481a:	f043 0201 	orr.w	r2, r3, #1
 800481e:	687b      	ldr	r3, [r7, #4]
 8004820:	661a      	str	r2, [r3, #96]	@ 0x60
      return HAL_ERROR;
 8004822:	2301      	movs	r3, #1
 8004824:	e023      	b.n	800486e <ADC_Disable+0xb6>
    {
      if ((HAL_GetTick() - tickstart) > ADC_DISABLE_TIMEOUT)
 8004826:	f7fe fe93 	bl	8003550 <HAL_GetTick>
 800482a:	4602      	mov	r2, r0
 800482c:	68bb      	ldr	r3, [r7, #8]
 800482e:	1ad3      	subs	r3, r2, r3
 8004830:	2b02      	cmp	r3, #2
 8004832:	d914      	bls.n	800485e <ADC_Disable+0xa6>
      {
        /* New check to avoid false timeout detection in case of preemption */
        if ((hadc->Instance->CR & ADC_CR_ADEN) != 0UL)
 8004834:	687b      	ldr	r3, [r7, #4]
 8004836:	681b      	ldr	r3, [r3, #0]
 8004838:	689b      	ldr	r3, [r3, #8]
 800483a:	f003 0301 	and.w	r3, r3, #1
 800483e:	2b00      	cmp	r3, #0
 8004840:	d00d      	beq.n	800485e <ADC_Disable+0xa6>
        {
          /* Update ADC state machine to error */
          SET_BIT(hadc->State, HAL_ADC_STATE_ERROR_INTERNAL);
 8004842:	687b      	ldr	r3, [r7, #4]
 8004844:	6ddb      	ldr	r3, [r3, #92]	@ 0x5c
 8004846:	f043 0210 	orr.w	r2, r3, #16
 800484a:	687b      	ldr	r3, [r7, #4]
 800484c:	65da      	str	r2, [r3, #92]	@ 0x5c

          /* Set ADC error code to ADC peripheral internal error */
          SET_BIT(hadc->ErrorCode, HAL_ADC_ERROR_INTERNAL);
 800484e:	687b      	ldr	r3, [r7, #4]
 8004850:	6e1b      	ldr	r3, [r3, #96]	@ 0x60
 8004852:	f043 0201 	orr.w	r2, r3, #1
 8004856:	687b      	ldr	r3, [r7, #4]
 8004858:	661a      	str	r2, [r3, #96]	@ 0x60

          return HAL_ERROR;
 800485a:	2301      	movs	r3, #1
 800485c:	e007      	b.n	800486e <ADC_Disable+0xb6>
    while ((hadc->Instance->CR & ADC_CR_ADEN) != 0UL)
 800485e:	687b      	ldr	r3, [r7, #4]
 8004860:	681b      	ldr	r3, [r3, #0]
 8004862:	689b      	ldr	r3, [r3, #8]
 8004864:	f003 0301 	and.w	r3, r3, #1
 8004868:	2b00      	cmp	r3, #0
 800486a:	d1dc      	bne.n	8004826 <ADC_Disable+0x6e>
      }
    }
  }

  /* Return HAL status */
  return HAL_OK;
 800486c:	2300      	movs	r3, #0
}
 800486e:	4618      	mov	r0, r3
 8004870:	3710      	adds	r7, #16
 8004872:	46bd      	mov	sp, r7
 8004874:	bd80      	pop	{r7, pc}

08004876 <ADC_DMAConvCplt>:
  * @brief  DMA transfer complete callback.
  * @param hdma pointer to DMA handle.
  * @retval None
  */
void ADC_DMAConvCplt(DMA_HandleTypeDef *hdma)
{
 8004876:	b580      	push	{r7, lr}
 8004878:	b084      	sub	sp, #16
 800487a:	af00      	add	r7, sp, #0
 800487c:	6078      	str	r0, [r7, #4]
  /* Retrieve ADC handle corresponding to current DMA handle */
  ADC_HandleTypeDef *hadc = (ADC_HandleTypeDef *)((DMA_HandleTypeDef *)hdma)->Parent;
 800487e:	687b      	ldr	r3, [r7, #4]
 8004880:	6a9b      	ldr	r3, [r3, #40]	@ 0x28
 8004882:	60fb      	str	r3, [r7, #12]

  /* Update state machine on conversion status if not in error state */
  if ((hadc->State & (HAL_ADC_STATE_ERROR_INTERNAL | HAL_ADC_STATE_ERROR_DMA)) == 0UL)
 8004884:	68fb      	ldr	r3, [r7, #12]
 8004886:	6ddb      	ldr	r3, [r3, #92]	@ 0x5c
 8004888:	f003 0350 	and.w	r3, r3, #80	@ 0x50
 800488c:	2b00      	cmp	r3, #0
 800488e:	d14b      	bne.n	8004928 <ADC_DMAConvCplt+0xb2>
  {
    /* Set ADC state */
    SET_BIT(hadc->State, HAL_ADC_STATE_REG_EOC);
 8004890:	68fb      	ldr	r3, [r7, #12]
 8004892:	6ddb      	ldr	r3, [r3, #92]	@ 0x5c
 8004894:	f443 7200 	orr.w	r2, r3, #512	@ 0x200
 8004898:	68fb      	ldr	r3, [r7, #12]
 800489a:	65da      	str	r2, [r3, #92]	@ 0x5c

    /* Determine whether any further conversion upcoming on group regular     */
    /* by external trigger, continuous mode or scan sequence on going         */
    /* to disable interruption.                                               */
    /* Is it the end of the regular sequence ? */
    if ((hadc->Instance->ISR & ADC_FLAG_EOS) != 0UL)
 800489c:	68fb      	ldr	r3, [r7, #12]
 800489e:	681b      	ldr	r3, [r3, #0]
 80048a0:	681b      	ldr	r3, [r3, #0]
 80048a2:	f003 0308 	and.w	r3, r3, #8
 80048a6:	2b00      	cmp	r3, #0
 80048a8:	d021      	beq.n	80048ee <ADC_DMAConvCplt+0x78>
    {
      /* Are conversions software-triggered ? */
      if (LL_ADC_REG_IsTriggerSourceSWStart(hadc->Instance) != 0UL)
 80048aa:	68fb      	ldr	r3, [r7, #12]
 80048ac:	681b      	ldr	r3, [r3, #0]
 80048ae:	4618      	mov	r0, r3
 80048b0:	f7fe ff4e 	bl	8003750 <LL_ADC_REG_IsTriggerSourceSWStart>
 80048b4:	4603      	mov	r3, r0
 80048b6:	2b00      	cmp	r3, #0
 80048b8:	d032      	beq.n	8004920 <ADC_DMAConvCplt+0xaa>
      {
        /* Is CONT bit set ? */
        if (READ_BIT(hadc->Instance->CFGR, ADC_CFGR_CONT) == 0UL)
 80048ba:	68fb      	ldr	r3, [r7, #12]
 80048bc:	681b      	ldr	r3, [r3, #0]
 80048be:	68db      	ldr	r3, [r3, #12]
 80048c0:	f403 5300 	and.w	r3, r3, #8192	@ 0x2000
 80048c4:	2b00      	cmp	r3, #0
 80048c6:	d12b      	bne.n	8004920 <ADC_DMAConvCplt+0xaa>
        {
          /* CONT bit is not set, no more conversions expected */
          CLEAR_BIT(hadc->State, HAL_ADC_STATE_REG_BUSY);
 80048c8:	68fb      	ldr	r3, [r7, #12]
 80048ca:	6ddb      	ldr	r3, [r3, #92]	@ 0x5c
 80048cc:	f423 7280 	bic.w	r2, r3, #256	@ 0x100
 80048d0:	68fb      	ldr	r3, [r7, #12]
 80048d2:	65da      	str	r2, [r3, #92]	@ 0x5c
          if ((hadc->State & HAL_ADC_STATE_INJ_BUSY) == 0UL)
 80048d4:	68fb      	ldr	r3, [r7, #12]
 80048d6:	6ddb      	ldr	r3, [r3, #92]	@ 0x5c
 80048d8:	f403 5380 	and.w	r3, r3, #4096	@ 0x1000
 80048dc:	2b00      	cmp	r3, #0
 80048de:	d11f      	bne.n	8004920 <ADC_DMAConvCplt+0xaa>
          {
            SET_BIT(hadc->State, HAL_ADC_STATE_READY);
 80048e0:	68fb      	ldr	r3, [r7, #12]
 80048e2:	6ddb      	ldr	r3, [r3, #92]	@ 0x5c
 80048e4:	f043 0201 	orr.w	r2, r3, #1
 80048e8:	68fb      	ldr	r3, [r7, #12]
 80048ea:	65da      	str	r2, [r3, #92]	@ 0x5c
 80048ec:	e018      	b.n	8004920 <ADC_DMAConvCplt+0xaa>
    }
    else
    {
      /* DMA End of Transfer interrupt was triggered but conversions sequence
         is not over. If DMACFG is set to 0, conversions are stopped. */
      if (READ_BIT(hadc->Instance->CFGR, ADC_CFGR_DMACFG) == 0UL)
 80048ee:	68fb      	ldr	r3, [r7, #12]
 80048f0:	681b      	ldr	r3, [r3, #0]
 80048f2:	68db      	ldr	r3, [r3, #12]
 80048f4:	f003 0302 	and.w	r3, r3, #2
 80048f8:	2b00      	cmp	r3, #0
 80048fa:	d111      	bne.n	8004920 <ADC_DMAConvCplt+0xaa>
      {
        /* DMACFG bit is not set, conversions are stopped. */
        CLEAR_BIT(hadc->State, HAL_ADC_STATE_REG_BUSY);
 80048fc:	68fb      	ldr	r3, [r7, #12]
 80048fe:	6ddb      	ldr	r3, [r3, #92]	@ 0x5c
 8004900:	f423 7280 	bic.w	r2, r3, #256	@ 0x100
 8004904:	68fb      	ldr	r3, [r7, #12]
 8004906:	65da      	str	r2, [r3, #92]	@ 0x5c
        if ((hadc->State & HAL_ADC_STATE_INJ_BUSY) == 0UL)
 8004908:	68fb      	ldr	r3, [r7, #12]
 800490a:	6ddb      	ldr	r3, [r3, #92]	@ 0x5c
 800490c:	f403 5380 	and.w	r3, r3, #4096	@ 0x1000
 8004910:	2b00      	cmp	r3, #0
 8004912:	d105      	bne.n	8004920 <ADC_DMAConvCplt+0xaa>
        {
          SET_BIT(hadc->State, HAL_ADC_STATE_READY);
 8004914:	68fb      	ldr	r3, [r7, #12]
 8004916:	6ddb      	ldr	r3, [r3, #92]	@ 0x5c
 8004918:	f043 0201 	orr.w	r2, r3, #1
 800491c:	68fb      	ldr	r3, [r7, #12]
 800491e:	65da      	str	r2, [r3, #92]	@ 0x5c

    /* Conversion complete callback */
#if (USE_HAL_ADC_REGISTER_CALLBACKS == 1)
    hadc->ConvCpltCallback(hadc);
#else
    HAL_ADC_ConvCpltCallback(hadc);
 8004920:	68f8      	ldr	r0, [r7, #12]
 8004922:	f7fd f913 	bl	8001b4c <HAL_ADC_ConvCpltCallback>
    {
      /* Call ADC DMA error callback */
      hadc->DMA_Handle->XferErrorCallback(hdma);
    }
  }
}
 8004926:	e00e      	b.n	8004946 <ADC_DMAConvCplt+0xd0>
    if ((hadc->State & HAL_ADC_STATE_ERROR_INTERNAL) != 0UL)
 8004928:	68fb      	ldr	r3, [r7, #12]
 800492a:	6ddb      	ldr	r3, [r3, #92]	@ 0x5c
 800492c:	f003 0310 	and.w	r3, r3, #16
 8004930:	2b00      	cmp	r3, #0
 8004932:	d003      	beq.n	800493c <ADC_DMAConvCplt+0xc6>
      HAL_ADC_ErrorCallback(hadc);
 8004934:	68f8      	ldr	r0, [r7, #12]
 8004936:	f7ff fabf 	bl	8003eb8 <HAL_ADC_ErrorCallback>
}
 800493a:	e004      	b.n	8004946 <ADC_DMAConvCplt+0xd0>
      hadc->DMA_Handle->XferErrorCallback(hdma);
 800493c:	68fb      	ldr	r3, [r7, #12]
 800493e:	6d5b      	ldr	r3, [r3, #84]	@ 0x54
 8004940:	6b5b      	ldr	r3, [r3, #52]	@ 0x34
 8004942:	6878      	ldr	r0, [r7, #4]
 8004944:	4798      	blx	r3
}
 8004946:	bf00      	nop
 8004948:	3710      	adds	r7, #16
 800494a:	46bd      	mov	sp, r7
 800494c:	bd80      	pop	{r7, pc}

0800494e <ADC_DMAHalfConvCplt>:
  * @brief  DMA half transfer complete callback.
  * @param hdma pointer to DMA handle.
  * @retval None
  */
void ADC_DMAHalfConvCplt(DMA_HandleTypeDef *hdma)
{
 800494e:	b580      	push	{r7, lr}
 8004950:	b084      	sub	sp, #16
 8004952:	af00      	add	r7, sp, #0
 8004954:	6078      	str	r0, [r7, #4]
  /* Retrieve ADC handle corresponding to current DMA handle */
  ADC_HandleTypeDef *hadc = (ADC_HandleTypeDef *)((DMA_HandleTypeDef *)hdma)->Parent;
 8004956:	687b      	ldr	r3, [r7, #4]
 8004958:	6a9b      	ldr	r3, [r3, #40]	@ 0x28
 800495a:	60fb      	str	r3, [r7, #12]

  /* Half conversion callback */
#if (USE_HAL_ADC_REGISTER_CALLBACKS == 1)
  hadc->ConvHalfCpltCallback(hadc);
#else
  HAL_ADC_ConvHalfCpltCallback(hadc);
 800495c:	68f8      	ldr	r0, [r7, #12]
 800495e:	f7ff faa1 	bl	8003ea4 <HAL_ADC_ConvHalfCpltCallback>
#endif /* USE_HAL_ADC_REGISTER_CALLBACKS */
}
 8004962:	bf00      	nop
 8004964:	3710      	adds	r7, #16
 8004966:	46bd      	mov	sp, r7
 8004968:	bd80      	pop	{r7, pc}

0800496a <ADC_DMAError>:
  * @brief  DMA error callback.
  * @param hdma pointer to DMA handle.
  * @retval None
  */
void ADC_DMAError(DMA_HandleTypeDef *hdma)
{
 800496a:	b580      	push	{r7, lr}
 800496c:	b084      	sub	sp, #16
 800496e:	af00      	add	r7, sp, #0
 8004970:	6078      	str	r0, [r7, #4]
  /* Retrieve ADC handle corresponding to current DMA handle */
  ADC_HandleTypeDef *hadc = (ADC_HandleTypeDef *)((DMA_HandleTypeDef *)hdma)->Parent;
 8004972:	687b      	ldr	r3, [r7, #4]
 8004974:	6a9b      	ldr	r3, [r3, #40]	@ 0x28
 8004976:	60fb      	str	r3, [r7, #12]

  /* Set ADC state */
  SET_BIT(hadc->State, HAL_ADC_STATE_ERROR_DMA);
 8004978:	68fb      	ldr	r3, [r7, #12]
 800497a:	6ddb      	ldr	r3, [r3, #92]	@ 0x5c
 800497c:	f043 0240 	orr.w	r2, r3, #64	@ 0x40
 8004980:	68fb      	ldr	r3, [r7, #12]
 8004982:	65da      	str	r2, [r3, #92]	@ 0x5c

  /* Set ADC error code to DMA error */
  SET_BIT(hadc->ErrorCode, HAL_ADC_ERROR_DMA);
 8004984:	68fb      	ldr	r3, [r7, #12]
 8004986:	6e1b      	ldr	r3, [r3, #96]	@ 0x60
 8004988:	f043 0204 	orr.w	r2, r3, #4
 800498c:	68fb      	ldr	r3, [r7, #12]
 800498e:	661a      	str	r2, [r3, #96]	@ 0x60

  /* Error callback */
#if (USE_HAL_ADC_REGISTER_CALLBACKS == 1)
  hadc->ErrorCallback(hadc);
#else
  HAL_ADC_ErrorCallback(hadc);
 8004990:	68f8      	ldr	r0, [r7, #12]
 8004992:	f7ff fa91 	bl	8003eb8 <HAL_ADC_ErrorCallback>
#endif /* USE_HAL_ADC_REGISTER_CALLBACKS */
}
 8004996:	bf00      	nop
 8004998:	3710      	adds	r7, #16
 800499a:	46bd      	mov	sp, r7
 800499c:	bd80      	pop	{r7, pc}

0800499e <LL_ADC_IsEnabled>:
{
 800499e:	b480      	push	{r7}
 80049a0:	b083      	sub	sp, #12
 80049a2:	af00      	add	r7, sp, #0
 80049a4:	6078      	str	r0, [r7, #4]
  return ((READ_BIT(ADCx->CR, ADC_CR_ADEN) == (ADC_CR_ADEN)) ? 1UL : 0UL);
 80049a6:	687b      	ldr	r3, [r7, #4]
 80049a8:	689b      	ldr	r3, [r3, #8]
 80049aa:	f003 0301 	and.w	r3, r3, #1
 80049ae:	2b01      	cmp	r3, #1
 80049b0:	d101      	bne.n	80049b6 <LL_ADC_IsEnabled+0x18>
 80049b2:	2301      	movs	r3, #1
 80049b4:	e000      	b.n	80049b8 <LL_ADC_IsEnabled+0x1a>
 80049b6:	2300      	movs	r3, #0
}
 80049b8:	4618      	mov	r0, r3
 80049ba:	370c      	adds	r7, #12
 80049bc:	46bd      	mov	sp, r7
 80049be:	f85d 7b04 	ldr.w	r7, [sp], #4
 80049c2:	4770      	bx	lr

080049c4 <LL_ADC_StartCalibration>:
{
 80049c4:	b480      	push	{r7}
 80049c6:	b083      	sub	sp, #12
 80049c8:	af00      	add	r7, sp, #0
 80049ca:	6078      	str	r0, [r7, #4]
 80049cc:	6039      	str	r1, [r7, #0]
  MODIFY_REG(ADCx->CR,
 80049ce:	687b      	ldr	r3, [r7, #4]
 80049d0:	689b      	ldr	r3, [r3, #8]
 80049d2:	f023 4340 	bic.w	r3, r3, #3221225472	@ 0xc0000000
 80049d6:	f023 033f 	bic.w	r3, r3, #63	@ 0x3f
 80049da:	683a      	ldr	r2, [r7, #0]
 80049dc:	f002 4280 	and.w	r2, r2, #1073741824	@ 0x40000000
 80049e0:	4313      	orrs	r3, r2
 80049e2:	f043 4200 	orr.w	r2, r3, #2147483648	@ 0x80000000
 80049e6:	687b      	ldr	r3, [r7, #4]
 80049e8:	609a      	str	r2, [r3, #8]
}
 80049ea:	bf00      	nop
 80049ec:	370c      	adds	r7, #12
 80049ee:	46bd      	mov	sp, r7
 80049f0:	f85d 7b04 	ldr.w	r7, [sp], #4
 80049f4:	4770      	bx	lr

080049f6 <LL_ADC_IsCalibrationOnGoing>:
{
 80049f6:	b480      	push	{r7}
 80049f8:	b083      	sub	sp, #12
 80049fa:	af00      	add	r7, sp, #0
 80049fc:	6078      	str	r0, [r7, #4]
  return ((READ_BIT(ADCx->CR, ADC_CR_ADCAL) == (ADC_CR_ADCAL)) ? 1UL : 0UL);
 80049fe:	687b      	ldr	r3, [r7, #4]
 8004a00:	689b      	ldr	r3, [r3, #8]
 8004a02:	f003 4300 	and.w	r3, r3, #2147483648	@ 0x80000000
 8004a06:	f1b3 4f00 	cmp.w	r3, #2147483648	@ 0x80000000
 8004a0a:	d101      	bne.n	8004a10 <LL_ADC_IsCalibrationOnGoing+0x1a>
 8004a0c:	2301      	movs	r3, #1
 8004a0e:	e000      	b.n	8004a12 <LL_ADC_IsCalibrationOnGoing+0x1c>
 8004a10:	2300      	movs	r3, #0
}
 8004a12:	4618      	mov	r0, r3
 8004a14:	370c      	adds	r7, #12
 8004a16:	46bd      	mov	sp, r7
 8004a18:	f85d 7b04 	ldr.w	r7, [sp], #4
 8004a1c:	4770      	bx	lr

08004a1e <LL_ADC_REG_IsConversionOngoing>:
{
 8004a1e:	b480      	push	{r7}
 8004a20:	b083      	sub	sp, #12
 8004a22:	af00      	add	r7, sp, #0
 8004a24:	6078      	str	r0, [r7, #4]
  return ((READ_BIT(ADCx->CR, ADC_CR_ADSTART) == (ADC_CR_ADSTART)) ? 1UL : 0UL);
 8004a26:	687b      	ldr	r3, [r7, #4]
 8004a28:	689b      	ldr	r3, [r3, #8]
 8004a2a:	f003 0304 	and.w	r3, r3, #4
 8004a2e:	2b04      	cmp	r3, #4
 8004a30:	d101      	bne.n	8004a36 <LL_ADC_REG_IsConversionOngoing+0x18>
 8004a32:	2301      	movs	r3, #1
 8004a34:	e000      	b.n	8004a38 <LL_ADC_REG_IsConversionOngoing+0x1a>
 8004a36:	2300      	movs	r3, #0
}
 8004a38:	4618      	mov	r0, r3
 8004a3a:	370c      	adds	r7, #12
 8004a3c:	46bd      	mov	sp, r7
 8004a3e:	f85d 7b04 	ldr.w	r7, [sp], #4
 8004a42:	4770      	bx	lr

08004a44 <HAL_ADCEx_Calibration_Start>:
  *           @arg @ref ADC_SINGLE_ENDED       Channel in mode input single ended
  *           @arg @ref ADC_DIFFERENTIAL_ENDED Channel in mode input differential ended
  * @retval HAL status
  */
HAL_StatusTypeDef HAL_ADCEx_Calibration_Start(ADC_HandleTypeDef *hadc, uint32_t SingleDiff)
{
 8004a44:	b580      	push	{r7, lr}
 8004a46:	b084      	sub	sp, #16
 8004a48:	af00      	add	r7, sp, #0
 8004a4a:	6078      	str	r0, [r7, #4]
 8004a4c:	6039      	str	r1, [r7, #0]
  HAL_StatusTypeDef tmp_hal_status;
  __IO uint32_t wait_loop_index = 0UL;
 8004a4e:	2300      	movs	r3, #0
 8004a50:	60bb      	str	r3, [r7, #8]
  /* Check the parameters */
  assert_param(IS_ADC_ALL_INSTANCE(hadc->Instance));
  assert_param(IS_ADC_SINGLE_DIFFERENTIAL(SingleDiff));

  /* Process locked */
  __HAL_LOCK(hadc);
 8004a52:	687b      	ldr	r3, [r7, #4]
 8004a54:	f893 3058 	ldrb.w	r3, [r3, #88]	@ 0x58
 8004a58:	2b01      	cmp	r3, #1
 8004a5a:	d101      	bne.n	8004a60 <HAL_ADCEx_Calibration_Start+0x1c>
 8004a5c:	2302      	movs	r3, #2
 8004a5e:	e04d      	b.n	8004afc <HAL_ADCEx_Calibration_Start+0xb8>
 8004a60:	687b      	ldr	r3, [r7, #4]
 8004a62:	2201      	movs	r2, #1
 8004a64:	f883 2058 	strb.w	r2, [r3, #88]	@ 0x58

  /* Calibration prerequisite: ADC must be disabled. */

  /* Disable the ADC (if not already disabled) */
  tmp_hal_status = ADC_Disable(hadc);
 8004a68:	6878      	ldr	r0, [r7, #4]
 8004a6a:	f7ff fea5 	bl	80047b8 <ADC_Disable>
 8004a6e:	4603      	mov	r3, r0
 8004a70:	73fb      	strb	r3, [r7, #15]

  /* Check if ADC is effectively disabled */
  if (tmp_hal_status == HAL_OK)
 8004a72:	7bfb      	ldrb	r3, [r7, #15]
 8004a74:	2b00      	cmp	r3, #0
 8004a76:	d136      	bne.n	8004ae6 <HAL_ADCEx_Calibration_Start+0xa2>
  {
    /* Set ADC state */
    ADC_STATE_CLR_SET(hadc->State,
 8004a78:	687b      	ldr	r3, [r7, #4]
 8004a7a:	6ddb      	ldr	r3, [r3, #92]	@ 0x5c
 8004a7c:	f423 5388 	bic.w	r3, r3, #4352	@ 0x1100
 8004a80:	f023 0302 	bic.w	r3, r3, #2
 8004a84:	f043 0202 	orr.w	r2, r3, #2
 8004a88:	687b      	ldr	r3, [r7, #4]
 8004a8a:	65da      	str	r2, [r3, #92]	@ 0x5c
                      HAL_ADC_STATE_REG_BUSY | HAL_ADC_STATE_INJ_BUSY,
                      HAL_ADC_STATE_BUSY_INTERNAL);

    /* Start ADC calibration in mode single-ended or differential */
    LL_ADC_StartCalibration(hadc->Instance, SingleDiff);
 8004a8c:	687b      	ldr	r3, [r7, #4]
 8004a8e:	681b      	ldr	r3, [r3, #0]
 8004a90:	6839      	ldr	r1, [r7, #0]
 8004a92:	4618      	mov	r0, r3
 8004a94:	f7ff ff96 	bl	80049c4 <LL_ADC_StartCalibration>

    /* Wait for calibration completion */
    while (LL_ADC_IsCalibrationOnGoing(hadc->Instance) != 0UL)
 8004a98:	e014      	b.n	8004ac4 <HAL_ADCEx_Calibration_Start+0x80>
    {
      wait_loop_index++;
 8004a9a:	68bb      	ldr	r3, [r7, #8]
 8004a9c:	3301      	adds	r3, #1
 8004a9e:	60bb      	str	r3, [r7, #8]
      if (wait_loop_index >= ADC_CALIBRATION_TIMEOUT)
 8004aa0:	68bb      	ldr	r3, [r7, #8]
 8004aa2:	4a18      	ldr	r2, [pc, #96]	@ (8004b04 <HAL_ADCEx_Calibration_Start+0xc0>)
 8004aa4:	4293      	cmp	r3, r2
 8004aa6:	d90d      	bls.n	8004ac4 <HAL_ADCEx_Calibration_Start+0x80>
      {
        /* Update ADC state machine to error */
        ADC_STATE_CLR_SET(hadc->State,
 8004aa8:	687b      	ldr	r3, [r7, #4]
 8004aaa:	6ddb      	ldr	r3, [r3, #92]	@ 0x5c
 8004aac:	f023 0312 	bic.w	r3, r3, #18
 8004ab0:	f043 0210 	orr.w	r2, r3, #16
 8004ab4:	687b      	ldr	r3, [r7, #4]
 8004ab6:	65da      	str	r2, [r3, #92]	@ 0x5c
                          HAL_ADC_STATE_BUSY_INTERNAL,
                          HAL_ADC_STATE_ERROR_INTERNAL);

        /* Process unlocked */
        __HAL_UNLOCK(hadc);
 8004ab8:	687b      	ldr	r3, [r7, #4]
 8004aba:	2200      	movs	r2, #0
 8004abc:	f883 2058 	strb.w	r2, [r3, #88]	@ 0x58

        return HAL_ERROR;
 8004ac0:	2301      	movs	r3, #1
 8004ac2:	e01b      	b.n	8004afc <HAL_ADCEx_Calibration_Start+0xb8>
    while (LL_ADC_IsCalibrationOnGoing(hadc->Instance) != 0UL)
 8004ac4:	687b      	ldr	r3, [r7, #4]
 8004ac6:	681b      	ldr	r3, [r3, #0]
 8004ac8:	4618      	mov	r0, r3
 8004aca:	f7ff ff94 	bl	80049f6 <LL_ADC_IsCalibrationOnGoing>
 8004ace:	4603      	mov	r3, r0
 8004ad0:	2b00      	cmp	r3, #0
 8004ad2:	d1e2      	bne.n	8004a9a <HAL_ADCEx_Calibration_Start+0x56>
      }
    }

    /* Set ADC state */
    ADC_STATE_CLR_SET(hadc->State,
 8004ad4:	687b      	ldr	r3, [r7, #4]
 8004ad6:	6ddb      	ldr	r3, [r3, #92]	@ 0x5c
 8004ad8:	f023 0303 	bic.w	r3, r3, #3
 8004adc:	f043 0201 	orr.w	r2, r3, #1
 8004ae0:	687b      	ldr	r3, [r7, #4]
 8004ae2:	65da      	str	r2, [r3, #92]	@ 0x5c
 8004ae4:	e005      	b.n	8004af2 <HAL_ADCEx_Calibration_Start+0xae>
                      HAL_ADC_STATE_BUSY_INTERNAL,
                      HAL_ADC_STATE_READY);
  }
  else
  {
    SET_BIT(hadc->State, HAL_ADC_STATE_ERROR_INTERNAL);
 8004ae6:	687b      	ldr	r3, [r7, #4]
 8004ae8:	6ddb      	ldr	r3, [r3, #92]	@ 0x5c
 8004aea:	f043 0210 	orr.w	r2, r3, #16
 8004aee:	687b      	ldr	r3, [r7, #4]
 8004af0:	65da      	str	r2, [r3, #92]	@ 0x5c
    /* Note: No need to update variable "tmp_hal_status" here: already set    */
    /*       to state "HAL_ERROR" by function disabling the ADC.              */
  }

  /* Process unlocked */
  __HAL_UNLOCK(hadc);
 8004af2:	687b      	ldr	r3, [r7, #4]
 8004af4:	2200      	movs	r2, #0
 8004af6:	f883 2058 	strb.w	r2, [r3, #88]	@ 0x58

  /* Return function status */
  return tmp_hal_status;
 8004afa:	7bfb      	ldrb	r3, [r7, #15]
}
 8004afc:	4618      	mov	r0, r3
 8004afe:	3710      	adds	r7, #16
 8004b00:	46bd      	mov	sp, r7
 8004b02:	bd80      	pop	{r7, pc}
 8004b04:	0004de01 	.word	0x0004de01

08004b08 <HAL_ADCEx_MultiModeConfigChannel>:
  * @param hadc Master ADC handle
  * @param pMultimode Structure of ADC multimode configuration
  * @retval HAL status
  */
HAL_StatusTypeDef HAL_ADCEx_MultiModeConfigChannel(ADC_HandleTypeDef *hadc, const ADC_MultiModeTypeDef *pMultimode)
{
 8004b08:	b590      	push	{r4, r7, lr}
 8004b0a:	b0a1      	sub	sp, #132	@ 0x84
 8004b0c:	af00      	add	r7, sp, #0
 8004b0e:	6078      	str	r0, [r7, #4]
 8004b10:	6039      	str	r1, [r7, #0]
  HAL_StatusTypeDef tmp_hal_status = HAL_OK;
 8004b12:	2300      	movs	r3, #0
 8004b14:	f887 307f 	strb.w	r3, [r7, #127]	@ 0x7f
    assert_param(IS_ADC_DMA_ACCESS_MULTIMODE(pMultimode->DMAAccessMode));
    assert_param(IS_ADC_SAMPLING_DELAY(pMultimode->TwoSamplingDelay));
  }

  /* Process locked */
  __HAL_LOCK(hadc);
 8004b18:	687b      	ldr	r3, [r7, #4]
 8004b1a:	f893 3058 	ldrb.w	r3, [r3, #88]	@ 0x58
 8004b1e:	2b01      	cmp	r3, #1
 8004b20:	d101      	bne.n	8004b26 <HAL_ADCEx_MultiModeConfigChannel+0x1e>
 8004b22:	2302      	movs	r3, #2
 8004b24:	e08b      	b.n	8004c3e <HAL_ADCEx_MultiModeConfigChannel+0x136>
 8004b26:	687b      	ldr	r3, [r7, #4]
 8004b28:	2201      	movs	r2, #1
 8004b2a:	f883 2058 	strb.w	r2, [r3, #88]	@ 0x58

  /* Temporary handle minimum initialization */
  __HAL_ADC_RESET_HANDLE_STATE(&tmp_hadc_slave);
 8004b2e:	2300      	movs	r3, #0
 8004b30:	667b      	str	r3, [r7, #100]	@ 0x64
  ADC_CLEAR_ERRORCODE(&tmp_hadc_slave);
 8004b32:	2300      	movs	r3, #0
 8004b34:	66bb      	str	r3, [r7, #104]	@ 0x68

  ADC_MULTI_SLAVE(hadc, &tmp_hadc_slave);
 8004b36:	687b      	ldr	r3, [r7, #4]
 8004b38:	681b      	ldr	r3, [r3, #0]
 8004b3a:	f1b3 4fa0 	cmp.w	r3, #1342177280	@ 0x50000000
 8004b3e:	d102      	bne.n	8004b46 <HAL_ADCEx_MultiModeConfigChannel+0x3e>
 8004b40:	4b41      	ldr	r3, [pc, #260]	@ (8004c48 <HAL_ADCEx_MultiModeConfigChannel+0x140>)
 8004b42:	60bb      	str	r3, [r7, #8]
 8004b44:	e001      	b.n	8004b4a <HAL_ADCEx_MultiModeConfigChannel+0x42>
 8004b46:	2300      	movs	r3, #0
 8004b48:	60bb      	str	r3, [r7, #8]

  if (tmp_hadc_slave.Instance == NULL)
 8004b4a:	68bb      	ldr	r3, [r7, #8]
 8004b4c:	2b00      	cmp	r3, #0
 8004b4e:	d10b      	bne.n	8004b68 <HAL_ADCEx_MultiModeConfigChannel+0x60>
  {
    /* Update ADC state machine to error */
    SET_BIT(hadc->State, HAL_ADC_STATE_ERROR_CONFIG);
 8004b50:	687b      	ldr	r3, [r7, #4]
 8004b52:	6ddb      	ldr	r3, [r3, #92]	@ 0x5c
 8004b54:	f043 0220 	orr.w	r2, r3, #32
 8004b58:	687b      	ldr	r3, [r7, #4]
 8004b5a:	65da      	str	r2, [r3, #92]	@ 0x5c

    /* Process unlocked */
    __HAL_UNLOCK(hadc);
 8004b5c:	687b      	ldr	r3, [r7, #4]
 8004b5e:	2200      	movs	r2, #0
 8004b60:	f883 2058 	strb.w	r2, [r3, #88]	@ 0x58

    return HAL_ERROR;
 8004b64:	2301      	movs	r3, #1
 8004b66:	e06a      	b.n	8004c3e <HAL_ADCEx_MultiModeConfigChannel+0x136>
  /* Parameters update conditioned to ADC state:                              */
  /* Parameters that can be updated when ADC is disabled or enabled without   */
  /* conversion on going on regular group:                                    */
  /*  - Multimode DMA configuration                                           */
  /*  - Multimode DMA mode                                                    */
  tmp_hadc_slave_conversion_on_going = LL_ADC_REG_IsConversionOngoing((&tmp_hadc_slave)->Instance);
 8004b68:	68bb      	ldr	r3, [r7, #8]
 8004b6a:	4618      	mov	r0, r3
 8004b6c:	f7ff ff57 	bl	8004a1e <LL_ADC_REG_IsConversionOngoing>
 8004b70:	67b8      	str	r0, [r7, #120]	@ 0x78
  if ((LL_ADC_REG_IsConversionOngoing(hadc->Instance) == 0UL)
 8004b72:	687b      	ldr	r3, [r7, #4]
 8004b74:	681b      	ldr	r3, [r3, #0]
 8004b76:	4618      	mov	r0, r3
 8004b78:	f7ff ff51 	bl	8004a1e <LL_ADC_REG_IsConversionOngoing>
 8004b7c:	4603      	mov	r3, r0
 8004b7e:	2b00      	cmp	r3, #0
 8004b80:	d14c      	bne.n	8004c1c <HAL_ADCEx_MultiModeConfigChannel+0x114>
      && (tmp_hadc_slave_conversion_on_going == 0UL))
 8004b82:	6fbb      	ldr	r3, [r7, #120]	@ 0x78
 8004b84:	2b00      	cmp	r3, #0
 8004b86:	d149      	bne.n	8004c1c <HAL_ADCEx_MultiModeConfigChannel+0x114>
  {
    /* Pointer to the common control register */
    tmpADC_Common = __LL_ADC_COMMON_INSTANCE(hadc->Instance);
 8004b88:	4b30      	ldr	r3, [pc, #192]	@ (8004c4c <HAL_ADCEx_MultiModeConfigChannel+0x144>)
 8004b8a:	677b      	str	r3, [r7, #116]	@ 0x74

    /* If multimode is selected, configure all multimode parameters.          */
    /* Otherwise, reset multimode parameters (can be used in case of          */
    /* transition from multimode to independent mode).                        */
    if (pMultimode->Mode != ADC_MODE_INDEPENDENT)
 8004b8c:	683b      	ldr	r3, [r7, #0]
 8004b8e:	681b      	ldr	r3, [r3, #0]
 8004b90:	2b00      	cmp	r3, #0
 8004b92:	d028      	beq.n	8004be6 <HAL_ADCEx_MultiModeConfigChannel+0xde>
    {
      MODIFY_REG(tmpADC_Common->CCR, ADC_CCR_MDMA | ADC_CCR_DMACFG,
 8004b94:	6f7b      	ldr	r3, [r7, #116]	@ 0x74
 8004b96:	689b      	ldr	r3, [r3, #8]
 8004b98:	f423 4260 	bic.w	r2, r3, #57344	@ 0xe000
 8004b9c:	683b      	ldr	r3, [r7, #0]
 8004b9e:	6859      	ldr	r1, [r3, #4]
 8004ba0:	687b      	ldr	r3, [r7, #4]
 8004ba2:	f893 3038 	ldrb.w	r3, [r3, #56]	@ 0x38
 8004ba6:	035b      	lsls	r3, r3, #13
 8004ba8:	430b      	orrs	r3, r1
 8004baa:	431a      	orrs	r2, r3
 8004bac:	6f7b      	ldr	r3, [r7, #116]	@ 0x74
 8004bae:	609a      	str	r2, [r3, #8]
      /*      from 1 to 10 clock cycles for 10 bits,                              */
      /*      from 1 to 8 clock cycles for 8 bits                                 */
      /*      from 1 to 6 clock cycles for 6 bits                                 */
      /*    If a higher delay is selected, it will be clipped to maximum delay    */
      /*    range                                                                 */
      if (__LL_ADC_IS_ENABLED_ALL_COMMON_INSTANCE(__LL_ADC_COMMON_INSTANCE(hadc->Instance)) == 0UL)
 8004bb0:	f04f 40a0 	mov.w	r0, #1342177280	@ 0x50000000
 8004bb4:	f7ff fef3 	bl	800499e <LL_ADC_IsEnabled>
 8004bb8:	4604      	mov	r4, r0
 8004bba:	4823      	ldr	r0, [pc, #140]	@ (8004c48 <HAL_ADCEx_MultiModeConfigChannel+0x140>)
 8004bbc:	f7ff feef 	bl	800499e <LL_ADC_IsEnabled>
 8004bc0:	4603      	mov	r3, r0
 8004bc2:	4323      	orrs	r3, r4
 8004bc4:	2b00      	cmp	r3, #0
 8004bc6:	d133      	bne.n	8004c30 <HAL_ADCEx_MultiModeConfigChannel+0x128>
      {
        MODIFY_REG(tmpADC_Common->CCR,
 8004bc8:	6f7b      	ldr	r3, [r7, #116]	@ 0x74
 8004bca:	689b      	ldr	r3, [r3, #8]
 8004bcc:	f423 6371 	bic.w	r3, r3, #3856	@ 0xf10
 8004bd0:	f023 030f 	bic.w	r3, r3, #15
 8004bd4:	683a      	ldr	r2, [r7, #0]
 8004bd6:	6811      	ldr	r1, [r2, #0]
 8004bd8:	683a      	ldr	r2, [r7, #0]
 8004bda:	6892      	ldr	r2, [r2, #8]
 8004bdc:	430a      	orrs	r2, r1
 8004bde:	431a      	orrs	r2, r3
 8004be0:	6f7b      	ldr	r3, [r7, #116]	@ 0x74
 8004be2:	609a      	str	r2, [r3, #8]
    if (pMultimode->Mode != ADC_MODE_INDEPENDENT)
 8004be4:	e024      	b.n	8004c30 <HAL_ADCEx_MultiModeConfigChannel+0x128>
                  );
      }
    }
    else /* ADC_MODE_INDEPENDENT */
    {
      CLEAR_BIT(tmpADC_Common->CCR, ADC_CCR_MDMA | ADC_CCR_DMACFG);
 8004be6:	6f7b      	ldr	r3, [r7, #116]	@ 0x74
 8004be8:	689b      	ldr	r3, [r3, #8]
 8004bea:	f423 4260 	bic.w	r2, r3, #57344	@ 0xe000
 8004bee:	6f7b      	ldr	r3, [r7, #116]	@ 0x74
 8004bf0:	609a      	str	r2, [r3, #8]

      /* Parameters that can be updated only when ADC is disabled:                */
      /*  - Multimode mode selection                                              */
      /*  - Multimode delay                                                       */
      if (__LL_ADC_IS_ENABLED_ALL_COMMON_INSTANCE(__LL_ADC_COMMON_INSTANCE(hadc->Instance)) == 0UL)
 8004bf2:	f04f 40a0 	mov.w	r0, #1342177280	@ 0x50000000
 8004bf6:	f7ff fed2 	bl	800499e <LL_ADC_IsEnabled>
 8004bfa:	4604      	mov	r4, r0
 8004bfc:	4812      	ldr	r0, [pc, #72]	@ (8004c48 <HAL_ADCEx_MultiModeConfigChannel+0x140>)
 8004bfe:	f7ff fece 	bl	800499e <LL_ADC_IsEnabled>
 8004c02:	4603      	mov	r3, r0
 8004c04:	4323      	orrs	r3, r4
 8004c06:	2b00      	cmp	r3, #0
 8004c08:	d112      	bne.n	8004c30 <HAL_ADCEx_MultiModeConfigChannel+0x128>
      {
        CLEAR_BIT(tmpADC_Common->CCR, ADC_CCR_DUAL | ADC_CCR_DELAY);
 8004c0a:	6f7b      	ldr	r3, [r7, #116]	@ 0x74
 8004c0c:	689b      	ldr	r3, [r3, #8]
 8004c0e:	f423 6371 	bic.w	r3, r3, #3856	@ 0xf10
 8004c12:	f023 030f 	bic.w	r3, r3, #15
 8004c16:	6f7a      	ldr	r2, [r7, #116]	@ 0x74
 8004c18:	6093      	str	r3, [r2, #8]
    if (pMultimode->Mode != ADC_MODE_INDEPENDENT)
 8004c1a:	e009      	b.n	8004c30 <HAL_ADCEx_MultiModeConfigChannel+0x128>
  /* If one of the ADC sharing the same common group is enabled, no update    */
  /* could be done on neither of the multimode structure parameters.          */
  else
  {
    /* Update ADC state machine to error */
    SET_BIT(hadc->State, HAL_ADC_STATE_ERROR_CONFIG);
 8004c1c:	687b      	ldr	r3, [r7, #4]
 8004c1e:	6ddb      	ldr	r3, [r3, #92]	@ 0x5c
 8004c20:	f043 0220 	orr.w	r2, r3, #32
 8004c24:	687b      	ldr	r3, [r7, #4]
 8004c26:	65da      	str	r2, [r3, #92]	@ 0x5c

    tmp_hal_status = HAL_ERROR;
 8004c28:	2301      	movs	r3, #1
 8004c2a:	f887 307f 	strb.w	r3, [r7, #127]	@ 0x7f
 8004c2e:	e000      	b.n	8004c32 <HAL_ADCEx_MultiModeConfigChannel+0x12a>
    if (pMultimode->Mode != ADC_MODE_INDEPENDENT)
 8004c30:	bf00      	nop
  }

  /* Process unlocked */
  __HAL_UNLOCK(hadc);
 8004c32:	687b      	ldr	r3, [r7, #4]
 8004c34:	2200      	movs	r2, #0
 8004c36:	f883 2058 	strb.w	r2, [r3, #88]	@ 0x58

  /* Return function status */
  return tmp_hal_status;
 8004c3a:	f897 307f 	ldrb.w	r3, [r7, #127]	@ 0x7f
}
 8004c3e:	4618      	mov	r0, r3
 8004c40:	3784      	adds	r7, #132	@ 0x84
 8004c42:	46bd      	mov	sp, r7
 8004c44:	bd90      	pop	{r4, r7, pc}
 8004c46:	bf00      	nop
 8004c48:	50000100 	.word	0x50000100
 8004c4c:	50000300 	.word	0x50000300

08004c50 <__NVIC_SetPriorityGrouping>:
           In case of a conflict between priority grouping and available
           priority bits (__NVIC_PRIO_BITS), the smallest possible priority group is set.
  \param [in]      PriorityGroup  Priority grouping field.
 */
__STATIC_INLINE void __NVIC_SetPriorityGrouping(uint32_t PriorityGroup)
{
 8004c50:	b480      	push	{r7}
 8004c52:	b085      	sub	sp, #20
 8004c54:	af00      	add	r7, sp, #0
 8004c56:	6078      	str	r0, [r7, #4]
  uint32_t reg_value;
  uint32_t PriorityGroupTmp = (PriorityGroup & (uint32_t)0x07UL);             /* only values 0..7 are used          */
 8004c58:	687b      	ldr	r3, [r7, #4]
 8004c5a:	f003 0307 	and.w	r3, r3, #7
 8004c5e:	60fb      	str	r3, [r7, #12]

  reg_value  =  SCB->AIRCR;                                                   /* read old register configuration    */
 8004c60:	4b0c      	ldr	r3, [pc, #48]	@ (8004c94 <__NVIC_SetPriorityGrouping+0x44>)
 8004c62:	68db      	ldr	r3, [r3, #12]
 8004c64:	60bb      	str	r3, [r7, #8]
  reg_value &= ~((uint32_t)(SCB_AIRCR_VECTKEY_Msk | SCB_AIRCR_PRIGROUP_Msk)); /* clear bits to change               */
 8004c66:	68ba      	ldr	r2, [r7, #8]
 8004c68:	f64f 03ff 	movw	r3, #63743	@ 0xf8ff
 8004c6c:	4013      	ands	r3, r2
 8004c6e:	60bb      	str	r3, [r7, #8]
  reg_value  =  (reg_value                                   |
                ((uint32_t)0x5FAUL << SCB_AIRCR_VECTKEY_Pos) |
                (PriorityGroupTmp << SCB_AIRCR_PRIGROUP_Pos)  );              /* Insert write key and priority group */
 8004c70:	68fb      	ldr	r3, [r7, #12]
 8004c72:	021a      	lsls	r2, r3, #8
                ((uint32_t)0x5FAUL << SCB_AIRCR_VECTKEY_Pos) |
 8004c74:	68bb      	ldr	r3, [r7, #8]
 8004c76:	4313      	orrs	r3, r2
  reg_value  =  (reg_value                                   |
 8004c78:	f043 63bf 	orr.w	r3, r3, #100139008	@ 0x5f80000
 8004c7c:	f443 3300 	orr.w	r3, r3, #131072	@ 0x20000
 8004c80:	60bb      	str	r3, [r7, #8]
  SCB->AIRCR =  reg_value;
 8004c82:	4a04      	ldr	r2, [pc, #16]	@ (8004c94 <__NVIC_SetPriorityGrouping+0x44>)
 8004c84:	68bb      	ldr	r3, [r7, #8]
 8004c86:	60d3      	str	r3, [r2, #12]
}
 8004c88:	bf00      	nop
 8004c8a:	3714      	adds	r7, #20
 8004c8c:	46bd      	mov	sp, r7
 8004c8e:	f85d 7b04 	ldr.w	r7, [sp], #4
 8004c92:	4770      	bx	lr
 8004c94:	e000ed00 	.word	0xe000ed00

08004c98 <__NVIC_GetPriorityGrouping>:
  \brief   Get Priority Grouping
  \details Reads the priority grouping field from the NVIC Interrupt Controller.
  \return                Priority grouping field (SCB->AIRCR [10:8] PRIGROUP field).
 */
__STATIC_INLINE uint32_t __NVIC_GetPriorityGrouping(void)
{
 8004c98:	b480      	push	{r7}
 8004c9a:	af00      	add	r7, sp, #0
  return ((uint32_t)((SCB->AIRCR & SCB_AIRCR_PRIGROUP_Msk) >> SCB_AIRCR_PRIGROUP_Pos));
 8004c9c:	4b04      	ldr	r3, [pc, #16]	@ (8004cb0 <__NVIC_GetPriorityGrouping+0x18>)
 8004c9e:	68db      	ldr	r3, [r3, #12]
 8004ca0:	0a1b      	lsrs	r3, r3, #8
 8004ca2:	f003 0307 	and.w	r3, r3, #7
}
 8004ca6:	4618      	mov	r0, r3
 8004ca8:	46bd      	mov	sp, r7
 8004caa:	f85d 7b04 	ldr.w	r7, [sp], #4
 8004cae:	4770      	bx	lr
 8004cb0:	e000ed00 	.word	0xe000ed00

08004cb4 <__NVIC_EnableIRQ>:
  \details Enables a device specific interrupt in the NVIC interrupt controller.
  \param [in]      IRQn  Device specific interrupt number.
  \note    IRQn must not be negative.
 */
__STATIC_INLINE void __NVIC_EnableIRQ(IRQn_Type IRQn)
{
 8004cb4:	b480      	push	{r7}
 8004cb6:	b083      	sub	sp, #12
 8004cb8:	af00      	add	r7, sp, #0
 8004cba:	4603      	mov	r3, r0
 8004cbc:	71fb      	strb	r3, [r7, #7]
  if ((int32_t)(IRQn) >= 0)
 8004cbe:	f997 3007 	ldrsb.w	r3, [r7, #7]
 8004cc2:	2b00      	cmp	r3, #0
 8004cc4:	db0b      	blt.n	8004cde <__NVIC_EnableIRQ+0x2a>
  {
    __COMPILER_BARRIER();
    NVIC->ISER[(((uint32_t)IRQn) >> 5UL)] = (uint32_t)(1UL << (((uint32_t)IRQn) & 0x1FUL));
 8004cc6:	79fb      	ldrb	r3, [r7, #7]
 8004cc8:	f003 021f 	and.w	r2, r3, #31
 8004ccc:	4907      	ldr	r1, [pc, #28]	@ (8004cec <__NVIC_EnableIRQ+0x38>)
 8004cce:	f997 3007 	ldrsb.w	r3, [r7, #7]
 8004cd2:	095b      	lsrs	r3, r3, #5
 8004cd4:	2001      	movs	r0, #1
 8004cd6:	fa00 f202 	lsl.w	r2, r0, r2
 8004cda:	f841 2023 	str.w	r2, [r1, r3, lsl #2]
    __COMPILER_BARRIER();
  }
}
 8004cde:	bf00      	nop
 8004ce0:	370c      	adds	r7, #12
 8004ce2:	46bd      	mov	sp, r7
 8004ce4:	f85d 7b04 	ldr.w	r7, [sp], #4
 8004ce8:	4770      	bx	lr
 8004cea:	bf00      	nop
 8004cec:	e000e100 	.word	0xe000e100

08004cf0 <__NVIC_SetPriority>:
  \param [in]      IRQn  Interrupt number.
  \param [in]  priority  Priority to set.
  \note    The priority cannot be set for every processor exception.
 */
__STATIC_INLINE void __NVIC_SetPriority(IRQn_Type IRQn, uint32_t priority)
{
 8004cf0:	b480      	push	{r7}
 8004cf2:	b083      	sub	sp, #12
 8004cf4:	af00      	add	r7, sp, #0
 8004cf6:	4603      	mov	r3, r0
 8004cf8:	6039      	str	r1, [r7, #0]
 8004cfa:	71fb      	strb	r3, [r7, #7]
  if ((int32_t)(IRQn) >= 0)
 8004cfc:	f997 3007 	ldrsb.w	r3, [r7, #7]
 8004d00:	2b00      	cmp	r3, #0
 8004d02:	db0a      	blt.n	8004d1a <__NVIC_SetPriority+0x2a>
  {
    NVIC->IP[((uint32_t)IRQn)]               = (uint8_t)((priority << (8U - __NVIC_PRIO_BITS)) & (uint32_t)0xFFUL);
 8004d04:	683b      	ldr	r3, [r7, #0]
 8004d06:	b2da      	uxtb	r2, r3
 8004d08:	490c      	ldr	r1, [pc, #48]	@ (8004d3c <__NVIC_SetPriority+0x4c>)
 8004d0a:	f997 3007 	ldrsb.w	r3, [r7, #7]
 8004d0e:	0112      	lsls	r2, r2, #4
 8004d10:	b2d2      	uxtb	r2, r2
 8004d12:	440b      	add	r3, r1
 8004d14:	f883 2300 	strb.w	r2, [r3, #768]	@ 0x300
  }
  else
  {
    SCB->SHP[(((uint32_t)IRQn) & 0xFUL)-4UL] = (uint8_t)((priority << (8U - __NVIC_PRIO_BITS)) & (uint32_t)0xFFUL);
  }
}
 8004d18:	e00a      	b.n	8004d30 <__NVIC_SetPriority+0x40>
    SCB->SHP[(((uint32_t)IRQn) & 0xFUL)-4UL] = (uint8_t)((priority << (8U - __NVIC_PRIO_BITS)) & (uint32_t)0xFFUL);
 8004d1a:	683b      	ldr	r3, [r7, #0]
 8004d1c:	b2da      	uxtb	r2, r3
 8004d1e:	4908      	ldr	r1, [pc, #32]	@ (8004d40 <__NVIC_SetPriority+0x50>)
 8004d20:	79fb      	ldrb	r3, [r7, #7]
 8004d22:	f003 030f 	and.w	r3, r3, #15
 8004d26:	3b04      	subs	r3, #4
 8004d28:	0112      	lsls	r2, r2, #4
 8004d2a:	b2d2      	uxtb	r2, r2
 8004d2c:	440b      	add	r3, r1
 8004d2e:	761a      	strb	r2, [r3, #24]
}
 8004d30:	bf00      	nop
 8004d32:	370c      	adds	r7, #12
 8004d34:	46bd      	mov	sp, r7
 8004d36:	f85d 7b04 	ldr.w	r7, [sp], #4
 8004d3a:	4770      	bx	lr
 8004d3c:	e000e100 	.word	0xe000e100
 8004d40:	e000ed00 	.word	0xe000ed00

08004d44 <NVIC_EncodePriority>:
  \param [in]   PreemptPriority  Preemptive priority value (starting from 0).
  \param [in]       SubPriority  Subpriority value (starting from 0).
  \return                        Encoded priority. Value can be used in the function \ref NVIC_SetPriority().
 */
__STATIC_INLINE uint32_t NVIC_EncodePriority (uint32_t PriorityGroup, uint32_t PreemptPriority, uint32_t SubPriority)
{
 8004d44:	b480      	push	{r7}
 8004d46:	b089      	sub	sp, #36	@ 0x24
 8004d48:	af00      	add	r7, sp, #0
 8004d4a:	60f8      	str	r0, [r7, #12]
 8004d4c:	60b9      	str	r1, [r7, #8]
 8004d4e:	607a      	str	r2, [r7, #4]
  uint32_t PriorityGroupTmp = (PriorityGroup & (uint32_t)0x07UL);   /* only values 0..7 are used          */
 8004d50:	68fb      	ldr	r3, [r7, #12]
 8004d52:	f003 0307 	and.w	r3, r3, #7
 8004d56:	61fb      	str	r3, [r7, #28]
  uint32_t PreemptPriorityBits;
  uint32_t SubPriorityBits;

  PreemptPriorityBits = ((7UL - PriorityGroupTmp) > (uint32_t)(__NVIC_PRIO_BITS)) ? (uint32_t)(__NVIC_PRIO_BITS) : (uint32_t)(7UL - PriorityGroupTmp);
 8004d58:	69fb      	ldr	r3, [r7, #28]
 8004d5a:	f1c3 0307 	rsb	r3, r3, #7
 8004d5e:	2b04      	cmp	r3, #4
 8004d60:	bf28      	it	cs
 8004d62:	2304      	movcs	r3, #4
 8004d64:	61bb      	str	r3, [r7, #24]
  SubPriorityBits     = ((PriorityGroupTmp + (uint32_t)(__NVIC_PRIO_BITS)) < (uint32_t)7UL) ? (uint32_t)0UL : (uint32_t)((PriorityGroupTmp - 7UL) + (uint32_t)(__NVIC_PRIO_BITS));
 8004d66:	69fb      	ldr	r3, [r7, #28]
 8004d68:	3304      	adds	r3, #4
 8004d6a:	2b06      	cmp	r3, #6
 8004d6c:	d902      	bls.n	8004d74 <NVIC_EncodePriority+0x30>
 8004d6e:	69fb      	ldr	r3, [r7, #28]
 8004d70:	3b03      	subs	r3, #3
 8004d72:	e000      	b.n	8004d76 <NVIC_EncodePriority+0x32>
 8004d74:	2300      	movs	r3, #0
 8004d76:	617b      	str	r3, [r7, #20]

  return (
           ((PreemptPriority & (uint32_t)((1UL << (PreemptPriorityBits)) - 1UL)) << SubPriorityBits) |
 8004d78:	f04f 32ff 	mov.w	r2, #4294967295
 8004d7c:	69bb      	ldr	r3, [r7, #24]
 8004d7e:	fa02 f303 	lsl.w	r3, r2, r3
 8004d82:	43da      	mvns	r2, r3
 8004d84:	68bb      	ldr	r3, [r7, #8]
 8004d86:	401a      	ands	r2, r3
 8004d88:	697b      	ldr	r3, [r7, #20]
 8004d8a:	409a      	lsls	r2, r3
           ((SubPriority     & (uint32_t)((1UL << (SubPriorityBits    )) - 1UL)))
 8004d8c:	f04f 31ff 	mov.w	r1, #4294967295
 8004d90:	697b      	ldr	r3, [r7, #20]
 8004d92:	fa01 f303 	lsl.w	r3, r1, r3
 8004d96:	43d9      	mvns	r1, r3
 8004d98:	687b      	ldr	r3, [r7, #4]
 8004d9a:	400b      	ands	r3, r1
           ((PreemptPriority & (uint32_t)((1UL << (PreemptPriorityBits)) - 1UL)) << SubPriorityBits) |
 8004d9c:	4313      	orrs	r3, r2
         );
}
 8004d9e:	4618      	mov	r0, r3
 8004da0:	3724      	adds	r7, #36	@ 0x24
 8004da2:	46bd      	mov	sp, r7
 8004da4:	f85d 7b04 	ldr.w	r7, [sp], #4
 8004da8:	4770      	bx	lr
	...

08004dac <SysTick_Config>:
  \note    When the variable <b>__Vendor_SysTickConfig</b> is set to 1, then the
           function <b>SysTick_Config</b> is not included. In this case, the file <b><i>device</i>.h</b>
           must contain a vendor-specific implementation of this function.
 */
__STATIC_INLINE uint32_t SysTick_Config(uint32_t ticks)
{
 8004dac:	b580      	push	{r7, lr}
 8004dae:	b082      	sub	sp, #8
 8004db0:	af00      	add	r7, sp, #0
 8004db2:	6078      	str	r0, [r7, #4]
  if ((ticks - 1UL) > SysTick_LOAD_RELOAD_Msk)
 8004db4:	687b      	ldr	r3, [r7, #4]
 8004db6:	3b01      	subs	r3, #1
 8004db8:	f1b3 7f80 	cmp.w	r3, #16777216	@ 0x1000000
 8004dbc:	d301      	bcc.n	8004dc2 <SysTick_Config+0x16>
  {
    return (1UL);                                                   /* Reload value impossible */
 8004dbe:	2301      	movs	r3, #1
 8004dc0:	e00f      	b.n	8004de2 <SysTick_Config+0x36>
  }

  SysTick->LOAD  = (uint32_t)(ticks - 1UL);                         /* set reload register */
 8004dc2:	4a0a      	ldr	r2, [pc, #40]	@ (8004dec <SysTick_Config+0x40>)
 8004dc4:	687b      	ldr	r3, [r7, #4]
 8004dc6:	3b01      	subs	r3, #1
 8004dc8:	6053      	str	r3, [r2, #4]
  NVIC_SetPriority (SysTick_IRQn, (1UL << __NVIC_PRIO_BITS) - 1UL); /* set Priority for Systick Interrupt */
 8004dca:	210f      	movs	r1, #15
 8004dcc:	f04f 30ff 	mov.w	r0, #4294967295
 8004dd0:	f7ff ff8e 	bl	8004cf0 <__NVIC_SetPriority>
  SysTick->VAL   = 0UL;                                             /* Load the SysTick Counter Value */
 8004dd4:	4b05      	ldr	r3, [pc, #20]	@ (8004dec <SysTick_Config+0x40>)
 8004dd6:	2200      	movs	r2, #0
 8004dd8:	609a      	str	r2, [r3, #8]
  SysTick->CTRL  = SysTick_CTRL_CLKSOURCE_Msk |
 8004dda:	4b04      	ldr	r3, [pc, #16]	@ (8004dec <SysTick_Config+0x40>)
 8004ddc:	2207      	movs	r2, #7
 8004dde:	601a      	str	r2, [r3, #0]
                   SysTick_CTRL_TICKINT_Msk   |
                   SysTick_CTRL_ENABLE_Msk;                         /* Enable SysTick IRQ and SysTick Timer */
  return (0UL);                                                     /* Function successful */
 8004de0:	2300      	movs	r3, #0
}
 8004de2:	4618      	mov	r0, r3
 8004de4:	3708      	adds	r7, #8
 8004de6:	46bd      	mov	sp, r7
 8004de8:	bd80      	pop	{r7, pc}
 8004dea:	bf00      	nop
 8004dec:	e000e010 	.word	0xe000e010

08004df0 <HAL_NVIC_SetPriorityGrouping>:
  * @note   When the NVIC_PriorityGroup_0 is selected, IRQ pre-emption is no more possible.
  *         The pending IRQ priority will be managed only by the subpriority.
  * @retval None
  */
void HAL_NVIC_SetPriorityGrouping(uint32_t PriorityGroup)
{
 8004df0:	b580      	push	{r7, lr}
 8004df2:	b082      	sub	sp, #8
 8004df4:	af00      	add	r7, sp, #0
 8004df6:	6078      	str	r0, [r7, #4]
  /* Check the parameters */
  assert_param(IS_NVIC_PRIORITY_GROUP(PriorityGroup));

  /* Set the PRIGROUP[10:8] bits according to the PriorityGroup parameter value */
  NVIC_SetPriorityGrouping(PriorityGroup);
 8004df8:	6878      	ldr	r0, [r7, #4]
 8004dfa:	f7ff ff29 	bl	8004c50 <__NVIC_SetPriorityGrouping>
}
 8004dfe:	bf00      	nop
 8004e00:	3708      	adds	r7, #8
 8004e02:	46bd      	mov	sp, r7
 8004e04:	bd80      	pop	{r7, pc}

08004e06 <HAL_NVIC_SetPriority>:
  *         This parameter can be a value between 0 and 15
  *         A lower priority value indicates a higher priority.
  * @retval None
  */
void HAL_NVIC_SetPriority(IRQn_Type IRQn, uint32_t PreemptPriority, uint32_t SubPriority)
{
 8004e06:	b580      	push	{r7, lr}
 8004e08:	b086      	sub	sp, #24
 8004e0a:	af00      	add	r7, sp, #0
 8004e0c:	4603      	mov	r3, r0
 8004e0e:	60b9      	str	r1, [r7, #8]
 8004e10:	607a      	str	r2, [r7, #4]
 8004e12:	73fb      	strb	r3, [r7, #15]

  /* Check the parameters */
  assert_param(IS_NVIC_SUB_PRIORITY(SubPriority));
  assert_param(IS_NVIC_PREEMPTION_PRIORITY(PreemptPriority));

  prioritygroup = NVIC_GetPriorityGrouping();
 8004e14:	f7ff ff40 	bl	8004c98 <__NVIC_GetPriorityGrouping>
 8004e18:	6178      	str	r0, [r7, #20]

  NVIC_SetPriority(IRQn, NVIC_EncodePriority(prioritygroup, PreemptPriority, SubPriority));
 8004e1a:	687a      	ldr	r2, [r7, #4]
 8004e1c:	68b9      	ldr	r1, [r7, #8]
 8004e1e:	6978      	ldr	r0, [r7, #20]
 8004e20:	f7ff ff90 	bl	8004d44 <NVIC_EncodePriority>
 8004e24:	4602      	mov	r2, r0
 8004e26:	f997 300f 	ldrsb.w	r3, [r7, #15]
 8004e2a:	4611      	mov	r1, r2
 8004e2c:	4618      	mov	r0, r3
 8004e2e:	f7ff ff5f 	bl	8004cf0 <__NVIC_SetPriority>
}
 8004e32:	bf00      	nop
 8004e34:	3718      	adds	r7, #24
 8004e36:	46bd      	mov	sp, r7
 8004e38:	bd80      	pop	{r7, pc}

08004e3a <HAL_NVIC_EnableIRQ>:
  *         This parameter can be an enumerator of IRQn_Type enumeration
  *         (For the complete STM32 Devices IRQ Channels list, please refer to the appropriate CMSIS device file (stm32g4xxxx.h))
  * @retval None
  */
void HAL_NVIC_EnableIRQ(IRQn_Type IRQn)
{
 8004e3a:	b580      	push	{r7, lr}
 8004e3c:	b082      	sub	sp, #8
 8004e3e:	af00      	add	r7, sp, #0
 8004e40:	4603      	mov	r3, r0
 8004e42:	71fb      	strb	r3, [r7, #7]
  /* Check the parameters */
  assert_param(IS_NVIC_DEVICE_IRQ(IRQn));
  
  /* Enable interrupt */
  NVIC_EnableIRQ(IRQn);
 8004e44:	f997 3007 	ldrsb.w	r3, [r7, #7]
 8004e48:	4618      	mov	r0, r3
 8004e4a:	f7ff ff33 	bl	8004cb4 <__NVIC_EnableIRQ>
}
 8004e4e:	bf00      	nop
 8004e50:	3708      	adds	r7, #8
 8004e52:	46bd      	mov	sp, r7
 8004e54:	bd80      	pop	{r7, pc}

08004e56 <HAL_SYSTICK_Config>:
  * @param  TicksNumb: Specifies the ticks Number of ticks between two interrupts.
  * @retval status:  - 0  Function succeeded.
  *                  - 1  Function failed.
  */
uint32_t HAL_SYSTICK_Config(uint32_t TicksNumb)
{
 8004e56:	b580      	push	{r7, lr}
 8004e58:	b082      	sub	sp, #8
 8004e5a:	af00      	add	r7, sp, #0
 8004e5c:	6078      	str	r0, [r7, #4]
   return SysTick_Config(TicksNumb);
 8004e5e:	6878      	ldr	r0, [r7, #4]
 8004e60:	f7ff ffa4 	bl	8004dac <SysTick_Config>
 8004e64:	4603      	mov	r3, r0
}
 8004e66:	4618      	mov	r0, r3
 8004e68:	3708      	adds	r7, #8
 8004e6a:	46bd      	mov	sp, r7
 8004e6c:	bd80      	pop	{r7, pc}
	...

08004e70 <HAL_DMA_Init>:
  * @param  hdma Pointer to a DMA_HandleTypeDef structure that contains
  *               the configuration information for the specified DMA Channel.
  * @retval HAL status
  */
HAL_StatusTypeDef HAL_DMA_Init(DMA_HandleTypeDef *hdma)
{
 8004e70:	b580      	push	{r7, lr}
 8004e72:	b084      	sub	sp, #16
 8004e74:	af00      	add	r7, sp, #0
 8004e76:	6078      	str	r0, [r7, #4]
  uint32_t tmp;

  /* Check the DMA handle allocation */
  if (hdma == NULL)
 8004e78:	687b      	ldr	r3, [r7, #4]
 8004e7a:	2b00      	cmp	r3, #0
 8004e7c:	d101      	bne.n	8004e82 <HAL_DMA_Init+0x12>
  {
    return HAL_ERROR;
 8004e7e:	2301      	movs	r3, #1
 8004e80:	e08e      	b.n	8004fa0 <HAL_DMA_Init+0x130>
  assert_param(IS_DMA_PRIORITY(hdma->Init.Priority));

  assert_param(IS_DMA_ALL_REQUEST(hdma->Init.Request));

  /* Compute the channel index */
  if ((uint32_t)(hdma->Instance) < (uint32_t)(DMA2_Channel1))
 8004e82:	687b      	ldr	r3, [r7, #4]
 8004e84:	681b      	ldr	r3, [r3, #0]
 8004e86:	461a      	mov	r2, r3
 8004e88:	4b47      	ldr	r3, [pc, #284]	@ (8004fa8 <HAL_DMA_Init+0x138>)
 8004e8a:	429a      	cmp	r2, r3
 8004e8c:	d80f      	bhi.n	8004eae <HAL_DMA_Init+0x3e>
  {
    /* DMA1 */
    hdma->ChannelIndex = (((uint32_t)hdma->Instance - (uint32_t)DMA1_Channel1) / ((uint32_t)DMA1_Channel2 - (uint32_t)DMA1_Channel1)) << 2;
 8004e8e:	687b      	ldr	r3, [r7, #4]
 8004e90:	681b      	ldr	r3, [r3, #0]
 8004e92:	461a      	mov	r2, r3
 8004e94:	4b45      	ldr	r3, [pc, #276]	@ (8004fac <HAL_DMA_Init+0x13c>)
 8004e96:	4413      	add	r3, r2
 8004e98:	4a45      	ldr	r2, [pc, #276]	@ (8004fb0 <HAL_DMA_Init+0x140>)
 8004e9a:	fba2 2303 	umull	r2, r3, r2, r3
 8004e9e:	091b      	lsrs	r3, r3, #4
 8004ea0:	009a      	lsls	r2, r3, #2
 8004ea2:	687b      	ldr	r3, [r7, #4]
 8004ea4:	645a      	str	r2, [r3, #68]	@ 0x44
    hdma->DmaBaseAddress = DMA1;
 8004ea6:	687b      	ldr	r3, [r7, #4]
 8004ea8:	4a42      	ldr	r2, [pc, #264]	@ (8004fb4 <HAL_DMA_Init+0x144>)
 8004eaa:	641a      	str	r2, [r3, #64]	@ 0x40
 8004eac:	e00e      	b.n	8004ecc <HAL_DMA_Init+0x5c>
  }
  else
  {
    /* DMA2 */
    hdma->ChannelIndex = (((uint32_t)hdma->Instance - (uint32_t)DMA2_Channel1) / ((uint32_t)DMA2_Channel2 - (uint32_t)DMA2_Channel1)) << 2;
 8004eae:	687b      	ldr	r3, [r7, #4]
 8004eb0:	681b      	ldr	r3, [r3, #0]
 8004eb2:	461a      	mov	r2, r3
 8004eb4:	4b40      	ldr	r3, [pc, #256]	@ (8004fb8 <HAL_DMA_Init+0x148>)
 8004eb6:	4413      	add	r3, r2
 8004eb8:	4a3d      	ldr	r2, [pc, #244]	@ (8004fb0 <HAL_DMA_Init+0x140>)
 8004eba:	fba2 2303 	umull	r2, r3, r2, r3
 8004ebe:	091b      	lsrs	r3, r3, #4
 8004ec0:	009a      	lsls	r2, r3, #2
 8004ec2:	687b      	ldr	r3, [r7, #4]
 8004ec4:	645a      	str	r2, [r3, #68]	@ 0x44
    hdma->DmaBaseAddress = DMA2;
 8004ec6:	687b      	ldr	r3, [r7, #4]
 8004ec8:	4a3c      	ldr	r2, [pc, #240]	@ (8004fbc <HAL_DMA_Init+0x14c>)
 8004eca:	641a      	str	r2, [r3, #64]	@ 0x40
  }

  /* Change DMA peripheral state */
  hdma->State = HAL_DMA_STATE_BUSY;
 8004ecc:	687b      	ldr	r3, [r7, #4]
 8004ece:	2202      	movs	r2, #2
 8004ed0:	f883 2025 	strb.w	r2, [r3, #37]	@ 0x25

  /* Get the CR register value */
  tmp = hdma->Instance->CCR;
 8004ed4:	687b      	ldr	r3, [r7, #4]
 8004ed6:	681b      	ldr	r3, [r3, #0]
 8004ed8:	681b      	ldr	r3, [r3, #0]
 8004eda:	60fb      	str	r3, [r7, #12]

  /* Clear PL, MSIZE, PSIZE, MINC, PINC, CIRC, DIR and MEM2MEM bits */
  tmp &= ((uint32_t)~(DMA_CCR_PL    | DMA_CCR_MSIZE  | DMA_CCR_PSIZE  |
 8004edc:	68fb      	ldr	r3, [r7, #12]
 8004ede:	f423 43ff 	bic.w	r3, r3, #32640	@ 0x7f80
 8004ee2:	f023 0370 	bic.w	r3, r3, #112	@ 0x70
 8004ee6:	60fb      	str	r3, [r7, #12]
                      DMA_CCR_MINC  | DMA_CCR_PINC   | DMA_CCR_CIRC   |
                      DMA_CCR_DIR   | DMA_CCR_MEM2MEM));

  /* Prepare the DMA Channel configuration */
  tmp |=  hdma->Init.Direction        |
 8004ee8:	687b      	ldr	r3, [r7, #4]
 8004eea:	689a      	ldr	r2, [r3, #8]
          hdma->Init.PeriphInc           | hdma->Init.MemInc           |
 8004eec:	687b      	ldr	r3, [r7, #4]
 8004eee:	68db      	ldr	r3, [r3, #12]
  tmp |=  hdma->Init.Direction        |
 8004ef0:	431a      	orrs	r2, r3
          hdma->Init.PeriphInc           | hdma->Init.MemInc           |
 8004ef2:	687b      	ldr	r3, [r7, #4]
 8004ef4:	691b      	ldr	r3, [r3, #16]
 8004ef6:	431a      	orrs	r2, r3
          hdma->Init.PeriphDataAlignment | hdma->Init.MemDataAlignment |
 8004ef8:	687b      	ldr	r3, [r7, #4]
 8004efa:	695b      	ldr	r3, [r3, #20]
          hdma->Init.PeriphInc           | hdma->Init.MemInc           |
 8004efc:	431a      	orrs	r2, r3
          hdma->Init.PeriphDataAlignment | hdma->Init.MemDataAlignment |
 8004efe:	687b      	ldr	r3, [r7, #4]
 8004f00:	699b      	ldr	r3, [r3, #24]
 8004f02:	431a      	orrs	r2, r3
          hdma->Init.Mode                | hdma->Init.Priority;
 8004f04:	687b      	ldr	r3, [r7, #4]
 8004f06:	69db      	ldr	r3, [r3, #28]
          hdma->Init.PeriphDataAlignment | hdma->Init.MemDataAlignment |
 8004f08:	431a      	orrs	r2, r3
          hdma->Init.Mode                | hdma->Init.Priority;
 8004f0a:	687b      	ldr	r3, [r7, #4]
 8004f0c:	6a1b      	ldr	r3, [r3, #32]
 8004f0e:	4313      	orrs	r3, r2
  tmp |=  hdma->Init.Direction        |
 8004f10:	68fa      	ldr	r2, [r7, #12]
 8004f12:	4313      	orrs	r3, r2
 8004f14:	60fb      	str	r3, [r7, #12]

  /* Write to DMA Channel CR register */
  hdma->Instance->CCR = tmp;
 8004f16:	687b      	ldr	r3, [r7, #4]
 8004f18:	681b      	ldr	r3, [r3, #0]
 8004f1a:	68fa      	ldr	r2, [r7, #12]
 8004f1c:	601a      	str	r2, [r3, #0]

  /* Initialize parameters for DMAMUX channel :
     DMAmuxChannel, DMAmuxChannelStatus and DMAmuxChannelStatusMask
  */
  DMA_CalcDMAMUXChannelBaseAndMask(hdma);
 8004f1e:	6878      	ldr	r0, [r7, #4]
 8004f20:	f000 f9b6 	bl	8005290 <DMA_CalcDMAMUXChannelBaseAndMask>

  if (hdma->Init.Direction == DMA_MEMORY_TO_MEMORY)
 8004f24:	687b      	ldr	r3, [r7, #4]
 8004f26:	689b      	ldr	r3, [r3, #8]
 8004f28:	f5b3 4f80 	cmp.w	r3, #16384	@ 0x4000
 8004f2c:	d102      	bne.n	8004f34 <HAL_DMA_Init+0xc4>
  {
    /* if memory to memory force the request to 0*/
    hdma->Init.Request = DMA_REQUEST_MEM2MEM;
 8004f2e:	687b      	ldr	r3, [r7, #4]
 8004f30:	2200      	movs	r2, #0
 8004f32:	605a      	str	r2, [r3, #4]
  }

  /* Set peripheral request  to DMAMUX channel */
  hdma->DMAmuxChannel->CCR = (hdma->Init.Request & DMAMUX_CxCR_DMAREQ_ID);
 8004f34:	687b      	ldr	r3, [r7, #4]
 8004f36:	685a      	ldr	r2, [r3, #4]
 8004f38:	687b      	ldr	r3, [r7, #4]
 8004f3a:	6c9b      	ldr	r3, [r3, #72]	@ 0x48
 8004f3c:	f002 027f 	and.w	r2, r2, #127	@ 0x7f
 8004f40:	601a      	str	r2, [r3, #0]

  /* Clear the DMAMUX synchro overrun flag */
  hdma->DMAmuxChannelStatus->CFR = hdma->DMAmuxChannelStatusMask;
 8004f42:	687b      	ldr	r3, [r7, #4]
 8004f44:	6cdb      	ldr	r3, [r3, #76]	@ 0x4c
 8004f46:	687a      	ldr	r2, [r7, #4]
 8004f48:	6d12      	ldr	r2, [r2, #80]	@ 0x50
 8004f4a:	605a      	str	r2, [r3, #4]

  if (((hdma->Init.Request >  0U) && (hdma->Init.Request <= DMA_REQUEST_GENERATOR3)))
 8004f4c:	687b      	ldr	r3, [r7, #4]
 8004f4e:	685b      	ldr	r3, [r3, #4]
 8004f50:	2b00      	cmp	r3, #0
 8004f52:	d010      	beq.n	8004f76 <HAL_DMA_Init+0x106>
 8004f54:	687b      	ldr	r3, [r7, #4]
 8004f56:	685b      	ldr	r3, [r3, #4]
 8004f58:	2b04      	cmp	r3, #4
 8004f5a:	d80c      	bhi.n	8004f76 <HAL_DMA_Init+0x106>
  {
    /* Initialize parameters for DMAMUX request generator :
       DMAmuxRequestGen, DMAmuxRequestGenStatus and DMAmuxRequestGenStatusMask
    */
    DMA_CalcDMAMUXRequestGenBaseAndMask(hdma);
 8004f5c:	6878      	ldr	r0, [r7, #4]
 8004f5e:	f000 f9df 	bl	8005320 <DMA_CalcDMAMUXRequestGenBaseAndMask>

    /* Reset the DMAMUX request generator register*/
    hdma->DMAmuxRequestGen->RGCR = 0U;
 8004f62:	687b      	ldr	r3, [r7, #4]
 8004f64:	6d5b      	ldr	r3, [r3, #84]	@ 0x54
 8004f66:	2200      	movs	r2, #0
 8004f68:	601a      	str	r2, [r3, #0]

    /* Clear the DMAMUX request generator overrun flag */
    hdma->DMAmuxRequestGenStatus->RGCFR = hdma->DMAmuxRequestGenStatusMask;
 8004f6a:	687b      	ldr	r3, [r7, #4]
 8004f6c:	6d9b      	ldr	r3, [r3, #88]	@ 0x58
 8004f6e:	687a      	ldr	r2, [r7, #4]
 8004f70:	6dd2      	ldr	r2, [r2, #92]	@ 0x5c
 8004f72:	605a      	str	r2, [r3, #4]
 8004f74:	e008      	b.n	8004f88 <HAL_DMA_Init+0x118>
  }
  else
  {
    hdma->DMAmuxRequestGen = 0U;
 8004f76:	687b      	ldr	r3, [r7, #4]
 8004f78:	2200      	movs	r2, #0
 8004f7a:	655a      	str	r2, [r3, #84]	@ 0x54
    hdma->DMAmuxRequestGenStatus = 0U;
 8004f7c:	687b      	ldr	r3, [r7, #4]
 8004f7e:	2200      	movs	r2, #0
 8004f80:	659a      	str	r2, [r3, #88]	@ 0x58
    hdma->DMAmuxRequestGenStatusMask = 0U;
 8004f82:	687b      	ldr	r3, [r7, #4]
 8004f84:	2200      	movs	r2, #0
 8004f86:	65da      	str	r2, [r3, #92]	@ 0x5c
  }

  /* Initialize the error code */
  hdma->ErrorCode = HAL_DMA_ERROR_NONE;
 8004f88:	687b      	ldr	r3, [r7, #4]
 8004f8a:	2200      	movs	r2, #0
 8004f8c:	63da      	str	r2, [r3, #60]	@ 0x3c

  /* Initialize the DMA state*/
  hdma->State  = HAL_DMA_STATE_READY;
 8004f8e:	687b      	ldr	r3, [r7, #4]
 8004f90:	2201      	movs	r2, #1
 8004f92:	f883 2025 	strb.w	r2, [r3, #37]	@ 0x25

  /* Allocate lock resource and initialize it */
  hdma->Lock = HAL_UNLOCKED;
 8004f96:	687b      	ldr	r3, [r7, #4]
 8004f98:	2200      	movs	r2, #0
 8004f9a:	f883 2024 	strb.w	r2, [r3, #36]	@ 0x24

  return HAL_OK;
 8004f9e:	2300      	movs	r3, #0
}
 8004fa0:	4618      	mov	r0, r3
 8004fa2:	3710      	adds	r7, #16
 8004fa4:	46bd      	mov	sp, r7
 8004fa6:	bd80      	pop	{r7, pc}
 8004fa8:	40020407 	.word	0x40020407
 8004fac:	bffdfff8 	.word	0xbffdfff8
 8004fb0:	cccccccd 	.word	0xcccccccd
 8004fb4:	40020000 	.word	0x40020000
 8004fb8:	bffdfbf8 	.word	0xbffdfbf8
 8004fbc:	40020400 	.word	0x40020400

08004fc0 <HAL_DMA_Start_IT>:
  * @param  DataLength The length of data to be transferred from source to destination (up to 256Kbytes-1)
  * @retval HAL status
  */
HAL_StatusTypeDef HAL_DMA_Start_IT(DMA_HandleTypeDef *hdma, uint32_t SrcAddress, uint32_t DstAddress,
                                   uint32_t DataLength)
{
 8004fc0:	b580      	push	{r7, lr}
 8004fc2:	b086      	sub	sp, #24
 8004fc4:	af00      	add	r7, sp, #0
 8004fc6:	60f8      	str	r0, [r7, #12]
 8004fc8:	60b9      	str	r1, [r7, #8]
 8004fca:	607a      	str	r2, [r7, #4]
 8004fcc:	603b      	str	r3, [r7, #0]
  HAL_StatusTypeDef status = HAL_OK;
 8004fce:	2300      	movs	r3, #0
 8004fd0:	75fb      	strb	r3, [r7, #23]

  /* Check the parameters */
  assert_param(IS_DMA_BUFFER_SIZE(DataLength));

  /* Process locked */
  __HAL_LOCK(hdma);
 8004fd2:	68fb      	ldr	r3, [r7, #12]
 8004fd4:	f893 3024 	ldrb.w	r3, [r3, #36]	@ 0x24
 8004fd8:	2b01      	cmp	r3, #1
 8004fda:	d101      	bne.n	8004fe0 <HAL_DMA_Start_IT+0x20>
 8004fdc:	2302      	movs	r3, #2
 8004fde:	e066      	b.n	80050ae <HAL_DMA_Start_IT+0xee>
 8004fe0:	68fb      	ldr	r3, [r7, #12]
 8004fe2:	2201      	movs	r2, #1
 8004fe4:	f883 2024 	strb.w	r2, [r3, #36]	@ 0x24

  if (HAL_DMA_STATE_READY == hdma->State)
 8004fe8:	68fb      	ldr	r3, [r7, #12]
 8004fea:	f893 3025 	ldrb.w	r3, [r3, #37]	@ 0x25
 8004fee:	b2db      	uxtb	r3, r3
 8004ff0:	2b01      	cmp	r3, #1
 8004ff2:	d155      	bne.n	80050a0 <HAL_DMA_Start_IT+0xe0>
  {
    /* Change DMA peripheral state */
    hdma->State = HAL_DMA_STATE_BUSY;
 8004ff4:	68fb      	ldr	r3, [r7, #12]
 8004ff6:	2202      	movs	r2, #2
 8004ff8:	f883 2025 	strb.w	r2, [r3, #37]	@ 0x25
    hdma->ErrorCode = HAL_DMA_ERROR_NONE;
 8004ffc:	68fb      	ldr	r3, [r7, #12]
 8004ffe:	2200      	movs	r2, #0
 8005000:	63da      	str	r2, [r3, #60]	@ 0x3c

    /* Disable the peripheral */
    __HAL_DMA_DISABLE(hdma);
 8005002:	68fb      	ldr	r3, [r7, #12]
 8005004:	681b      	ldr	r3, [r3, #0]
 8005006:	681a      	ldr	r2, [r3, #0]
 8005008:	68fb      	ldr	r3, [r7, #12]
 800500a:	681b      	ldr	r3, [r3, #0]
 800500c:	f022 0201 	bic.w	r2, r2, #1
 8005010:	601a      	str	r2, [r3, #0]

    /* Configure the source, destination address and the data length & clear flags*/
    DMA_SetConfig(hdma, SrcAddress, DstAddress, DataLength);
 8005012:	683b      	ldr	r3, [r7, #0]
 8005014:	687a      	ldr	r2, [r7, #4]
 8005016:	68b9      	ldr	r1, [r7, #8]
 8005018:	68f8      	ldr	r0, [r7, #12]
 800501a:	f000 f8fb 	bl	8005214 <DMA_SetConfig>

    /* Enable the transfer complete interrupt */
    /* Enable the transfer Error interrupt */
    if (NULL != hdma->XferHalfCpltCallback)
 800501e:	68fb      	ldr	r3, [r7, #12]
 8005020:	6b1b      	ldr	r3, [r3, #48]	@ 0x30
 8005022:	2b00      	cmp	r3, #0
 8005024:	d008      	beq.n	8005038 <HAL_DMA_Start_IT+0x78>
    {
      /* Enable the Half transfer complete interrupt as well */
      __HAL_DMA_ENABLE_IT(hdma, (DMA_IT_TC | DMA_IT_HT | DMA_IT_TE));
 8005026:	68fb      	ldr	r3, [r7, #12]
 8005028:	681b      	ldr	r3, [r3, #0]
 800502a:	681a      	ldr	r2, [r3, #0]
 800502c:	68fb      	ldr	r3, [r7, #12]
 800502e:	681b      	ldr	r3, [r3, #0]
 8005030:	f042 020e 	orr.w	r2, r2, #14
 8005034:	601a      	str	r2, [r3, #0]
 8005036:	e00f      	b.n	8005058 <HAL_DMA_Start_IT+0x98>
    }
    else
    {
      __HAL_DMA_DISABLE_IT(hdma, DMA_IT_HT);
 8005038:	68fb      	ldr	r3, [r7, #12]
 800503a:	681b      	ldr	r3, [r3, #0]
 800503c:	681a      	ldr	r2, [r3, #0]
 800503e:	68fb      	ldr	r3, [r7, #12]
 8005040:	681b      	ldr	r3, [r3, #0]
 8005042:	f022 0204 	bic.w	r2, r2, #4
 8005046:	601a      	str	r2, [r3, #0]
      __HAL_DMA_ENABLE_IT(hdma, (DMA_IT_TC | DMA_IT_TE));
 8005048:	68fb      	ldr	r3, [r7, #12]
 800504a:	681b      	ldr	r3, [r3, #0]
 800504c:	681a      	ldr	r2, [r3, #0]
 800504e:	68fb      	ldr	r3, [r7, #12]
 8005050:	681b      	ldr	r3, [r3, #0]
 8005052:	f042 020a 	orr.w	r2, r2, #10
 8005056:	601a      	str	r2, [r3, #0]
    }

    /* Check if DMAMUX Synchronization is enabled*/
    if ((hdma->DMAmuxChannel->CCR & DMAMUX_CxCR_SE) != 0U)
 8005058:	68fb      	ldr	r3, [r7, #12]
 800505a:	6c9b      	ldr	r3, [r3, #72]	@ 0x48
 800505c:	681b      	ldr	r3, [r3, #0]
 800505e:	f403 3380 	and.w	r3, r3, #65536	@ 0x10000
 8005062:	2b00      	cmp	r3, #0
 8005064:	d007      	beq.n	8005076 <HAL_DMA_Start_IT+0xb6>
    {
      /* Enable DMAMUX sync overrun IT*/
      hdma->DMAmuxChannel->CCR |= DMAMUX_CxCR_SOIE;
 8005066:	68fb      	ldr	r3, [r7, #12]
 8005068:	6c9b      	ldr	r3, [r3, #72]	@ 0x48
 800506a:	681a      	ldr	r2, [r3, #0]
 800506c:	68fb      	ldr	r3, [r7, #12]
 800506e:	6c9b      	ldr	r3, [r3, #72]	@ 0x48
 8005070:	f442 7280 	orr.w	r2, r2, #256	@ 0x100
 8005074:	601a      	str	r2, [r3, #0]
    }

    if (hdma->DMAmuxRequestGen != 0U)
 8005076:	68fb      	ldr	r3, [r7, #12]
 8005078:	6d5b      	ldr	r3, [r3, #84]	@ 0x54
 800507a:	2b00      	cmp	r3, #0
 800507c:	d007      	beq.n	800508e <HAL_DMA_Start_IT+0xce>
    {
      /* if using DMAMUX request generator, enable the DMAMUX request generator overrun IT*/
      /* enable the request gen overrun IT*/
      hdma->DMAmuxRequestGen->RGCR |= DMAMUX_RGxCR_OIE;
 800507e:	68fb      	ldr	r3, [r7, #12]
 8005080:	6d5b      	ldr	r3, [r3, #84]	@ 0x54
 8005082:	681a      	ldr	r2, [r3, #0]
 8005084:	68fb      	ldr	r3, [r7, #12]
 8005086:	6d5b      	ldr	r3, [r3, #84]	@ 0x54
 8005088:	f442 7280 	orr.w	r2, r2, #256	@ 0x100
 800508c:	601a      	str	r2, [r3, #0]
    }

    /* Enable the Peripheral */
    __HAL_DMA_ENABLE(hdma);
 800508e:	68fb      	ldr	r3, [r7, #12]
 8005090:	681b      	ldr	r3, [r3, #0]
 8005092:	681a      	ldr	r2, [r3, #0]
 8005094:	68fb      	ldr	r3, [r7, #12]
 8005096:	681b      	ldr	r3, [r3, #0]
 8005098:	f042 0201 	orr.w	r2, r2, #1
 800509c:	601a      	str	r2, [r3, #0]
 800509e:	e005      	b.n	80050ac <HAL_DMA_Start_IT+0xec>
  }
  else
  {
    /* Process Unlocked */
    __HAL_UNLOCK(hdma);
 80050a0:	68fb      	ldr	r3, [r7, #12]
 80050a2:	2200      	movs	r2, #0
 80050a4:	f883 2024 	strb.w	r2, [r3, #36]	@ 0x24

    /* Remain BUSY */
    status = HAL_BUSY;
 80050a8:	2302      	movs	r3, #2
 80050aa:	75fb      	strb	r3, [r7, #23]
  }
  return status;
 80050ac:	7dfb      	ldrb	r3, [r7, #23]
}
 80050ae:	4618      	mov	r0, r3
 80050b0:	3718      	adds	r7, #24
 80050b2:	46bd      	mov	sp, r7
 80050b4:	bd80      	pop	{r7, pc}

080050b6 <HAL_DMA_IRQHandler>:
  * @param  hdma pointer to a DMA_HandleTypeDef structure that contains
  *               the configuration information for the specified DMA Channel.
  * @retval None
  */
void HAL_DMA_IRQHandler(DMA_HandleTypeDef *hdma)
{
 80050b6:	b580      	push	{r7, lr}
 80050b8:	b084      	sub	sp, #16
 80050ba:	af00      	add	r7, sp, #0
 80050bc:	6078      	str	r0, [r7, #4]
  uint32_t flag_it = hdma->DmaBaseAddress->ISR;
 80050be:	687b      	ldr	r3, [r7, #4]
 80050c0:	6c1b      	ldr	r3, [r3, #64]	@ 0x40
 80050c2:	681b      	ldr	r3, [r3, #0]
 80050c4:	60fb      	str	r3, [r7, #12]
  uint32_t source_it = hdma->Instance->CCR;
 80050c6:	687b      	ldr	r3, [r7, #4]
 80050c8:	681b      	ldr	r3, [r3, #0]
 80050ca:	681b      	ldr	r3, [r3, #0]
 80050cc:	60bb      	str	r3, [r7, #8]

  /* Half Transfer Complete Interrupt management ******************************/
  if ((0U != (flag_it & ((uint32_t)DMA_FLAG_HT1 << (hdma->ChannelIndex & 0x1FU)))) && (0U != (source_it & DMA_IT_HT)))
 80050ce:	687b      	ldr	r3, [r7, #4]
 80050d0:	6c5b      	ldr	r3, [r3, #68]	@ 0x44
 80050d2:	f003 031f 	and.w	r3, r3, #31
 80050d6:	2204      	movs	r2, #4
 80050d8:	409a      	lsls	r2, r3
 80050da:	68fb      	ldr	r3, [r7, #12]
 80050dc:	4013      	ands	r3, r2
 80050de:	2b00      	cmp	r3, #0
 80050e0:	d026      	beq.n	8005130 <HAL_DMA_IRQHandler+0x7a>
 80050e2:	68bb      	ldr	r3, [r7, #8]
 80050e4:	f003 0304 	and.w	r3, r3, #4
 80050e8:	2b00      	cmp	r3, #0
 80050ea:	d021      	beq.n	8005130 <HAL_DMA_IRQHandler+0x7a>
  {
    /* Disable the half transfer interrupt if the DMA mode is not CIRCULAR */
    if ((hdma->Instance->CCR & DMA_CCR_CIRC) == 0U)
 80050ec:	687b      	ldr	r3, [r7, #4]
 80050ee:	681b      	ldr	r3, [r3, #0]
 80050f0:	681b      	ldr	r3, [r3, #0]
 80050f2:	f003 0320 	and.w	r3, r3, #32
 80050f6:	2b00      	cmp	r3, #0
 80050f8:	d107      	bne.n	800510a <HAL_DMA_IRQHandler+0x54>
    {
      /* Disable the half transfer interrupt */
      __HAL_DMA_DISABLE_IT(hdma, DMA_IT_HT);
 80050fa:	687b      	ldr	r3, [r7, #4]
 80050fc:	681b      	ldr	r3, [r3, #0]
 80050fe:	681a      	ldr	r2, [r3, #0]
 8005100:	687b      	ldr	r3, [r7, #4]
 8005102:	681b      	ldr	r3, [r3, #0]
 8005104:	f022 0204 	bic.w	r2, r2, #4
 8005108:	601a      	str	r2, [r3, #0]
    }
    /* Clear the half transfer complete flag */
    hdma->DmaBaseAddress->IFCR = ((uint32_t)DMA_ISR_HTIF1 << (hdma->ChannelIndex & 0x1FU));
 800510a:	687b      	ldr	r3, [r7, #4]
 800510c:	6c5b      	ldr	r3, [r3, #68]	@ 0x44
 800510e:	f003 021f 	and.w	r2, r3, #31
 8005112:	687b      	ldr	r3, [r7, #4]
 8005114:	6c1b      	ldr	r3, [r3, #64]	@ 0x40
 8005116:	2104      	movs	r1, #4
 8005118:	fa01 f202 	lsl.w	r2, r1, r2
 800511c:	605a      	str	r2, [r3, #4]

    /* DMA peripheral state is not updated in Half Transfer */
    /* but in Transfer Complete case */

    if (hdma->XferHalfCpltCallback != NULL)
 800511e:	687b      	ldr	r3, [r7, #4]
 8005120:	6b1b      	ldr	r3, [r3, #48]	@ 0x30
 8005122:	2b00      	cmp	r3, #0
 8005124:	d071      	beq.n	800520a <HAL_DMA_IRQHandler+0x154>
    {
      /* Half transfer callback */
      hdma->XferHalfCpltCallback(hdma);
 8005126:	687b      	ldr	r3, [r7, #4]
 8005128:	6b1b      	ldr	r3, [r3, #48]	@ 0x30
 800512a:	6878      	ldr	r0, [r7, #4]
 800512c:	4798      	blx	r3
    if (hdma->XferHalfCpltCallback != NULL)
 800512e:	e06c      	b.n	800520a <HAL_DMA_IRQHandler+0x154>
    }
  }
  /* Transfer Complete Interrupt management ***********************************/
  else if ((0U != (flag_it & ((uint32_t)DMA_FLAG_TC1 << (hdma->ChannelIndex & 0x1FU))))
 8005130:	687b      	ldr	r3, [r7, #4]
 8005132:	6c5b      	ldr	r3, [r3, #68]	@ 0x44
 8005134:	f003 031f 	and.w	r3, r3, #31
 8005138:	2202      	movs	r2, #2
 800513a:	409a      	lsls	r2, r3
 800513c:	68fb      	ldr	r3, [r7, #12]
 800513e:	4013      	ands	r3, r2
 8005140:	2b00      	cmp	r3, #0
 8005142:	d02e      	beq.n	80051a2 <HAL_DMA_IRQHandler+0xec>
           && (0U != (source_it & DMA_IT_TC)))
 8005144:	68bb      	ldr	r3, [r7, #8]
 8005146:	f003 0302 	and.w	r3, r3, #2
 800514a:	2b00      	cmp	r3, #0
 800514c:	d029      	beq.n	80051a2 <HAL_DMA_IRQHandler+0xec>
  {
    if ((hdma->Instance->CCR & DMA_CCR_CIRC) == 0U)
 800514e:	687b      	ldr	r3, [r7, #4]
 8005150:	681b      	ldr	r3, [r3, #0]
 8005152:	681b      	ldr	r3, [r3, #0]
 8005154:	f003 0320 	and.w	r3, r3, #32
 8005158:	2b00      	cmp	r3, #0
 800515a:	d10b      	bne.n	8005174 <HAL_DMA_IRQHandler+0xbe>
    {
      /* Disable the transfer complete and error interrupt */
      __HAL_DMA_DISABLE_IT(hdma, DMA_IT_TE | DMA_IT_TC);
 800515c:	687b      	ldr	r3, [r7, #4]
 800515e:	681b      	ldr	r3, [r3, #0]
 8005160:	681a      	ldr	r2, [r3, #0]
 8005162:	687b      	ldr	r3, [r7, #4]
 8005164:	681b      	ldr	r3, [r3, #0]
 8005166:	f022 020a 	bic.w	r2, r2, #10
 800516a:	601a      	str	r2, [r3, #0]

      /* Change the DMA state */
      hdma->State = HAL_DMA_STATE_READY;
 800516c:	687b      	ldr	r3, [r7, #4]
 800516e:	2201      	movs	r2, #1
 8005170:	f883 2025 	strb.w	r2, [r3, #37]	@ 0x25
    }
    /* Clear the transfer complete flag */
    hdma->DmaBaseAddress->IFCR = ((uint32_t)DMA_ISR_TCIF1 << (hdma->ChannelIndex & 0x1FU));
 8005174:	687b      	ldr	r3, [r7, #4]
 8005176:	6c5b      	ldr	r3, [r3, #68]	@ 0x44
 8005178:	f003 021f 	and.w	r2, r3, #31
 800517c:	687b      	ldr	r3, [r7, #4]
 800517e:	6c1b      	ldr	r3, [r3, #64]	@ 0x40
 8005180:	2102      	movs	r1, #2
 8005182:	fa01 f202 	lsl.w	r2, r1, r2
 8005186:	605a      	str	r2, [r3, #4]

    /* Process Unlocked */
    __HAL_UNLOCK(hdma);
 8005188:	687b      	ldr	r3, [r7, #4]
 800518a:	2200      	movs	r2, #0
 800518c:	f883 2024 	strb.w	r2, [r3, #36]	@ 0x24

    if (hdma->XferCpltCallback != NULL)
 8005190:	687b      	ldr	r3, [r7, #4]
 8005192:	6adb      	ldr	r3, [r3, #44]	@ 0x2c
 8005194:	2b00      	cmp	r3, #0
 8005196:	d038      	beq.n	800520a <HAL_DMA_IRQHandler+0x154>
    {
      /* Transfer complete callback */
      hdma->XferCpltCallback(hdma);
 8005198:	687b      	ldr	r3, [r7, #4]
 800519a:	6adb      	ldr	r3, [r3, #44]	@ 0x2c
 800519c:	6878      	ldr	r0, [r7, #4]
 800519e:	4798      	blx	r3
    if (hdma->XferCpltCallback != NULL)
 80051a0:	e033      	b.n	800520a <HAL_DMA_IRQHandler+0x154>
    }
  }
  /* Transfer Error Interrupt management **************************************/
  else if ((0U != (flag_it & ((uint32_t)DMA_FLAG_TE1 << (hdma->ChannelIndex & 0x1FU))))
 80051a2:	687b      	ldr	r3, [r7, #4]
 80051a4:	6c5b      	ldr	r3, [r3, #68]	@ 0x44
 80051a6:	f003 031f 	and.w	r3, r3, #31
 80051aa:	2208      	movs	r2, #8
 80051ac:	409a      	lsls	r2, r3
 80051ae:	68fb      	ldr	r3, [r7, #12]
 80051b0:	4013      	ands	r3, r2
 80051b2:	2b00      	cmp	r3, #0
 80051b4:	d02a      	beq.n	800520c <HAL_DMA_IRQHandler+0x156>
           && (0U != (source_it & DMA_IT_TE)))
 80051b6:	68bb      	ldr	r3, [r7, #8]
 80051b8:	f003 0308 	and.w	r3, r3, #8
 80051bc:	2b00      	cmp	r3, #0
 80051be:	d025      	beq.n	800520c <HAL_DMA_IRQHandler+0x156>
  {
    /* When a DMA transfer error occurs */
    /* A hardware clear of its EN bits is performed */
    /* Disable ALL DMA IT */
    __HAL_DMA_DISABLE_IT(hdma, (DMA_IT_TC | DMA_IT_HT | DMA_IT_TE));
 80051c0:	687b      	ldr	r3, [r7, #4]
 80051c2:	681b      	ldr	r3, [r3, #0]
 80051c4:	681a      	ldr	r2, [r3, #0]
 80051c6:	687b      	ldr	r3, [r7, #4]
 80051c8:	681b      	ldr	r3, [r3, #0]
 80051ca:	f022 020e 	bic.w	r2, r2, #14
 80051ce:	601a      	str	r2, [r3, #0]

    /* Clear all flags */
    hdma->DmaBaseAddress->IFCR = ((uint32_t)DMA_ISR_GIF1 << (hdma->ChannelIndex & 0x1FU));
 80051d0:	687b      	ldr	r3, [r7, #4]
 80051d2:	6c5b      	ldr	r3, [r3, #68]	@ 0x44
 80051d4:	f003 021f 	and.w	r2, r3, #31
 80051d8:	687b      	ldr	r3, [r7, #4]
 80051da:	6c1b      	ldr	r3, [r3, #64]	@ 0x40
 80051dc:	2101      	movs	r1, #1
 80051de:	fa01 f202 	lsl.w	r2, r1, r2
 80051e2:	605a      	str	r2, [r3, #4]

    /* Update error code */
    hdma->ErrorCode = HAL_DMA_ERROR_TE;
 80051e4:	687b      	ldr	r3, [r7, #4]
 80051e6:	2201      	movs	r2, #1
 80051e8:	63da      	str	r2, [r3, #60]	@ 0x3c

    /* Change the DMA state */
    hdma->State = HAL_DMA_STATE_READY;
 80051ea:	687b      	ldr	r3, [r7, #4]
 80051ec:	2201      	movs	r2, #1
 80051ee:	f883 2025 	strb.w	r2, [r3, #37]	@ 0x25

    /* Process Unlocked */
    __HAL_UNLOCK(hdma);
 80051f2:	687b      	ldr	r3, [r7, #4]
 80051f4:	2200      	movs	r2, #0
 80051f6:	f883 2024 	strb.w	r2, [r3, #36]	@ 0x24

    if (hdma->XferErrorCallback != NULL)
 80051fa:	687b      	ldr	r3, [r7, #4]
 80051fc:	6b5b      	ldr	r3, [r3, #52]	@ 0x34
 80051fe:	2b00      	cmp	r3, #0
 8005200:	d004      	beq.n	800520c <HAL_DMA_IRQHandler+0x156>
    {
      /* Transfer error callback */
      hdma->XferErrorCallback(hdma);
 8005202:	687b      	ldr	r3, [r7, #4]
 8005204:	6b5b      	ldr	r3, [r3, #52]	@ 0x34
 8005206:	6878      	ldr	r0, [r7, #4]
 8005208:	4798      	blx	r3
  }
  else
  {
    /* Nothing To Do */
  }
  return;
 800520a:	bf00      	nop
 800520c:	bf00      	nop
}
 800520e:	3710      	adds	r7, #16
 8005210:	46bd      	mov	sp, r7
 8005212:	bd80      	pop	{r7, pc}

08005214 <DMA_SetConfig>:
  * @param  DstAddress The destination memory Buffer address
  * @param  DataLength The length of data to be transferred from source to destination
  * @retval HAL status
  */
static void DMA_SetConfig(DMA_HandleTypeDef *hdma, uint32_t SrcAddress, uint32_t DstAddress, uint32_t DataLength)
{
 8005214:	b480      	push	{r7}
 8005216:	b085      	sub	sp, #20
 8005218:	af00      	add	r7, sp, #0
 800521a:	60f8      	str	r0, [r7, #12]
 800521c:	60b9      	str	r1, [r7, #8]
 800521e:	607a      	str	r2, [r7, #4]
 8005220:	603b      	str	r3, [r7, #0]
  /* Clear the DMAMUX synchro overrun flag */
  hdma->DMAmuxChannelStatus->CFR = hdma->DMAmuxChannelStatusMask;
 8005222:	68fb      	ldr	r3, [r7, #12]
 8005224:	6cdb      	ldr	r3, [r3, #76]	@ 0x4c
 8005226:	68fa      	ldr	r2, [r7, #12]
 8005228:	6d12      	ldr	r2, [r2, #80]	@ 0x50
 800522a:	605a      	str	r2, [r3, #4]

  if (hdma->DMAmuxRequestGen != 0U)
 800522c:	68fb      	ldr	r3, [r7, #12]
 800522e:	6d5b      	ldr	r3, [r3, #84]	@ 0x54
 8005230:	2b00      	cmp	r3, #0
 8005232:	d004      	beq.n	800523e <DMA_SetConfig+0x2a>
  {
    /* Clear the DMAMUX request generator overrun flag */
    hdma->DMAmuxRequestGenStatus->RGCFR = hdma->DMAmuxRequestGenStatusMask;
 8005234:	68fb      	ldr	r3, [r7, #12]
 8005236:	6d9b      	ldr	r3, [r3, #88]	@ 0x58
 8005238:	68fa      	ldr	r2, [r7, #12]
 800523a:	6dd2      	ldr	r2, [r2, #92]	@ 0x5c
 800523c:	605a      	str	r2, [r3, #4]
  }

  /* Clear all flags */
  hdma->DmaBaseAddress->IFCR = (DMA_ISR_GIF1 << (hdma->ChannelIndex & 0x1FU));
 800523e:	68fb      	ldr	r3, [r7, #12]
 8005240:	6c5b      	ldr	r3, [r3, #68]	@ 0x44
 8005242:	f003 021f 	and.w	r2, r3, #31
 8005246:	68fb      	ldr	r3, [r7, #12]
 8005248:	6c1b      	ldr	r3, [r3, #64]	@ 0x40
 800524a:	2101      	movs	r1, #1
 800524c:	fa01 f202 	lsl.w	r2, r1, r2
 8005250:	605a      	str	r2, [r3, #4]

  /* Configure DMA Channel data length */
  hdma->Instance->CNDTR = DataLength;
 8005252:	68fb      	ldr	r3, [r7, #12]
 8005254:	681b      	ldr	r3, [r3, #0]
 8005256:	683a      	ldr	r2, [r7, #0]
 8005258:	605a      	str	r2, [r3, #4]

  /* Memory to Peripheral */
  if ((hdma->Init.Direction) == DMA_MEMORY_TO_PERIPH)
 800525a:	68fb      	ldr	r3, [r7, #12]
 800525c:	689b      	ldr	r3, [r3, #8]
 800525e:	2b10      	cmp	r3, #16
 8005260:	d108      	bne.n	8005274 <DMA_SetConfig+0x60>
  {
    /* Configure DMA Channel destination address */
    hdma->Instance->CPAR = DstAddress;
 8005262:	68fb      	ldr	r3, [r7, #12]
 8005264:	681b      	ldr	r3, [r3, #0]
 8005266:	687a      	ldr	r2, [r7, #4]
 8005268:	609a      	str	r2, [r3, #8]

    /* Configure DMA Channel source address */
    hdma->Instance->CMAR = SrcAddress;
 800526a:	68fb      	ldr	r3, [r7, #12]
 800526c:	681b      	ldr	r3, [r3, #0]
 800526e:	68ba      	ldr	r2, [r7, #8]
 8005270:	60da      	str	r2, [r3, #12]
    hdma->Instance->CPAR = SrcAddress;

    /* Configure DMA Channel destination address */
    hdma->Instance->CMAR = DstAddress;
  }
}
 8005272:	e007      	b.n	8005284 <DMA_SetConfig+0x70>
    hdma->Instance->CPAR = SrcAddress;
 8005274:	68fb      	ldr	r3, [r7, #12]
 8005276:	681b      	ldr	r3, [r3, #0]
 8005278:	68ba      	ldr	r2, [r7, #8]
 800527a:	609a      	str	r2, [r3, #8]
    hdma->Instance->CMAR = DstAddress;
 800527c:	68fb      	ldr	r3, [r7, #12]
 800527e:	681b      	ldr	r3, [r3, #0]
 8005280:	687a      	ldr	r2, [r7, #4]
 8005282:	60da      	str	r2, [r3, #12]
}
 8005284:	bf00      	nop
 8005286:	3714      	adds	r7, #20
 8005288:	46bd      	mov	sp, r7
 800528a:	f85d 7b04 	ldr.w	r7, [sp], #4
 800528e:	4770      	bx	lr

08005290 <DMA_CalcDMAMUXChannelBaseAndMask>:
  * @param  hdma        pointer to a DMA_HandleTypeDef structure that contains
  *                     the configuration information for the specified DMA Stream.
  * @retval None
  */
static void DMA_CalcDMAMUXChannelBaseAndMask(DMA_HandleTypeDef *hdma)
{
 8005290:	b480      	push	{r7}
 8005292:	b087      	sub	sp, #28
 8005294:	af00      	add	r7, sp, #0
 8005296:	6078      	str	r0, [r7, #4]
  uint32_t dmamux_base_addr;
  uint32_t channel_number;
  DMAMUX_Channel_TypeDef *DMAMUX1_ChannelBase;

  /* check if instance is not outside the DMA channel range */
  if ((uint32_t)hdma->Instance < (uint32_t)DMA2_Channel1)
 8005298:	687b      	ldr	r3, [r7, #4]
 800529a:	681b      	ldr	r3, [r3, #0]
 800529c:	461a      	mov	r2, r3
 800529e:	4b1b      	ldr	r3, [pc, #108]	@ (800530c <DMA_CalcDMAMUXChannelBaseAndMask+0x7c>)
 80052a0:	429a      	cmp	r2, r3
 80052a2:	d80b      	bhi.n	80052bc <DMA_CalcDMAMUXChannelBaseAndMask+0x2c>
  {
    /* DMA1 */
    DMAMUX1_ChannelBase = DMAMUX1_Channel0;
 80052a4:	4b1a      	ldr	r3, [pc, #104]	@ (8005310 <DMA_CalcDMAMUXChannelBaseAndMask+0x80>)
 80052a6:	613b      	str	r3, [r7, #16]
    channel_number = (((uint32_t)hdma->Instance & 0xFFU) - 8U) / 20U;
 80052a8:	687b      	ldr	r3, [r7, #4]
 80052aa:	681b      	ldr	r3, [r3, #0]
 80052ac:	b2db      	uxtb	r3, r3
 80052ae:	3b08      	subs	r3, #8
 80052b0:	4a18      	ldr	r2, [pc, #96]	@ (8005314 <DMA_CalcDMAMUXChannelBaseAndMask+0x84>)
 80052b2:	fba2 2303 	umull	r2, r3, r2, r3
 80052b6:	091b      	lsrs	r3, r3, #4
 80052b8:	617b      	str	r3, [r7, #20]
 80052ba:	e00b      	b.n	80052d4 <DMA_CalcDMAMUXChannelBaseAndMask+0x44>
    /* DMA2 */
#if defined (STM32G471xx) || defined (STM32G473xx) || defined (STM32G474xx) || defined (STM32G414xx) || defined (STM32G483xx) || defined (STM32G484xx) || defined (STM32G491xx) || defined (STM32G4A1xx) || defined (STM32G411xC)
    DMAMUX1_ChannelBase = DMAMUX1_Channel8;
    channel_number = ((((uint32_t)hdma->Instance & 0xFFU) - 8U) / 20U) + 8U;
#elif defined (STM32G411xB) || defined (STM32G431xx) || defined (STM32G441xx) || defined (STM32GBK1CB)
    DMAMUX1_ChannelBase = DMAMUX1_Channel6;
 80052bc:	4b16      	ldr	r3, [pc, #88]	@ (8005318 <DMA_CalcDMAMUXChannelBaseAndMask+0x88>)
 80052be:	613b      	str	r3, [r7, #16]
    channel_number = ((((uint32_t)hdma->Instance & 0xFFU) - 8U) / 20U) + 6U;
 80052c0:	687b      	ldr	r3, [r7, #4]
 80052c2:	681b      	ldr	r3, [r3, #0]
 80052c4:	b2db      	uxtb	r3, r3
 80052c6:	3b08      	subs	r3, #8
 80052c8:	4a12      	ldr	r2, [pc, #72]	@ (8005314 <DMA_CalcDMAMUXChannelBaseAndMask+0x84>)
 80052ca:	fba2 2303 	umull	r2, r3, r2, r3
 80052ce:	091b      	lsrs	r3, r3, #4
 80052d0:	3306      	adds	r3, #6
 80052d2:	617b      	str	r3, [r7, #20]
    DMAMUX1_ChannelBase = DMAMUX1_Channel7;
    channel_number = ((((uint32_t)hdma->Instance & 0xFFU) - 8U) / 20U) + 7U;
#endif /* STM32G4x1xx) */
  }

  dmamux_base_addr = (uint32_t)DMAMUX1_ChannelBase;
 80052d4:	693b      	ldr	r3, [r7, #16]
 80052d6:	60fb      	str	r3, [r7, #12]
  hdma->DMAmuxChannel = (DMAMUX_Channel_TypeDef *)(uint32_t)(dmamux_base_addr + ((hdma->ChannelIndex >> 2U) * ((uint32_t)DMAMUX1_Channel1 - (uint32_t)DMAMUX1_Channel0)));
 80052d8:	687b      	ldr	r3, [r7, #4]
 80052da:	6c5b      	ldr	r3, [r3, #68]	@ 0x44
 80052dc:	089b      	lsrs	r3, r3, #2
 80052de:	009a      	lsls	r2, r3, #2
 80052e0:	68fb      	ldr	r3, [r7, #12]
 80052e2:	4413      	add	r3, r2
 80052e4:	461a      	mov	r2, r3
 80052e6:	687b      	ldr	r3, [r7, #4]
 80052e8:	649a      	str	r2, [r3, #72]	@ 0x48
  hdma->DMAmuxChannelStatus = DMAMUX1_ChannelStatus;
 80052ea:	687b      	ldr	r3, [r7, #4]
 80052ec:	4a0b      	ldr	r2, [pc, #44]	@ (800531c <DMA_CalcDMAMUXChannelBaseAndMask+0x8c>)
 80052ee:	64da      	str	r2, [r3, #76]	@ 0x4c
  hdma->DMAmuxChannelStatusMask = 1UL << (channel_number & 0x1FU);
 80052f0:	697b      	ldr	r3, [r7, #20]
 80052f2:	f003 031f 	and.w	r3, r3, #31
 80052f6:	2201      	movs	r2, #1
 80052f8:	409a      	lsls	r2, r3
 80052fa:	687b      	ldr	r3, [r7, #4]
 80052fc:	651a      	str	r2, [r3, #80]	@ 0x50
}
 80052fe:	bf00      	nop
 8005300:	371c      	adds	r7, #28
 8005302:	46bd      	mov	sp, r7
 8005304:	f85d 7b04 	ldr.w	r7, [sp], #4
 8005308:	4770      	bx	lr
 800530a:	bf00      	nop
 800530c:	40020407 	.word	0x40020407
 8005310:	40020800 	.word	0x40020800
 8005314:	cccccccd 	.word	0xcccccccd
 8005318:	40020820 	.word	0x40020820
 800531c:	40020880 	.word	0x40020880

08005320 <DMA_CalcDMAMUXRequestGenBaseAndMask>:
  *                     the configuration information for the specified DMA Channel.
  * @retval None
  */

static void DMA_CalcDMAMUXRequestGenBaseAndMask(DMA_HandleTypeDef *hdma)
{
 8005320:	b480      	push	{r7}
 8005322:	b085      	sub	sp, #20
 8005324:	af00      	add	r7, sp, #0
 8005326:	6078      	str	r0, [r7, #4]
  uint32_t request =  hdma->Init.Request & DMAMUX_CxCR_DMAREQ_ID;
 8005328:	687b      	ldr	r3, [r7, #4]
 800532a:	685b      	ldr	r3, [r3, #4]
 800532c:	f003 037f 	and.w	r3, r3, #127	@ 0x7f
 8005330:	60fb      	str	r3, [r7, #12]

  /* DMA Channels are connected to DMAMUX1 request generator blocks*/
  hdma->DMAmuxRequestGen = (DMAMUX_RequestGen_TypeDef *)((uint32_t)(((uint32_t)DMAMUX1_RequestGenerator0) + ((request - 1U) * 4U)));
 8005332:	68fa      	ldr	r2, [r7, #12]
 8005334:	4b0b      	ldr	r3, [pc, #44]	@ (8005364 <DMA_CalcDMAMUXRequestGenBaseAndMask+0x44>)
 8005336:	4413      	add	r3, r2
 8005338:	009b      	lsls	r3, r3, #2
 800533a:	461a      	mov	r2, r3
 800533c:	687b      	ldr	r3, [r7, #4]
 800533e:	655a      	str	r2, [r3, #84]	@ 0x54

  hdma->DMAmuxRequestGenStatus = DMAMUX1_RequestGenStatus;
 8005340:	687b      	ldr	r3, [r7, #4]
 8005342:	4a09      	ldr	r2, [pc, #36]	@ (8005368 <DMA_CalcDMAMUXRequestGenBaseAndMask+0x48>)
 8005344:	659a      	str	r2, [r3, #88]	@ 0x58

  hdma->DMAmuxRequestGenStatusMask = 1UL << ((request - 1U) & 0x1FU);
 8005346:	68fb      	ldr	r3, [r7, #12]
 8005348:	3b01      	subs	r3, #1
 800534a:	f003 031f 	and.w	r3, r3, #31
 800534e:	2201      	movs	r2, #1
 8005350:	409a      	lsls	r2, r3
 8005352:	687b      	ldr	r3, [r7, #4]
 8005354:	65da      	str	r2, [r3, #92]	@ 0x5c
}
 8005356:	bf00      	nop
 8005358:	3714      	adds	r7, #20
 800535a:	46bd      	mov	sp, r7
 800535c:	f85d 7b04 	ldr.w	r7, [sp], #4
 8005360:	4770      	bx	lr
 8005362:	bf00      	nop
 8005364:	1000823f 	.word	0x1000823f
 8005368:	40020940 	.word	0x40020940

0800536c <HAL_GPIO_Init>:
  * @param  GPIO_Init pointer to a GPIO_InitTypeDef structure that contains
  *         the configuration information for the specified GPIO peripheral.
  * @retval None
  */
void HAL_GPIO_Init(GPIO_TypeDef *GPIOx, GPIO_InitTypeDef const *GPIO_Init)
{
 800536c:	b480      	push	{r7}
 800536e:	b087      	sub	sp, #28
 8005370:	af00      	add	r7, sp, #0
 8005372:	6078      	str	r0, [r7, #4]
 8005374:	6039      	str	r1, [r7, #0]
  uint32_t position = 0x00U;
 8005376:	2300      	movs	r3, #0
 8005378:	617b      	str	r3, [r7, #20]
  assert_param(IS_GPIO_ALL_INSTANCE(GPIOx));
  assert_param(IS_GPIO_PIN(GPIO_Init->Pin));
  assert_param(IS_GPIO_MODE(GPIO_Init->Mode));

  /* Configure the port pins */
  while (((GPIO_Init->Pin) >> position) != 0U)
 800537a:	e164      	b.n	8005646 <HAL_GPIO_Init+0x2da>
  {
    /* Get current io position */
    iocurrent = (GPIO_Init->Pin) & (1UL << position);
 800537c:	683b      	ldr	r3, [r7, #0]
 800537e:	681a      	ldr	r2, [r3, #0]
 8005380:	2101      	movs	r1, #1
 8005382:	697b      	ldr	r3, [r7, #20]
 8005384:	fa01 f303 	lsl.w	r3, r1, r3
 8005388:	4013      	ands	r3, r2
 800538a:	60fb      	str	r3, [r7, #12]

    if (iocurrent != 0x00u)
 800538c:	68fb      	ldr	r3, [r7, #12]
 800538e:	2b00      	cmp	r3, #0
 8005390:	f000 8156 	beq.w	8005640 <HAL_GPIO_Init+0x2d4>
    {
      /*--------------------- GPIO Mode Configuration ------------------------*/
      /* In case of Output or Alternate function mode selection */
      if(((GPIO_Init->Mode & GPIO_MODE) == MODE_OUTPUT) ||
 8005394:	683b      	ldr	r3, [r7, #0]
 8005396:	685b      	ldr	r3, [r3, #4]
 8005398:	f003 0303 	and.w	r3, r3, #3
 800539c:	2b01      	cmp	r3, #1
 800539e:	d005      	beq.n	80053ac <HAL_GPIO_Init+0x40>
         ((GPIO_Init->Mode & GPIO_MODE) == MODE_AF))
 80053a0:	683b      	ldr	r3, [r7, #0]
 80053a2:	685b      	ldr	r3, [r3, #4]
 80053a4:	f003 0303 	and.w	r3, r3, #3
      if(((GPIO_Init->Mode & GPIO_MODE) == MODE_OUTPUT) ||
 80053a8:	2b02      	cmp	r3, #2
 80053aa:	d130      	bne.n	800540e <HAL_GPIO_Init+0xa2>
      {
        /* Check the Speed parameter */
        assert_param(IS_GPIO_SPEED(GPIO_Init->Speed));
        /* Configure the IO Speed */
        temp = GPIOx->OSPEEDR;
 80053ac:	687b      	ldr	r3, [r7, #4]
 80053ae:	689b      	ldr	r3, [r3, #8]
 80053b0:	613b      	str	r3, [r7, #16]
        temp &= ~(GPIO_OSPEEDR_OSPEED0 << (position * 2U));
 80053b2:	697b      	ldr	r3, [r7, #20]
 80053b4:	005b      	lsls	r3, r3, #1
 80053b6:	2203      	movs	r2, #3
 80053b8:	fa02 f303 	lsl.w	r3, r2, r3
 80053bc:	43db      	mvns	r3, r3
 80053be:	693a      	ldr	r2, [r7, #16]
 80053c0:	4013      	ands	r3, r2
 80053c2:	613b      	str	r3, [r7, #16]
        temp |= (GPIO_Init->Speed << (position * 2U));
 80053c4:	683b      	ldr	r3, [r7, #0]
 80053c6:	68da      	ldr	r2, [r3, #12]
 80053c8:	697b      	ldr	r3, [r7, #20]
 80053ca:	005b      	lsls	r3, r3, #1
 80053cc:	fa02 f303 	lsl.w	r3, r2, r3
 80053d0:	693a      	ldr	r2, [r7, #16]
 80053d2:	4313      	orrs	r3, r2
 80053d4:	613b      	str	r3, [r7, #16]
        GPIOx->OSPEEDR = temp;
 80053d6:	687b      	ldr	r3, [r7, #4]
 80053d8:	693a      	ldr	r2, [r7, #16]
 80053da:	609a      	str	r2, [r3, #8]

        /* Configure the IO Output Type */
        temp = GPIOx->OTYPER;
 80053dc:	687b      	ldr	r3, [r7, #4]
 80053de:	685b      	ldr	r3, [r3, #4]
 80053e0:	613b      	str	r3, [r7, #16]
        temp &= ~(GPIO_OTYPER_OT0 << position) ;
 80053e2:	2201      	movs	r2, #1
 80053e4:	697b      	ldr	r3, [r7, #20]
 80053e6:	fa02 f303 	lsl.w	r3, r2, r3
 80053ea:	43db      	mvns	r3, r3
 80053ec:	693a      	ldr	r2, [r7, #16]
 80053ee:	4013      	ands	r3, r2
 80053f0:	613b      	str	r3, [r7, #16]
        temp |= (((GPIO_Init->Mode & OUTPUT_TYPE) >> OUTPUT_TYPE_Pos) << position);
 80053f2:	683b      	ldr	r3, [r7, #0]
 80053f4:	685b      	ldr	r3, [r3, #4]
 80053f6:	091b      	lsrs	r3, r3, #4
 80053f8:	f003 0201 	and.w	r2, r3, #1
 80053fc:	697b      	ldr	r3, [r7, #20]
 80053fe:	fa02 f303 	lsl.w	r3, r2, r3
 8005402:	693a      	ldr	r2, [r7, #16]
 8005404:	4313      	orrs	r3, r2
 8005406:	613b      	str	r3, [r7, #16]
        GPIOx->OTYPER = temp;
 8005408:	687b      	ldr	r3, [r7, #4]
 800540a:	693a      	ldr	r2, [r7, #16]
 800540c:	605a      	str	r2, [r3, #4]
      }

      if (((GPIO_Init->Mode & GPIO_MODE) != MODE_ANALOG) ||
 800540e:	683b      	ldr	r3, [r7, #0]
 8005410:	685b      	ldr	r3, [r3, #4]
 8005412:	f003 0303 	and.w	r3, r3, #3
 8005416:	2b03      	cmp	r3, #3
 8005418:	d109      	bne.n	800542e <HAL_GPIO_Init+0xc2>
          (((GPIO_Init->Mode & GPIO_MODE) == MODE_ANALOG) && (GPIO_Init->Pull != GPIO_PULLUP)))
 800541a:	683b      	ldr	r3, [r7, #0]
 800541c:	685b      	ldr	r3, [r3, #4]
 800541e:	f003 0303 	and.w	r3, r3, #3
      if (((GPIO_Init->Mode & GPIO_MODE) != MODE_ANALOG) ||
 8005422:	2b03      	cmp	r3, #3
 8005424:	d11b      	bne.n	800545e <HAL_GPIO_Init+0xf2>
          (((GPIO_Init->Mode & GPIO_MODE) == MODE_ANALOG) && (GPIO_Init->Pull != GPIO_PULLUP)))
 8005426:	683b      	ldr	r3, [r7, #0]
 8005428:	689b      	ldr	r3, [r3, #8]
 800542a:	2b01      	cmp	r3, #1
 800542c:	d017      	beq.n	800545e <HAL_GPIO_Init+0xf2>
      {
        /* Check the Pull parameter */
        assert_param(IS_GPIO_PULL(GPIO_Init->Pull));

        /* Activate the Pull-up or Pull down resistor for the current IO */
        temp = GPIOx->PUPDR;
 800542e:	687b      	ldr	r3, [r7, #4]
 8005430:	68db      	ldr	r3, [r3, #12]
 8005432:	613b      	str	r3, [r7, #16]
        temp &= ~(GPIO_PUPDR_PUPD0 << (position * 2U));
 8005434:	697b      	ldr	r3, [r7, #20]
 8005436:	005b      	lsls	r3, r3, #1
 8005438:	2203      	movs	r2, #3
 800543a:	fa02 f303 	lsl.w	r3, r2, r3
 800543e:	43db      	mvns	r3, r3
 8005440:	693a      	ldr	r2, [r7, #16]
 8005442:	4013      	ands	r3, r2
 8005444:	613b      	str	r3, [r7, #16]
        temp |= ((GPIO_Init->Pull) << (position * 2U));
 8005446:	683b      	ldr	r3, [r7, #0]
 8005448:	689a      	ldr	r2, [r3, #8]
 800544a:	697b      	ldr	r3, [r7, #20]
 800544c:	005b      	lsls	r3, r3, #1
 800544e:	fa02 f303 	lsl.w	r3, r2, r3
 8005452:	693a      	ldr	r2, [r7, #16]
 8005454:	4313      	orrs	r3, r2
 8005456:	613b      	str	r3, [r7, #16]
        GPIOx->PUPDR = temp;
 8005458:	687b      	ldr	r3, [r7, #4]
 800545a:	693a      	ldr	r2, [r7, #16]
 800545c:	60da      	str	r2, [r3, #12]
      }

      /* In case of Alternate function mode selection */
      if ((GPIO_Init->Mode & GPIO_MODE) == MODE_AF)
 800545e:	683b      	ldr	r3, [r7, #0]
 8005460:	685b      	ldr	r3, [r3, #4]
 8005462:	f003 0303 	and.w	r3, r3, #3
 8005466:	2b02      	cmp	r3, #2
 8005468:	d123      	bne.n	80054b2 <HAL_GPIO_Init+0x146>
        /* Check the Alternate function parameters */
        assert_param(IS_GPIO_AF_INSTANCE(GPIOx));
        assert_param(IS_GPIO_AF(GPIO_Init->Alternate));

        /* Configure Alternate function mapped with the current IO */
        temp = GPIOx->AFR[position >> 3U];
 800546a:	697b      	ldr	r3, [r7, #20]
 800546c:	08da      	lsrs	r2, r3, #3
 800546e:	687b      	ldr	r3, [r7, #4]
 8005470:	3208      	adds	r2, #8
 8005472:	f853 3022 	ldr.w	r3, [r3, r2, lsl #2]
 8005476:	613b      	str	r3, [r7, #16]
        temp &= ~(0xFU << ((position & 0x07U) * 4U));
 8005478:	697b      	ldr	r3, [r7, #20]
 800547a:	f003 0307 	and.w	r3, r3, #7
 800547e:	009b      	lsls	r3, r3, #2
 8005480:	220f      	movs	r2, #15
 8005482:	fa02 f303 	lsl.w	r3, r2, r3
 8005486:	43db      	mvns	r3, r3
 8005488:	693a      	ldr	r2, [r7, #16]
 800548a:	4013      	ands	r3, r2
 800548c:	613b      	str	r3, [r7, #16]
        temp |= ((GPIO_Init->Alternate) << ((position & 0x07U) * 4U));
 800548e:	683b      	ldr	r3, [r7, #0]
 8005490:	691a      	ldr	r2, [r3, #16]
 8005492:	697b      	ldr	r3, [r7, #20]
 8005494:	f003 0307 	and.w	r3, r3, #7
 8005498:	009b      	lsls	r3, r3, #2
 800549a:	fa02 f303 	lsl.w	r3, r2, r3
 800549e:	693a      	ldr	r2, [r7, #16]
 80054a0:	4313      	orrs	r3, r2
 80054a2:	613b      	str	r3, [r7, #16]
        GPIOx->AFR[position >> 3U] = temp;
 80054a4:	697b      	ldr	r3, [r7, #20]
 80054a6:	08da      	lsrs	r2, r3, #3
 80054a8:	687b      	ldr	r3, [r7, #4]
 80054aa:	3208      	adds	r2, #8
 80054ac:	6939      	ldr	r1, [r7, #16]
 80054ae:	f843 1022 	str.w	r1, [r3, r2, lsl #2]
      }

      /* Configure IO Direction mode (Input, Output, Alternate or Analog) */
      temp = GPIOx->MODER;
 80054b2:	687b      	ldr	r3, [r7, #4]
 80054b4:	681b      	ldr	r3, [r3, #0]
 80054b6:	613b      	str	r3, [r7, #16]
      temp &= ~(GPIO_MODER_MODE0 << (position * 2U));
 80054b8:	697b      	ldr	r3, [r7, #20]
 80054ba:	005b      	lsls	r3, r3, #1
 80054bc:	2203      	movs	r2, #3
 80054be:	fa02 f303 	lsl.w	r3, r2, r3
 80054c2:	43db      	mvns	r3, r3
 80054c4:	693a      	ldr	r2, [r7, #16]
 80054c6:	4013      	ands	r3, r2
 80054c8:	613b      	str	r3, [r7, #16]
      temp |= ((GPIO_Init->Mode & GPIO_MODE) << (position * 2U));
 80054ca:	683b      	ldr	r3, [r7, #0]
 80054cc:	685b      	ldr	r3, [r3, #4]
 80054ce:	f003 0203 	and.w	r2, r3, #3
 80054d2:	697b      	ldr	r3, [r7, #20]
 80054d4:	005b      	lsls	r3, r3, #1
 80054d6:	fa02 f303 	lsl.w	r3, r2, r3
 80054da:	693a      	ldr	r2, [r7, #16]
 80054dc:	4313      	orrs	r3, r2
 80054de:	613b      	str	r3, [r7, #16]
      GPIOx->MODER = temp;
 80054e0:	687b      	ldr	r3, [r7, #4]
 80054e2:	693a      	ldr	r2, [r7, #16]
 80054e4:	601a      	str	r2, [r3, #0]

      /*--------------------- EXTI Mode Configuration ------------------------*/
      /* Configure the External Interrupt or event for the current IO */
      if ((GPIO_Init->Mode & EXTI_MODE) != 0x00u)
 80054e6:	683b      	ldr	r3, [r7, #0]
 80054e8:	685b      	ldr	r3, [r3, #4]
 80054ea:	f403 3340 	and.w	r3, r3, #196608	@ 0x30000
 80054ee:	2b00      	cmp	r3, #0
 80054f0:	f000 80a6 	beq.w	8005640 <HAL_GPIO_Init+0x2d4>
      {
        /* Enable SYSCFG Clock */
        __HAL_RCC_SYSCFG_CLK_ENABLE();
 80054f4:	4b5b      	ldr	r3, [pc, #364]	@ (8005664 <HAL_GPIO_Init+0x2f8>)
 80054f6:	6e1b      	ldr	r3, [r3, #96]	@ 0x60
 80054f8:	4a5a      	ldr	r2, [pc, #360]	@ (8005664 <HAL_GPIO_Init+0x2f8>)
 80054fa:	f043 0301 	orr.w	r3, r3, #1
 80054fe:	6613      	str	r3, [r2, #96]	@ 0x60
 8005500:	4b58      	ldr	r3, [pc, #352]	@ (8005664 <HAL_GPIO_Init+0x2f8>)
 8005502:	6e1b      	ldr	r3, [r3, #96]	@ 0x60
 8005504:	f003 0301 	and.w	r3, r3, #1
 8005508:	60bb      	str	r3, [r7, #8]
 800550a:	68bb      	ldr	r3, [r7, #8]

        temp = SYSCFG->EXTICR[position >> 2U];
 800550c:	4a56      	ldr	r2, [pc, #344]	@ (8005668 <HAL_GPIO_Init+0x2fc>)
 800550e:	697b      	ldr	r3, [r7, #20]
 8005510:	089b      	lsrs	r3, r3, #2
 8005512:	3302      	adds	r3, #2
 8005514:	f852 3023 	ldr.w	r3, [r2, r3, lsl #2]
 8005518:	613b      	str	r3, [r7, #16]
        temp &= ~(0x0FUL << (4U * (position & 0x03U)));
 800551a:	697b      	ldr	r3, [r7, #20]
 800551c:	f003 0303 	and.w	r3, r3, #3
 8005520:	009b      	lsls	r3, r3, #2
 8005522:	220f      	movs	r2, #15
 8005524:	fa02 f303 	lsl.w	r3, r2, r3
 8005528:	43db      	mvns	r3, r3
 800552a:	693a      	ldr	r2, [r7, #16]
 800552c:	4013      	ands	r3, r2
 800552e:	613b      	str	r3, [r7, #16]
        temp |= (GPIO_GET_INDEX(GPIOx) << (4U * (position & 0x03U)));
 8005530:	687b      	ldr	r3, [r7, #4]
 8005532:	f1b3 4f90 	cmp.w	r3, #1207959552	@ 0x48000000
 8005536:	d01f      	beq.n	8005578 <HAL_GPIO_Init+0x20c>
 8005538:	687b      	ldr	r3, [r7, #4]
 800553a:	4a4c      	ldr	r2, [pc, #304]	@ (800566c <HAL_GPIO_Init+0x300>)
 800553c:	4293      	cmp	r3, r2
 800553e:	d019      	beq.n	8005574 <HAL_GPIO_Init+0x208>
 8005540:	687b      	ldr	r3, [r7, #4]
 8005542:	4a4b      	ldr	r2, [pc, #300]	@ (8005670 <HAL_GPIO_Init+0x304>)
 8005544:	4293      	cmp	r3, r2
 8005546:	d013      	beq.n	8005570 <HAL_GPIO_Init+0x204>
 8005548:	687b      	ldr	r3, [r7, #4]
 800554a:	4a4a      	ldr	r2, [pc, #296]	@ (8005674 <HAL_GPIO_Init+0x308>)
 800554c:	4293      	cmp	r3, r2
 800554e:	d00d      	beq.n	800556c <HAL_GPIO_Init+0x200>
 8005550:	687b      	ldr	r3, [r7, #4]
 8005552:	4a49      	ldr	r2, [pc, #292]	@ (8005678 <HAL_GPIO_Init+0x30c>)
 8005554:	4293      	cmp	r3, r2
 8005556:	d007      	beq.n	8005568 <HAL_GPIO_Init+0x1fc>
 8005558:	687b      	ldr	r3, [r7, #4]
 800555a:	4a48      	ldr	r2, [pc, #288]	@ (800567c <HAL_GPIO_Init+0x310>)
 800555c:	4293      	cmp	r3, r2
 800555e:	d101      	bne.n	8005564 <HAL_GPIO_Init+0x1f8>
 8005560:	2305      	movs	r3, #5
 8005562:	e00a      	b.n	800557a <HAL_GPIO_Init+0x20e>
 8005564:	2306      	movs	r3, #6
 8005566:	e008      	b.n	800557a <HAL_GPIO_Init+0x20e>
 8005568:	2304      	movs	r3, #4
 800556a:	e006      	b.n	800557a <HAL_GPIO_Init+0x20e>
 800556c:	2303      	movs	r3, #3
 800556e:	e004      	b.n	800557a <HAL_GPIO_Init+0x20e>
 8005570:	2302      	movs	r3, #2
 8005572:	e002      	b.n	800557a <HAL_GPIO_Init+0x20e>
 8005574:	2301      	movs	r3, #1
 8005576:	e000      	b.n	800557a <HAL_GPIO_Init+0x20e>
 8005578:	2300      	movs	r3, #0
 800557a:	697a      	ldr	r2, [r7, #20]
 800557c:	f002 0203 	and.w	r2, r2, #3
 8005580:	0092      	lsls	r2, r2, #2
 8005582:	4093      	lsls	r3, r2
 8005584:	693a      	ldr	r2, [r7, #16]
 8005586:	4313      	orrs	r3, r2
 8005588:	613b      	str	r3, [r7, #16]
        SYSCFG->EXTICR[position >> 2U] = temp;
 800558a:	4937      	ldr	r1, [pc, #220]	@ (8005668 <HAL_GPIO_Init+0x2fc>)
 800558c:	697b      	ldr	r3, [r7, #20]
 800558e:	089b      	lsrs	r3, r3, #2
 8005590:	3302      	adds	r3, #2
 8005592:	693a      	ldr	r2, [r7, #16]
 8005594:	f841 2023 	str.w	r2, [r1, r3, lsl #2]

        /* Clear Rising Falling edge configuration */
        temp = EXTI->RTSR1;
 8005598:	4b39      	ldr	r3, [pc, #228]	@ (8005680 <HAL_GPIO_Init+0x314>)
 800559a:	689b      	ldr	r3, [r3, #8]
 800559c:	613b      	str	r3, [r7, #16]
        temp &= ~(iocurrent);
 800559e:	68fb      	ldr	r3, [r7, #12]
 80055a0:	43db      	mvns	r3, r3
 80055a2:	693a      	ldr	r2, [r7, #16]
 80055a4:	4013      	ands	r3, r2
 80055a6:	613b      	str	r3, [r7, #16]
        if ((GPIO_Init->Mode & TRIGGER_RISING) != 0x00U)
 80055a8:	683b      	ldr	r3, [r7, #0]
 80055aa:	685b      	ldr	r3, [r3, #4]
 80055ac:	f403 1380 	and.w	r3, r3, #1048576	@ 0x100000
 80055b0:	2b00      	cmp	r3, #0
 80055b2:	d003      	beq.n	80055bc <HAL_GPIO_Init+0x250>
        {
          temp |= iocurrent;
 80055b4:	693a      	ldr	r2, [r7, #16]
 80055b6:	68fb      	ldr	r3, [r7, #12]
 80055b8:	4313      	orrs	r3, r2
 80055ba:	613b      	str	r3, [r7, #16]
        }
        EXTI->RTSR1 = temp;
 80055bc:	4a30      	ldr	r2, [pc, #192]	@ (8005680 <HAL_GPIO_Init+0x314>)
 80055be:	693b      	ldr	r3, [r7, #16]
 80055c0:	6093      	str	r3, [r2, #8]

        temp = EXTI->FTSR1;
 80055c2:	4b2f      	ldr	r3, [pc, #188]	@ (8005680 <HAL_GPIO_Init+0x314>)
 80055c4:	68db      	ldr	r3, [r3, #12]
 80055c6:	613b      	str	r3, [r7, #16]
        temp &= ~(iocurrent);
 80055c8:	68fb      	ldr	r3, [r7, #12]
 80055ca:	43db      	mvns	r3, r3
 80055cc:	693a      	ldr	r2, [r7, #16]
 80055ce:	4013      	ands	r3, r2
 80055d0:	613b      	str	r3, [r7, #16]
        if ((GPIO_Init->Mode & TRIGGER_FALLING) != 0x00U)
 80055d2:	683b      	ldr	r3, [r7, #0]
 80055d4:	685b      	ldr	r3, [r3, #4]
 80055d6:	f403 1300 	and.w	r3, r3, #2097152	@ 0x200000
 80055da:	2b00      	cmp	r3, #0
 80055dc:	d003      	beq.n	80055e6 <HAL_GPIO_Init+0x27a>
        {
          temp |= iocurrent;
 80055de:	693a      	ldr	r2, [r7, #16]
 80055e0:	68fb      	ldr	r3, [r7, #12]
 80055e2:	4313      	orrs	r3, r2
 80055e4:	613b      	str	r3, [r7, #16]
        }
        EXTI->FTSR1 = temp;
 80055e6:	4a26      	ldr	r2, [pc, #152]	@ (8005680 <HAL_GPIO_Init+0x314>)
 80055e8:	693b      	ldr	r3, [r7, #16]
 80055ea:	60d3      	str	r3, [r2, #12]

        temp = EXTI->EMR1;
 80055ec:	4b24      	ldr	r3, [pc, #144]	@ (8005680 <HAL_GPIO_Init+0x314>)
 80055ee:	685b      	ldr	r3, [r3, #4]
 80055f0:	613b      	str	r3, [r7, #16]
        temp &= ~(iocurrent);
 80055f2:	68fb      	ldr	r3, [r7, #12]
 80055f4:	43db      	mvns	r3, r3
 80055f6:	693a      	ldr	r2, [r7, #16]
 80055f8:	4013      	ands	r3, r2
 80055fa:	613b      	str	r3, [r7, #16]
        if ((GPIO_Init->Mode & EXTI_EVT) != 0x00U)
 80055fc:	683b      	ldr	r3, [r7, #0]
 80055fe:	685b      	ldr	r3, [r3, #4]
 8005600:	f403 3300 	and.w	r3, r3, #131072	@ 0x20000
 8005604:	2b00      	cmp	r3, #0
 8005606:	d003      	beq.n	8005610 <HAL_GPIO_Init+0x2a4>
        {
          temp |= iocurrent;
 8005608:	693a      	ldr	r2, [r7, #16]
 800560a:	68fb      	ldr	r3, [r7, #12]
 800560c:	4313      	orrs	r3, r2
 800560e:	613b      	str	r3, [r7, #16]
        }
        EXTI->EMR1 = temp;
 8005610:	4a1b      	ldr	r2, [pc, #108]	@ (8005680 <HAL_GPIO_Init+0x314>)
 8005612:	693b      	ldr	r3, [r7, #16]
 8005614:	6053      	str	r3, [r2, #4]

        /* Clear EXTI line configuration */
        temp = EXTI->IMR1;
 8005616:	4b1a      	ldr	r3, [pc, #104]	@ (8005680 <HAL_GPIO_Init+0x314>)
 8005618:	681b      	ldr	r3, [r3, #0]
 800561a:	613b      	str	r3, [r7, #16]
        temp &= ~(iocurrent);
 800561c:	68fb      	ldr	r3, [r7, #12]
 800561e:	43db      	mvns	r3, r3
 8005620:	693a      	ldr	r2, [r7, #16]
 8005622:	4013      	ands	r3, r2
 8005624:	613b      	str	r3, [r7, #16]
        if ((GPIO_Init->Mode & EXTI_IT) != 0x00U)
 8005626:	683b      	ldr	r3, [r7, #0]
 8005628:	685b      	ldr	r3, [r3, #4]
 800562a:	f403 3380 	and.w	r3, r3, #65536	@ 0x10000
 800562e:	2b00      	cmp	r3, #0
 8005630:	d003      	beq.n	800563a <HAL_GPIO_Init+0x2ce>
        {
          temp |= iocurrent;
 8005632:	693a      	ldr	r2, [r7, #16]
 8005634:	68fb      	ldr	r3, [r7, #12]
 8005636:	4313      	orrs	r3, r2
 8005638:	613b      	str	r3, [r7, #16]
        }
        EXTI->IMR1 = temp;
 800563a:	4a11      	ldr	r2, [pc, #68]	@ (8005680 <HAL_GPIO_Init+0x314>)
 800563c:	693b      	ldr	r3, [r7, #16]
 800563e:	6013      	str	r3, [r2, #0]
      }
    }

    position++;
 8005640:	697b      	ldr	r3, [r7, #20]
 8005642:	3301      	adds	r3, #1
 8005644:	617b      	str	r3, [r7, #20]
  while (((GPIO_Init->Pin) >> position) != 0U)
 8005646:	683b      	ldr	r3, [r7, #0]
 8005648:	681a      	ldr	r2, [r3, #0]
 800564a:	697b      	ldr	r3, [r7, #20]
 800564c:	fa22 f303 	lsr.w	r3, r2, r3
 8005650:	2b00      	cmp	r3, #0
 8005652:	f47f ae93 	bne.w	800537c <HAL_GPIO_Init+0x10>
  }
}
 8005656:	bf00      	nop
 8005658:	bf00      	nop
 800565a:	371c      	adds	r7, #28
 800565c:	46bd      	mov	sp, r7
 800565e:	f85d 7b04 	ldr.w	r7, [sp], #4
 8005662:	4770      	bx	lr
 8005664:	40021000 	.word	0x40021000
 8005668:	40010000 	.word	0x40010000
 800566c:	48000400 	.word	0x48000400
 8005670:	48000800 	.word	0x48000800
 8005674:	48000c00 	.word	0x48000c00
 8005678:	48001000 	.word	0x48001000
 800567c:	48001400 	.word	0x48001400
 8005680:	40010400 	.word	0x40010400

08005684 <HAL_GPIO_WritePin>:
  *            @arg GPIO_PIN_RESET: to clear the port pin
  *            @arg GPIO_PIN_SET: to set the port pin
  * @retval None
  */
void HAL_GPIO_WritePin(GPIO_TypeDef *GPIOx, uint16_t GPIO_Pin, GPIO_PinState PinState)
{
 8005684:	b480      	push	{r7}
 8005686:	b083      	sub	sp, #12
 8005688:	af00      	add	r7, sp, #0
 800568a:	6078      	str	r0, [r7, #4]
 800568c:	460b      	mov	r3, r1
 800568e:	807b      	strh	r3, [r7, #2]
 8005690:	4613      	mov	r3, r2
 8005692:	707b      	strb	r3, [r7, #1]
  /* Check the parameters */
  assert_param(IS_GPIO_PIN(GPIO_Pin));
  assert_param(IS_GPIO_PIN_ACTION(PinState));

  if (PinState != GPIO_PIN_RESET)
 8005694:	787b      	ldrb	r3, [r7, #1]
 8005696:	2b00      	cmp	r3, #0
 8005698:	d003      	beq.n	80056a2 <HAL_GPIO_WritePin+0x1e>
  {
    GPIOx->BSRR = (uint32_t)GPIO_Pin;
 800569a:	887a      	ldrh	r2, [r7, #2]
 800569c:	687b      	ldr	r3, [r7, #4]
 800569e:	619a      	str	r2, [r3, #24]
  }
  else
  {
    GPIOx->BRR = (uint32_t)GPIO_Pin;
  }
}
 80056a0:	e002      	b.n	80056a8 <HAL_GPIO_WritePin+0x24>
    GPIOx->BRR = (uint32_t)GPIO_Pin;
 80056a2:	887a      	ldrh	r2, [r7, #2]
 80056a4:	687b      	ldr	r3, [r7, #4]
 80056a6:	629a      	str	r2, [r3, #40]	@ 0x28
}
 80056a8:	bf00      	nop
 80056aa:	370c      	adds	r7, #12
 80056ac:	46bd      	mov	sp, r7
 80056ae:	f85d 7b04 	ldr.w	r7, [sp], #4
 80056b2:	4770      	bx	lr

080056b4 <HAL_GPIO_TogglePin>:
  * @param  GPIO_Pin specifies the pin to be toggled.
  *         This parameter can be any combination of GPIO_PIN_x where x can be (0..15).
  * @retval None
  */
void HAL_GPIO_TogglePin(GPIO_TypeDef *GPIOx, uint16_t GPIO_Pin)
{
 80056b4:	b480      	push	{r7}
 80056b6:	b085      	sub	sp, #20
 80056b8:	af00      	add	r7, sp, #0
 80056ba:	6078      	str	r0, [r7, #4]
 80056bc:	460b      	mov	r3, r1
 80056be:	807b      	strh	r3, [r7, #2]

  /* Check the parameters */
  assert_param(IS_GPIO_PIN(GPIO_Pin));

  /* get current Output Data Register value */
  odr = GPIOx->ODR;
 80056c0:	687b      	ldr	r3, [r7, #4]
 80056c2:	695b      	ldr	r3, [r3, #20]
 80056c4:	60fb      	str	r3, [r7, #12]

  /* Set selected pins that were at low level, and reset ones that were high */
  GPIOx->BSRR = ((odr & GPIO_Pin) << GPIO_NUMBER) | (~odr & GPIO_Pin);
 80056c6:	887a      	ldrh	r2, [r7, #2]
 80056c8:	68fb      	ldr	r3, [r7, #12]
 80056ca:	4013      	ands	r3, r2
 80056cc:	041a      	lsls	r2, r3, #16
 80056ce:	68fb      	ldr	r3, [r7, #12]
 80056d0:	43d9      	mvns	r1, r3
 80056d2:	887b      	ldrh	r3, [r7, #2]
 80056d4:	400b      	ands	r3, r1
 80056d6:	431a      	orrs	r2, r3
 80056d8:	687b      	ldr	r3, [r7, #4]
 80056da:	619a      	str	r2, [r3, #24]
}
 80056dc:	bf00      	nop
 80056de:	3714      	adds	r7, #20
 80056e0:	46bd      	mov	sp, r7
 80056e2:	f85d 7b04 	ldr.w	r7, [sp], #4
 80056e6:	4770      	bx	lr

080056e8 <HAL_I2C_Init>:
  * @param  hi2c Pointer to a I2C_HandleTypeDef structure that contains
  *                the configuration information for the specified I2C.
  * @retval HAL status
  */
HAL_StatusTypeDef HAL_I2C_Init(I2C_HandleTypeDef *hi2c)
{
 80056e8:	b580      	push	{r7, lr}
 80056ea:	b082      	sub	sp, #8
 80056ec:	af00      	add	r7, sp, #0
 80056ee:	6078      	str	r0, [r7, #4]
  /* Check the I2C handle allocation */
  if (hi2c == NULL)
 80056f0:	687b      	ldr	r3, [r7, #4]
 80056f2:	2b00      	cmp	r3, #0
 80056f4:	d101      	bne.n	80056fa <HAL_I2C_Init+0x12>
  {
    return HAL_ERROR;
 80056f6:	2301      	movs	r3, #1
 80056f8:	e08d      	b.n	8005816 <HAL_I2C_Init+0x12e>
  assert_param(IS_I2C_OWN_ADDRESS2(hi2c->Init.OwnAddress2));
  assert_param(IS_I2C_OWN_ADDRESS2_MASK(hi2c->Init.OwnAddress2Masks));
  assert_param(IS_I2C_GENERAL_CALL(hi2c->Init.GeneralCallMode));
  assert_param(IS_I2C_NO_STRETCH(hi2c->Init.NoStretchMode));

  if (hi2c->State == HAL_I2C_STATE_RESET)
 80056fa:	687b      	ldr	r3, [r7, #4]
 80056fc:	f893 3041 	ldrb.w	r3, [r3, #65]	@ 0x41
 8005700:	b2db      	uxtb	r3, r3
 8005702:	2b00      	cmp	r3, #0
 8005704:	d106      	bne.n	8005714 <HAL_I2C_Init+0x2c>
  {
    /* Allocate lock resource and initialize it */
    hi2c->Lock = HAL_UNLOCKED;
 8005706:	687b      	ldr	r3, [r7, #4]
 8005708:	2200      	movs	r2, #0
 800570a:	f883 2040 	strb.w	r2, [r3, #64]	@ 0x40

    /* Init the low level hardware : GPIO, CLOCK, CORTEX...etc */
    hi2c->MspInitCallback(hi2c);
#else
    /* Init the low level hardware : GPIO, CLOCK, CORTEX...etc */
    HAL_I2C_MspInit(hi2c);
 800570e:	6878      	ldr	r0, [r7, #4]
 8005710:	f7fd fcac 	bl	800306c <HAL_I2C_MspInit>
#endif /* USE_HAL_I2C_REGISTER_CALLBACKS */
  }

  hi2c->State = HAL_I2C_STATE_BUSY;
 8005714:	687b      	ldr	r3, [r7, #4]
 8005716:	2224      	movs	r2, #36	@ 0x24
 8005718:	f883 2041 	strb.w	r2, [r3, #65]	@ 0x41

  /* Disable the selected I2C peripheral */
  __HAL_I2C_DISABLE(hi2c);
 800571c:	687b      	ldr	r3, [r7, #4]
 800571e:	681b      	ldr	r3, [r3, #0]
 8005720:	681a      	ldr	r2, [r3, #0]
 8005722:	687b      	ldr	r3, [r7, #4]
 8005724:	681b      	ldr	r3, [r3, #0]
 8005726:	f022 0201 	bic.w	r2, r2, #1
 800572a:	601a      	str	r2, [r3, #0]

  /*---------------------------- I2Cx TIMINGR Configuration ------------------*/
  /* Configure I2Cx: Frequency range */
  hi2c->Instance->TIMINGR = hi2c->Init.Timing & TIMING_CLEAR_MASK;
 800572c:	687b      	ldr	r3, [r7, #4]
 800572e:	685a      	ldr	r2, [r3, #4]
 8005730:	687b      	ldr	r3, [r7, #4]
 8005732:	681b      	ldr	r3, [r3, #0]
 8005734:	f022 6270 	bic.w	r2, r2, #251658240	@ 0xf000000
 8005738:	611a      	str	r2, [r3, #16]

  /*---------------------------- I2Cx OAR1 Configuration ---------------------*/
  /* Disable Own Address1 before set the Own Address1 configuration */
  hi2c->Instance->OAR1 &= ~I2C_OAR1_OA1EN;
 800573a:	687b      	ldr	r3, [r7, #4]
 800573c:	681b      	ldr	r3, [r3, #0]
 800573e:	689a      	ldr	r2, [r3, #8]
 8005740:	687b      	ldr	r3, [r7, #4]
 8005742:	681b      	ldr	r3, [r3, #0]
 8005744:	f422 4200 	bic.w	r2, r2, #32768	@ 0x8000
 8005748:	609a      	str	r2, [r3, #8]

  /* Configure I2Cx: Own Address1 and ack own address1 mode */
  if (hi2c->Init.AddressingMode == I2C_ADDRESSINGMODE_7BIT)
 800574a:	687b      	ldr	r3, [r7, #4]
 800574c:	68db      	ldr	r3, [r3, #12]
 800574e:	2b01      	cmp	r3, #1
 8005750:	d107      	bne.n	8005762 <HAL_I2C_Init+0x7a>
  {
    hi2c->Instance->OAR1 = (I2C_OAR1_OA1EN | hi2c->Init.OwnAddress1);
 8005752:	687b      	ldr	r3, [r7, #4]
 8005754:	689a      	ldr	r2, [r3, #8]
 8005756:	687b      	ldr	r3, [r7, #4]
 8005758:	681b      	ldr	r3, [r3, #0]
 800575a:	f442 4200 	orr.w	r2, r2, #32768	@ 0x8000
 800575e:	609a      	str	r2, [r3, #8]
 8005760:	e006      	b.n	8005770 <HAL_I2C_Init+0x88>
  }
  else /* I2C_ADDRESSINGMODE_10BIT */
  {
    hi2c->Instance->OAR1 = (I2C_OAR1_OA1EN | I2C_OAR1_OA1MODE | hi2c->Init.OwnAddress1);
 8005762:	687b      	ldr	r3, [r7, #4]
 8005764:	689a      	ldr	r2, [r3, #8]
 8005766:	687b      	ldr	r3, [r7, #4]
 8005768:	681b      	ldr	r3, [r3, #0]
 800576a:	f442 4204 	orr.w	r2, r2, #33792	@ 0x8400
 800576e:	609a      	str	r2, [r3, #8]
  }

  /*---------------------------- I2Cx CR2 Configuration ----------------------*/
  /* Configure I2Cx: Addressing Master mode */
  if (hi2c->Init.AddressingMode == I2C_ADDRESSINGMODE_10BIT)
 8005770:	687b      	ldr	r3, [r7, #4]
 8005772:	68db      	ldr	r3, [r3, #12]
 8005774:	2b02      	cmp	r3, #2
 8005776:	d108      	bne.n	800578a <HAL_I2C_Init+0xa2>
  {
    SET_BIT(hi2c->Instance->CR2, I2C_CR2_ADD10);
 8005778:	687b      	ldr	r3, [r7, #4]
 800577a:	681b      	ldr	r3, [r3, #0]
 800577c:	685a      	ldr	r2, [r3, #4]
 800577e:	687b      	ldr	r3, [r7, #4]
 8005780:	681b      	ldr	r3, [r3, #0]
 8005782:	f442 6200 	orr.w	r2, r2, #2048	@ 0x800
 8005786:	605a      	str	r2, [r3, #4]
 8005788:	e007      	b.n	800579a <HAL_I2C_Init+0xb2>
  }
  else
  {
    /* Clear the I2C ADD10 bit */
    CLEAR_BIT(hi2c->Instance->CR2, I2C_CR2_ADD10);
 800578a:	687b      	ldr	r3, [r7, #4]
 800578c:	681b      	ldr	r3, [r3, #0]
 800578e:	685a      	ldr	r2, [r3, #4]
 8005790:	687b      	ldr	r3, [r7, #4]
 8005792:	681b      	ldr	r3, [r3, #0]
 8005794:	f422 6200 	bic.w	r2, r2, #2048	@ 0x800
 8005798:	605a      	str	r2, [r3, #4]
  }
  /* Enable the AUTOEND by default, and enable NACK (should be disable only during Slave process */
  hi2c->Instance->CR2 |= (I2C_CR2_AUTOEND | I2C_CR2_NACK);
 800579a:	687b      	ldr	r3, [r7, #4]
 800579c:	681b      	ldr	r3, [r3, #0]
 800579e:	685b      	ldr	r3, [r3, #4]
 80057a0:	687a      	ldr	r2, [r7, #4]
 80057a2:	6812      	ldr	r2, [r2, #0]
 80057a4:	f043 7300 	orr.w	r3, r3, #33554432	@ 0x2000000
 80057a8:	f443 4300 	orr.w	r3, r3, #32768	@ 0x8000
 80057ac:	6053      	str	r3, [r2, #4]

  /*---------------------------- I2Cx OAR2 Configuration ---------------------*/
  /* Disable Own Address2 before set the Own Address2 configuration */
  hi2c->Instance->OAR2 &= ~I2C_DUALADDRESS_ENABLE;
 80057ae:	687b      	ldr	r3, [r7, #4]
 80057b0:	681b      	ldr	r3, [r3, #0]
 80057b2:	68da      	ldr	r2, [r3, #12]
 80057b4:	687b      	ldr	r3, [r7, #4]
 80057b6:	681b      	ldr	r3, [r3, #0]
 80057b8:	f422 4200 	bic.w	r2, r2, #32768	@ 0x8000
 80057bc:	60da      	str	r2, [r3, #12]

  /* Configure I2Cx: Dual mode and Own Address2 */
  hi2c->Instance->OAR2 = (hi2c->Init.DualAddressMode | hi2c->Init.OwnAddress2 | \
 80057be:	687b      	ldr	r3, [r7, #4]
 80057c0:	691a      	ldr	r2, [r3, #16]
 80057c2:	687b      	ldr	r3, [r7, #4]
 80057c4:	695b      	ldr	r3, [r3, #20]
 80057c6:	ea42 0103 	orr.w	r1, r2, r3
                          (hi2c->Init.OwnAddress2Masks << 8));
 80057ca:	687b      	ldr	r3, [r7, #4]
 80057cc:	699b      	ldr	r3, [r3, #24]
 80057ce:	021a      	lsls	r2, r3, #8
  hi2c->Instance->OAR2 = (hi2c->Init.DualAddressMode | hi2c->Init.OwnAddress2 | \
 80057d0:	687b      	ldr	r3, [r7, #4]
 80057d2:	681b      	ldr	r3, [r3, #0]
 80057d4:	430a      	orrs	r2, r1
 80057d6:	60da      	str	r2, [r3, #12]

  /*---------------------------- I2Cx CR1 Configuration ----------------------*/
  /* Configure I2Cx: Generalcall and NoStretch mode */
  hi2c->Instance->CR1 = (hi2c->Init.GeneralCallMode | hi2c->Init.NoStretchMode);
 80057d8:	687b      	ldr	r3, [r7, #4]
 80057da:	69d9      	ldr	r1, [r3, #28]
 80057dc:	687b      	ldr	r3, [r7, #4]
 80057de:	6a1a      	ldr	r2, [r3, #32]
 80057e0:	687b      	ldr	r3, [r7, #4]
 80057e2:	681b      	ldr	r3, [r3, #0]
 80057e4:	430a      	orrs	r2, r1
 80057e6:	601a      	str	r2, [r3, #0]

  /* Enable the selected I2C peripheral */
  __HAL_I2C_ENABLE(hi2c);
 80057e8:	687b      	ldr	r3, [r7, #4]
 80057ea:	681b      	ldr	r3, [r3, #0]
 80057ec:	681a      	ldr	r2, [r3, #0]
 80057ee:	687b      	ldr	r3, [r7, #4]
 80057f0:	681b      	ldr	r3, [r3, #0]
 80057f2:	f042 0201 	orr.w	r2, r2, #1
 80057f6:	601a      	str	r2, [r3, #0]

  hi2c->ErrorCode = HAL_I2C_ERROR_NONE;
 80057f8:	687b      	ldr	r3, [r7, #4]
 80057fa:	2200      	movs	r2, #0
 80057fc:	645a      	str	r2, [r3, #68]	@ 0x44
  hi2c->State = HAL_I2C_STATE_READY;
 80057fe:	687b      	ldr	r3, [r7, #4]
 8005800:	2220      	movs	r2, #32
 8005802:	f883 2041 	strb.w	r2, [r3, #65]	@ 0x41
  hi2c->PreviousState = I2C_STATE_NONE;
 8005806:	687b      	ldr	r3, [r7, #4]
 8005808:	2200      	movs	r2, #0
 800580a:	631a      	str	r2, [r3, #48]	@ 0x30
  hi2c->Mode = HAL_I2C_MODE_NONE;
 800580c:	687b      	ldr	r3, [r7, #4]
 800580e:	2200      	movs	r2, #0
 8005810:	f883 2042 	strb.w	r2, [r3, #66]	@ 0x42

  return HAL_OK;
 8005814:	2300      	movs	r3, #0
}
 8005816:	4618      	mov	r0, r3
 8005818:	3708      	adds	r7, #8
 800581a:	46bd      	mov	sp, r7
 800581c:	bd80      	pop	{r7, pc}
	...

08005820 <HAL_I2C_Master_Transmit>:
  * @param  Timeout Timeout duration
  * @retval HAL status
  */
HAL_StatusTypeDef HAL_I2C_Master_Transmit(I2C_HandleTypeDef *hi2c, uint16_t DevAddress, uint8_t *pData,
                                          uint16_t Size, uint32_t Timeout)
{
 8005820:	b580      	push	{r7, lr}
 8005822:	b088      	sub	sp, #32
 8005824:	af02      	add	r7, sp, #8
 8005826:	60f8      	str	r0, [r7, #12]
 8005828:	607a      	str	r2, [r7, #4]
 800582a:	461a      	mov	r2, r3
 800582c:	460b      	mov	r3, r1
 800582e:	817b      	strh	r3, [r7, #10]
 8005830:	4613      	mov	r3, r2
 8005832:	813b      	strh	r3, [r7, #8]
  uint32_t tickstart;
  uint32_t xfermode;

  if (hi2c->State == HAL_I2C_STATE_READY)
 8005834:	68fb      	ldr	r3, [r7, #12]
 8005836:	f893 3041 	ldrb.w	r3, [r3, #65]	@ 0x41
 800583a:	b2db      	uxtb	r3, r3
 800583c:	2b20      	cmp	r3, #32
 800583e:	f040 80fd 	bne.w	8005a3c <HAL_I2C_Master_Transmit+0x21c>
  {
    /* Process Locked */
    __HAL_LOCK(hi2c);
 8005842:	68fb      	ldr	r3, [r7, #12]
 8005844:	f893 3040 	ldrb.w	r3, [r3, #64]	@ 0x40
 8005848:	2b01      	cmp	r3, #1
 800584a:	d101      	bne.n	8005850 <HAL_I2C_Master_Transmit+0x30>
 800584c:	2302      	movs	r3, #2
 800584e:	e0f6      	b.n	8005a3e <HAL_I2C_Master_Transmit+0x21e>
 8005850:	68fb      	ldr	r3, [r7, #12]
 8005852:	2201      	movs	r2, #1
 8005854:	f883 2040 	strb.w	r2, [r3, #64]	@ 0x40

    /* Init tickstart for timeout management*/
    tickstart = HAL_GetTick();
 8005858:	f7fd fe7a 	bl	8003550 <HAL_GetTick>
 800585c:	6138      	str	r0, [r7, #16]

    if (I2C_WaitOnFlagUntilTimeout(hi2c, I2C_FLAG_BUSY, SET, I2C_TIMEOUT_BUSY, tickstart) != HAL_OK)
 800585e:	693b      	ldr	r3, [r7, #16]
 8005860:	9300      	str	r3, [sp, #0]
 8005862:	2319      	movs	r3, #25
 8005864:	2201      	movs	r2, #1
 8005866:	f44f 4100 	mov.w	r1, #32768	@ 0x8000
 800586a:	68f8      	ldr	r0, [r7, #12]
 800586c:	f000 f914 	bl	8005a98 <I2C_WaitOnFlagUntilTimeout>
 8005870:	4603      	mov	r3, r0
 8005872:	2b00      	cmp	r3, #0
 8005874:	d001      	beq.n	800587a <HAL_I2C_Master_Transmit+0x5a>
    {
      return HAL_ERROR;
 8005876:	2301      	movs	r3, #1
 8005878:	e0e1      	b.n	8005a3e <HAL_I2C_Master_Transmit+0x21e>
    }

    hi2c->State     = HAL_I2C_STATE_BUSY_TX;
 800587a:	68fb      	ldr	r3, [r7, #12]
 800587c:	2221      	movs	r2, #33	@ 0x21
 800587e:	f883 2041 	strb.w	r2, [r3, #65]	@ 0x41
    hi2c->Mode      = HAL_I2C_MODE_MASTER;
 8005882:	68fb      	ldr	r3, [r7, #12]
 8005884:	2210      	movs	r2, #16
 8005886:	f883 2042 	strb.w	r2, [r3, #66]	@ 0x42
    hi2c->ErrorCode = HAL_I2C_ERROR_NONE;
 800588a:	68fb      	ldr	r3, [r7, #12]
 800588c:	2200      	movs	r2, #0
 800588e:	645a      	str	r2, [r3, #68]	@ 0x44

    /* Prepare transfer parameters */
    hi2c->pBuffPtr  = pData;
 8005890:	68fb      	ldr	r3, [r7, #12]
 8005892:	687a      	ldr	r2, [r7, #4]
 8005894:	625a      	str	r2, [r3, #36]	@ 0x24
    hi2c->XferCount = Size;
 8005896:	68fb      	ldr	r3, [r7, #12]
 8005898:	893a      	ldrh	r2, [r7, #8]
 800589a:	855a      	strh	r2, [r3, #42]	@ 0x2a
    hi2c->XferISR   = NULL;
 800589c:	68fb      	ldr	r3, [r7, #12]
 800589e:	2200      	movs	r2, #0
 80058a0:	635a      	str	r2, [r3, #52]	@ 0x34

    if (hi2c->XferCount > MAX_NBYTE_SIZE)
 80058a2:	68fb      	ldr	r3, [r7, #12]
 80058a4:	8d5b      	ldrh	r3, [r3, #42]	@ 0x2a
 80058a6:	b29b      	uxth	r3, r3
 80058a8:	2bff      	cmp	r3, #255	@ 0xff
 80058aa:	d906      	bls.n	80058ba <HAL_I2C_Master_Transmit+0x9a>
    {
      hi2c->XferSize = MAX_NBYTE_SIZE;
 80058ac:	68fb      	ldr	r3, [r7, #12]
 80058ae:	22ff      	movs	r2, #255	@ 0xff
 80058b0:	851a      	strh	r2, [r3, #40]	@ 0x28
      xfermode = I2C_RELOAD_MODE;
 80058b2:	f04f 7380 	mov.w	r3, #16777216	@ 0x1000000
 80058b6:	617b      	str	r3, [r7, #20]
 80058b8:	e007      	b.n	80058ca <HAL_I2C_Master_Transmit+0xaa>
    }
    else
    {
      hi2c->XferSize = hi2c->XferCount;
 80058ba:	68fb      	ldr	r3, [r7, #12]
 80058bc:	8d5b      	ldrh	r3, [r3, #42]	@ 0x2a
 80058be:	b29a      	uxth	r2, r3
 80058c0:	68fb      	ldr	r3, [r7, #12]
 80058c2:	851a      	strh	r2, [r3, #40]	@ 0x28
      xfermode = I2C_AUTOEND_MODE;
 80058c4:	f04f 7300 	mov.w	r3, #33554432	@ 0x2000000
 80058c8:	617b      	str	r3, [r7, #20]
    }

    if (hi2c->XferSize > 0U)
 80058ca:	68fb      	ldr	r3, [r7, #12]
 80058cc:	8d1b      	ldrh	r3, [r3, #40]	@ 0x28
 80058ce:	2b00      	cmp	r3, #0
 80058d0:	d024      	beq.n	800591c <HAL_I2C_Master_Transmit+0xfc>
    {
      /* Preload TX register */
      /* Write data to TXDR */
      hi2c->Instance->TXDR = *hi2c->pBuffPtr;
 80058d2:	68fb      	ldr	r3, [r7, #12]
 80058d4:	6a5b      	ldr	r3, [r3, #36]	@ 0x24
 80058d6:	781a      	ldrb	r2, [r3, #0]
 80058d8:	68fb      	ldr	r3, [r7, #12]
 80058da:	681b      	ldr	r3, [r3, #0]
 80058dc:	629a      	str	r2, [r3, #40]	@ 0x28

      /* Increment Buffer pointer */
      hi2c->pBuffPtr++;
 80058de:	68fb      	ldr	r3, [r7, #12]
 80058e0:	6a5b      	ldr	r3, [r3, #36]	@ 0x24
 80058e2:	1c5a      	adds	r2, r3, #1
 80058e4:	68fb      	ldr	r3, [r7, #12]
 80058e6:	625a      	str	r2, [r3, #36]	@ 0x24

      hi2c->XferCount--;
 80058e8:	68fb      	ldr	r3, [r7, #12]
 80058ea:	8d5b      	ldrh	r3, [r3, #42]	@ 0x2a
 80058ec:	b29b      	uxth	r3, r3
 80058ee:	3b01      	subs	r3, #1
 80058f0:	b29a      	uxth	r2, r3
 80058f2:	68fb      	ldr	r3, [r7, #12]
 80058f4:	855a      	strh	r2, [r3, #42]	@ 0x2a
      hi2c->XferSize--;
 80058f6:	68fb      	ldr	r3, [r7, #12]
 80058f8:	8d1b      	ldrh	r3, [r3, #40]	@ 0x28
 80058fa:	3b01      	subs	r3, #1
 80058fc:	b29a      	uxth	r2, r3
 80058fe:	68fb      	ldr	r3, [r7, #12]
 8005900:	851a      	strh	r2, [r3, #40]	@ 0x28

      /* Send Slave Address */
      /* Set NBYTES to write and reload if hi2c->XferCount > MAX_NBYTE_SIZE and generate RESTART */
      I2C_TransferConfig(hi2c, DevAddress, (uint8_t)(hi2c->XferSize + 1U), xfermode,
 8005902:	68fb      	ldr	r3, [r7, #12]
 8005904:	8d1b      	ldrh	r3, [r3, #40]	@ 0x28
 8005906:	b2db      	uxtb	r3, r3
 8005908:	3301      	adds	r3, #1
 800590a:	b2da      	uxtb	r2, r3
 800590c:	8979      	ldrh	r1, [r7, #10]
 800590e:	4b4e      	ldr	r3, [pc, #312]	@ (8005a48 <HAL_I2C_Master_Transmit+0x228>)
 8005910:	9300      	str	r3, [sp, #0]
 8005912:	697b      	ldr	r3, [r7, #20]
 8005914:	68f8      	ldr	r0, [r7, #12]
 8005916:	f000 fa83 	bl	8005e20 <I2C_TransferConfig>
 800591a:	e066      	b.n	80059ea <HAL_I2C_Master_Transmit+0x1ca>
    }
    else
    {
      /* Send Slave Address */
      /* Set NBYTES to write and reload if hi2c->XferCount > MAX_NBYTE_SIZE and generate RESTART */
      I2C_TransferConfig(hi2c, DevAddress, (uint8_t)hi2c->XferSize, xfermode,
 800591c:	68fb      	ldr	r3, [r7, #12]
 800591e:	8d1b      	ldrh	r3, [r3, #40]	@ 0x28
 8005920:	b2da      	uxtb	r2, r3
 8005922:	8979      	ldrh	r1, [r7, #10]
 8005924:	4b48      	ldr	r3, [pc, #288]	@ (8005a48 <HAL_I2C_Master_Transmit+0x228>)
 8005926:	9300      	str	r3, [sp, #0]
 8005928:	697b      	ldr	r3, [r7, #20]
 800592a:	68f8      	ldr	r0, [r7, #12]
 800592c:	f000 fa78 	bl	8005e20 <I2C_TransferConfig>
                         I2C_GENERATE_START_WRITE);
    }

    while (hi2c->XferCount > 0U)
 8005930:	e05b      	b.n	80059ea <HAL_I2C_Master_Transmit+0x1ca>
    {
      /* Wait until TXIS flag is set */
      if (I2C_WaitOnTXISFlagUntilTimeout(hi2c, Timeout, tickstart) != HAL_OK)
 8005932:	693a      	ldr	r2, [r7, #16]
 8005934:	6a39      	ldr	r1, [r7, #32]
 8005936:	68f8      	ldr	r0, [r7, #12]
 8005938:	f000 f907 	bl	8005b4a <I2C_WaitOnTXISFlagUntilTimeout>
 800593c:	4603      	mov	r3, r0
 800593e:	2b00      	cmp	r3, #0
 8005940:	d001      	beq.n	8005946 <HAL_I2C_Master_Transmit+0x126>
      {
        return HAL_ERROR;
 8005942:	2301      	movs	r3, #1
 8005944:	e07b      	b.n	8005a3e <HAL_I2C_Master_Transmit+0x21e>
      }
      /* Write data to TXDR */
      hi2c->Instance->TXDR = *hi2c->pBuffPtr;
 8005946:	68fb      	ldr	r3, [r7, #12]
 8005948:	6a5b      	ldr	r3, [r3, #36]	@ 0x24
 800594a:	781a      	ldrb	r2, [r3, #0]
 800594c:	68fb      	ldr	r3, [r7, #12]
 800594e:	681b      	ldr	r3, [r3, #0]
 8005950:	629a      	str	r2, [r3, #40]	@ 0x28

      /* Increment Buffer pointer */
      hi2c->pBuffPtr++;
 8005952:	68fb      	ldr	r3, [r7, #12]
 8005954:	6a5b      	ldr	r3, [r3, #36]	@ 0x24
 8005956:	1c5a      	adds	r2, r3, #1
 8005958:	68fb      	ldr	r3, [r7, #12]
 800595a:	625a      	str	r2, [r3, #36]	@ 0x24

      hi2c->XferCount--;
 800595c:	68fb      	ldr	r3, [r7, #12]
 800595e:	8d5b      	ldrh	r3, [r3, #42]	@ 0x2a
 8005960:	b29b      	uxth	r3, r3
 8005962:	3b01      	subs	r3, #1
 8005964:	b29a      	uxth	r2, r3
 8005966:	68fb      	ldr	r3, [r7, #12]
 8005968:	855a      	strh	r2, [r3, #42]	@ 0x2a
      hi2c->XferSize--;
 800596a:	68fb      	ldr	r3, [r7, #12]
 800596c:	8d1b      	ldrh	r3, [r3, #40]	@ 0x28
 800596e:	3b01      	subs	r3, #1
 8005970:	b29a      	uxth	r2, r3
 8005972:	68fb      	ldr	r3, [r7, #12]
 8005974:	851a      	strh	r2, [r3, #40]	@ 0x28

      if ((hi2c->XferCount != 0U) && (hi2c->XferSize == 0U))
 8005976:	68fb      	ldr	r3, [r7, #12]
 8005978:	8d5b      	ldrh	r3, [r3, #42]	@ 0x2a
 800597a:	b29b      	uxth	r3, r3
 800597c:	2b00      	cmp	r3, #0
 800597e:	d034      	beq.n	80059ea <HAL_I2C_Master_Transmit+0x1ca>
 8005980:	68fb      	ldr	r3, [r7, #12]
 8005982:	8d1b      	ldrh	r3, [r3, #40]	@ 0x28
 8005984:	2b00      	cmp	r3, #0
 8005986:	d130      	bne.n	80059ea <HAL_I2C_Master_Transmit+0x1ca>
      {
        /* Wait until TCR flag is set */
        if (I2C_WaitOnFlagUntilTimeout(hi2c, I2C_FLAG_TCR, RESET, Timeout, tickstart) != HAL_OK)
 8005988:	693b      	ldr	r3, [r7, #16]
 800598a:	9300      	str	r3, [sp, #0]
 800598c:	6a3b      	ldr	r3, [r7, #32]
 800598e:	2200      	movs	r2, #0
 8005990:	2180      	movs	r1, #128	@ 0x80
 8005992:	68f8      	ldr	r0, [r7, #12]
 8005994:	f000 f880 	bl	8005a98 <I2C_WaitOnFlagUntilTimeout>
 8005998:	4603      	mov	r3, r0
 800599a:	2b00      	cmp	r3, #0
 800599c:	d001      	beq.n	80059a2 <HAL_I2C_Master_Transmit+0x182>
        {
          return HAL_ERROR;
 800599e:	2301      	movs	r3, #1
 80059a0:	e04d      	b.n	8005a3e <HAL_I2C_Master_Transmit+0x21e>
        }

        if (hi2c->XferCount > MAX_NBYTE_SIZE)
 80059a2:	68fb      	ldr	r3, [r7, #12]
 80059a4:	8d5b      	ldrh	r3, [r3, #42]	@ 0x2a
 80059a6:	b29b      	uxth	r3, r3
 80059a8:	2bff      	cmp	r3, #255	@ 0xff
 80059aa:	d90e      	bls.n	80059ca <HAL_I2C_Master_Transmit+0x1aa>
        {
          hi2c->XferSize = MAX_NBYTE_SIZE;
 80059ac:	68fb      	ldr	r3, [r7, #12]
 80059ae:	22ff      	movs	r2, #255	@ 0xff
 80059b0:	851a      	strh	r2, [r3, #40]	@ 0x28
          I2C_TransferConfig(hi2c, DevAddress, (uint8_t)hi2c->XferSize, I2C_RELOAD_MODE,
 80059b2:	68fb      	ldr	r3, [r7, #12]
 80059b4:	8d1b      	ldrh	r3, [r3, #40]	@ 0x28
 80059b6:	b2da      	uxtb	r2, r3
 80059b8:	8979      	ldrh	r1, [r7, #10]
 80059ba:	2300      	movs	r3, #0
 80059bc:	9300      	str	r3, [sp, #0]
 80059be:	f04f 7380 	mov.w	r3, #16777216	@ 0x1000000
 80059c2:	68f8      	ldr	r0, [r7, #12]
 80059c4:	f000 fa2c 	bl	8005e20 <I2C_TransferConfig>
 80059c8:	e00f      	b.n	80059ea <HAL_I2C_Master_Transmit+0x1ca>
                             I2C_NO_STARTSTOP);
        }
        else
        {
          hi2c->XferSize = hi2c->XferCount;
 80059ca:	68fb      	ldr	r3, [r7, #12]
 80059cc:	8d5b      	ldrh	r3, [r3, #42]	@ 0x2a
 80059ce:	b29a      	uxth	r2, r3
 80059d0:	68fb      	ldr	r3, [r7, #12]
 80059d2:	851a      	strh	r2, [r3, #40]	@ 0x28
          I2C_TransferConfig(hi2c, DevAddress, (uint8_t)hi2c->XferSize, I2C_AUTOEND_MODE,
 80059d4:	68fb      	ldr	r3, [r7, #12]
 80059d6:	8d1b      	ldrh	r3, [r3, #40]	@ 0x28
 80059d8:	b2da      	uxtb	r2, r3
 80059da:	8979      	ldrh	r1, [r7, #10]
 80059dc:	2300      	movs	r3, #0
 80059de:	9300      	str	r3, [sp, #0]
 80059e0:	f04f 7300 	mov.w	r3, #33554432	@ 0x2000000
 80059e4:	68f8      	ldr	r0, [r7, #12]
 80059e6:	f000 fa1b 	bl	8005e20 <I2C_TransferConfig>
    while (hi2c->XferCount > 0U)
 80059ea:	68fb      	ldr	r3, [r7, #12]
 80059ec:	8d5b      	ldrh	r3, [r3, #42]	@ 0x2a
 80059ee:	b29b      	uxth	r3, r3
 80059f0:	2b00      	cmp	r3, #0
 80059f2:	d19e      	bne.n	8005932 <HAL_I2C_Master_Transmit+0x112>
      }
    }

    /* No need to Check TC flag, with AUTOEND mode the stop is automatically generated */
    /* Wait until STOPF flag is set */
    if (I2C_WaitOnSTOPFlagUntilTimeout(hi2c, Timeout, tickstart) != HAL_OK)
 80059f4:	693a      	ldr	r2, [r7, #16]
 80059f6:	6a39      	ldr	r1, [r7, #32]
 80059f8:	68f8      	ldr	r0, [r7, #12]
 80059fa:	f000 f8ed 	bl	8005bd8 <I2C_WaitOnSTOPFlagUntilTimeout>
 80059fe:	4603      	mov	r3, r0
 8005a00:	2b00      	cmp	r3, #0
 8005a02:	d001      	beq.n	8005a08 <HAL_I2C_Master_Transmit+0x1e8>
    {
      return HAL_ERROR;
 8005a04:	2301      	movs	r3, #1
 8005a06:	e01a      	b.n	8005a3e <HAL_I2C_Master_Transmit+0x21e>
    }

    /* Clear STOP Flag */
    __HAL_I2C_CLEAR_FLAG(hi2c, I2C_FLAG_STOPF);
 8005a08:	68fb      	ldr	r3, [r7, #12]
 8005a0a:	681b      	ldr	r3, [r3, #0]
 8005a0c:	2220      	movs	r2, #32
 8005a0e:	61da      	str	r2, [r3, #28]

    /* Clear Configuration Register 2 */
    I2C_RESET_CR2(hi2c);
 8005a10:	68fb      	ldr	r3, [r7, #12]
 8005a12:	681b      	ldr	r3, [r3, #0]
 8005a14:	6859      	ldr	r1, [r3, #4]
 8005a16:	68fb      	ldr	r3, [r7, #12]
 8005a18:	681a      	ldr	r2, [r3, #0]
 8005a1a:	4b0c      	ldr	r3, [pc, #48]	@ (8005a4c <HAL_I2C_Master_Transmit+0x22c>)
 8005a1c:	400b      	ands	r3, r1
 8005a1e:	6053      	str	r3, [r2, #4]

    hi2c->State = HAL_I2C_STATE_READY;
 8005a20:	68fb      	ldr	r3, [r7, #12]
 8005a22:	2220      	movs	r2, #32
 8005a24:	f883 2041 	strb.w	r2, [r3, #65]	@ 0x41
    hi2c->Mode  = HAL_I2C_MODE_NONE;
 8005a28:	68fb      	ldr	r3, [r7, #12]
 8005a2a:	2200      	movs	r2, #0
 8005a2c:	f883 2042 	strb.w	r2, [r3, #66]	@ 0x42

    /* Process Unlocked */
    __HAL_UNLOCK(hi2c);
 8005a30:	68fb      	ldr	r3, [r7, #12]
 8005a32:	2200      	movs	r2, #0
 8005a34:	f883 2040 	strb.w	r2, [r3, #64]	@ 0x40

    return HAL_OK;
 8005a38:	2300      	movs	r3, #0
 8005a3a:	e000      	b.n	8005a3e <HAL_I2C_Master_Transmit+0x21e>
  }
  else
  {
    return HAL_BUSY;
 8005a3c:	2302      	movs	r3, #2
  }
}
 8005a3e:	4618      	mov	r0, r3
 8005a40:	3718      	adds	r7, #24
 8005a42:	46bd      	mov	sp, r7
 8005a44:	bd80      	pop	{r7, pc}
 8005a46:	bf00      	nop
 8005a48:	80002000 	.word	0x80002000
 8005a4c:	fe00e800 	.word	0xfe00e800

08005a50 <I2C_Flush_TXDR>:
  * @brief  I2C Tx data register flush process.
  * @param  hi2c I2C handle.
  * @retval None
  */
static void I2C_Flush_TXDR(I2C_HandleTypeDef *hi2c)
{
 8005a50:	b480      	push	{r7}
 8005a52:	b083      	sub	sp, #12
 8005a54:	af00      	add	r7, sp, #0
 8005a56:	6078      	str	r0, [r7, #4]
  /* If a pending TXIS flag is set */
  /* Write a dummy data in TXDR to clear it */
  if (__HAL_I2C_GET_FLAG(hi2c, I2C_FLAG_TXIS) != RESET)
 8005a58:	687b      	ldr	r3, [r7, #4]
 8005a5a:	681b      	ldr	r3, [r3, #0]
 8005a5c:	699b      	ldr	r3, [r3, #24]
 8005a5e:	f003 0302 	and.w	r3, r3, #2
 8005a62:	2b02      	cmp	r3, #2
 8005a64:	d103      	bne.n	8005a6e <I2C_Flush_TXDR+0x1e>
  {
    hi2c->Instance->TXDR = 0x00U;
 8005a66:	687b      	ldr	r3, [r7, #4]
 8005a68:	681b      	ldr	r3, [r3, #0]
 8005a6a:	2200      	movs	r2, #0
 8005a6c:	629a      	str	r2, [r3, #40]	@ 0x28
  }

  /* Flush TX register if not empty */
  if (__HAL_I2C_GET_FLAG(hi2c, I2C_FLAG_TXE) == RESET)
 8005a6e:	687b      	ldr	r3, [r7, #4]
 8005a70:	681b      	ldr	r3, [r3, #0]
 8005a72:	699b      	ldr	r3, [r3, #24]
 8005a74:	f003 0301 	and.w	r3, r3, #1
 8005a78:	2b01      	cmp	r3, #1
 8005a7a:	d007      	beq.n	8005a8c <I2C_Flush_TXDR+0x3c>
  {
    __HAL_I2C_CLEAR_FLAG(hi2c, I2C_FLAG_TXE);
 8005a7c:	687b      	ldr	r3, [r7, #4]
 8005a7e:	681b      	ldr	r3, [r3, #0]
 8005a80:	699a      	ldr	r2, [r3, #24]
 8005a82:	687b      	ldr	r3, [r7, #4]
 8005a84:	681b      	ldr	r3, [r3, #0]
 8005a86:	f042 0201 	orr.w	r2, r2, #1
 8005a8a:	619a      	str	r2, [r3, #24]
  }
}
 8005a8c:	bf00      	nop
 8005a8e:	370c      	adds	r7, #12
 8005a90:	46bd      	mov	sp, r7
 8005a92:	f85d 7b04 	ldr.w	r7, [sp], #4
 8005a96:	4770      	bx	lr

08005a98 <I2C_WaitOnFlagUntilTimeout>:
  * @param  Tickstart Tick start value
  * @retval HAL status
  */
static HAL_StatusTypeDef I2C_WaitOnFlagUntilTimeout(I2C_HandleTypeDef *hi2c, uint32_t Flag, FlagStatus Status,
                                                    uint32_t Timeout, uint32_t Tickstart)
{
 8005a98:	b580      	push	{r7, lr}
 8005a9a:	b084      	sub	sp, #16
 8005a9c:	af00      	add	r7, sp, #0
 8005a9e:	60f8      	str	r0, [r7, #12]
 8005aa0:	60b9      	str	r1, [r7, #8]
 8005aa2:	603b      	str	r3, [r7, #0]
 8005aa4:	4613      	mov	r3, r2
 8005aa6:	71fb      	strb	r3, [r7, #7]
  while (__HAL_I2C_GET_FLAG(hi2c, Flag) == Status)
 8005aa8:	e03b      	b.n	8005b22 <I2C_WaitOnFlagUntilTimeout+0x8a>
  {
    /* Check if an error is detected */
    if (I2C_IsErrorOccurred(hi2c, Timeout, Tickstart) != HAL_OK)
 8005aaa:	69ba      	ldr	r2, [r7, #24]
 8005aac:	6839      	ldr	r1, [r7, #0]
 8005aae:	68f8      	ldr	r0, [r7, #12]
 8005ab0:	f000 f8d6 	bl	8005c60 <I2C_IsErrorOccurred>
 8005ab4:	4603      	mov	r3, r0
 8005ab6:	2b00      	cmp	r3, #0
 8005ab8:	d001      	beq.n	8005abe <I2C_WaitOnFlagUntilTimeout+0x26>
    {
      return HAL_ERROR;
 8005aba:	2301      	movs	r3, #1
 8005abc:	e041      	b.n	8005b42 <I2C_WaitOnFlagUntilTimeout+0xaa>
    }

    /* Check for the Timeout */
    if (Timeout != HAL_MAX_DELAY)
 8005abe:	683b      	ldr	r3, [r7, #0]
 8005ac0:	f1b3 3fff 	cmp.w	r3, #4294967295
 8005ac4:	d02d      	beq.n	8005b22 <I2C_WaitOnFlagUntilTimeout+0x8a>
    {
      if (((HAL_GetTick() - Tickstart) > Timeout) || (Timeout == 0U))
 8005ac6:	f7fd fd43 	bl	8003550 <HAL_GetTick>
 8005aca:	4602      	mov	r2, r0
 8005acc:	69bb      	ldr	r3, [r7, #24]
 8005ace:	1ad3      	subs	r3, r2, r3
 8005ad0:	683a      	ldr	r2, [r7, #0]
 8005ad2:	429a      	cmp	r2, r3
 8005ad4:	d302      	bcc.n	8005adc <I2C_WaitOnFlagUntilTimeout+0x44>
 8005ad6:	683b      	ldr	r3, [r7, #0]
 8005ad8:	2b00      	cmp	r3, #0
 8005ada:	d122      	bne.n	8005b22 <I2C_WaitOnFlagUntilTimeout+0x8a>
      {
        if (__HAL_I2C_GET_FLAG(hi2c, Flag) == Status)
 8005adc:	68fb      	ldr	r3, [r7, #12]
 8005ade:	681b      	ldr	r3, [r3, #0]
 8005ae0:	699a      	ldr	r2, [r3, #24]
 8005ae2:	68bb      	ldr	r3, [r7, #8]
 8005ae4:	4013      	ands	r3, r2
 8005ae6:	68ba      	ldr	r2, [r7, #8]
 8005ae8:	429a      	cmp	r2, r3
 8005aea:	bf0c      	ite	eq
 8005aec:	2301      	moveq	r3, #1
 8005aee:	2300      	movne	r3, #0
 8005af0:	b2db      	uxtb	r3, r3
 8005af2:	461a      	mov	r2, r3
 8005af4:	79fb      	ldrb	r3, [r7, #7]
 8005af6:	429a      	cmp	r2, r3
 8005af8:	d113      	bne.n	8005b22 <I2C_WaitOnFlagUntilTimeout+0x8a>
        {
          hi2c->ErrorCode |= HAL_I2C_ERROR_TIMEOUT;
 8005afa:	68fb      	ldr	r3, [r7, #12]
 8005afc:	6c5b      	ldr	r3, [r3, #68]	@ 0x44
 8005afe:	f043 0220 	orr.w	r2, r3, #32
 8005b02:	68fb      	ldr	r3, [r7, #12]
 8005b04:	645a      	str	r2, [r3, #68]	@ 0x44
          hi2c->State = HAL_I2C_STATE_READY;
 8005b06:	68fb      	ldr	r3, [r7, #12]
 8005b08:	2220      	movs	r2, #32
 8005b0a:	f883 2041 	strb.w	r2, [r3, #65]	@ 0x41
          hi2c->Mode = HAL_I2C_MODE_NONE;
 8005b0e:	68fb      	ldr	r3, [r7, #12]
 8005b10:	2200      	movs	r2, #0
 8005b12:	f883 2042 	strb.w	r2, [r3, #66]	@ 0x42

          /* Process Unlocked */
          __HAL_UNLOCK(hi2c);
 8005b16:	68fb      	ldr	r3, [r7, #12]
 8005b18:	2200      	movs	r2, #0
 8005b1a:	f883 2040 	strb.w	r2, [r3, #64]	@ 0x40
          return HAL_ERROR;
 8005b1e:	2301      	movs	r3, #1
 8005b20:	e00f      	b.n	8005b42 <I2C_WaitOnFlagUntilTimeout+0xaa>
  while (__HAL_I2C_GET_FLAG(hi2c, Flag) == Status)
 8005b22:	68fb      	ldr	r3, [r7, #12]
 8005b24:	681b      	ldr	r3, [r3, #0]
 8005b26:	699a      	ldr	r2, [r3, #24]
 8005b28:	68bb      	ldr	r3, [r7, #8]
 8005b2a:	4013      	ands	r3, r2
 8005b2c:	68ba      	ldr	r2, [r7, #8]
 8005b2e:	429a      	cmp	r2, r3
 8005b30:	bf0c      	ite	eq
 8005b32:	2301      	moveq	r3, #1
 8005b34:	2300      	movne	r3, #0
 8005b36:	b2db      	uxtb	r3, r3
 8005b38:	461a      	mov	r2, r3
 8005b3a:	79fb      	ldrb	r3, [r7, #7]
 8005b3c:	429a      	cmp	r2, r3
 8005b3e:	d0b4      	beq.n	8005aaa <I2C_WaitOnFlagUntilTimeout+0x12>
        }
      }
    }
  }
  return HAL_OK;
 8005b40:	2300      	movs	r3, #0
}
 8005b42:	4618      	mov	r0, r3
 8005b44:	3710      	adds	r7, #16
 8005b46:	46bd      	mov	sp, r7
 8005b48:	bd80      	pop	{r7, pc}

08005b4a <I2C_WaitOnTXISFlagUntilTimeout>:
  * @param  Tickstart Tick start value
  * @retval HAL status
  */
static HAL_StatusTypeDef I2C_WaitOnTXISFlagUntilTimeout(I2C_HandleTypeDef *hi2c, uint32_t Timeout,
                                                        uint32_t Tickstart)
{
 8005b4a:	b580      	push	{r7, lr}
 8005b4c:	b084      	sub	sp, #16
 8005b4e:	af00      	add	r7, sp, #0
 8005b50:	60f8      	str	r0, [r7, #12]
 8005b52:	60b9      	str	r1, [r7, #8]
 8005b54:	607a      	str	r2, [r7, #4]
  while (__HAL_I2C_GET_FLAG(hi2c, I2C_FLAG_TXIS) == RESET)
 8005b56:	e033      	b.n	8005bc0 <I2C_WaitOnTXISFlagUntilTimeout+0x76>
  {
    /* Check if an error is detected */
    if (I2C_IsErrorOccurred(hi2c, Timeout, Tickstart) != HAL_OK)
 8005b58:	687a      	ldr	r2, [r7, #4]
 8005b5a:	68b9      	ldr	r1, [r7, #8]
 8005b5c:	68f8      	ldr	r0, [r7, #12]
 8005b5e:	f000 f87f 	bl	8005c60 <I2C_IsErrorOccurred>
 8005b62:	4603      	mov	r3, r0
 8005b64:	2b00      	cmp	r3, #0
 8005b66:	d001      	beq.n	8005b6c <I2C_WaitOnTXISFlagUntilTimeout+0x22>
    {
      return HAL_ERROR;
 8005b68:	2301      	movs	r3, #1
 8005b6a:	e031      	b.n	8005bd0 <I2C_WaitOnTXISFlagUntilTimeout+0x86>
    }

    /* Check for the Timeout */
    if (Timeout != HAL_MAX_DELAY)
 8005b6c:	68bb      	ldr	r3, [r7, #8]
 8005b6e:	f1b3 3fff 	cmp.w	r3, #4294967295
 8005b72:	d025      	beq.n	8005bc0 <I2C_WaitOnTXISFlagUntilTimeout+0x76>
    {
      if (((HAL_GetTick() - Tickstart) > Timeout) || (Timeout == 0U))
 8005b74:	f7fd fcec 	bl	8003550 <HAL_GetTick>
 8005b78:	4602      	mov	r2, r0
 8005b7a:	687b      	ldr	r3, [r7, #4]
 8005b7c:	1ad3      	subs	r3, r2, r3
 8005b7e:	68ba      	ldr	r2, [r7, #8]
 8005b80:	429a      	cmp	r2, r3
 8005b82:	d302      	bcc.n	8005b8a <I2C_WaitOnTXISFlagUntilTimeout+0x40>
 8005b84:	68bb      	ldr	r3, [r7, #8]
 8005b86:	2b00      	cmp	r3, #0
 8005b88:	d11a      	bne.n	8005bc0 <I2C_WaitOnTXISFlagUntilTimeout+0x76>
      {
        if (__HAL_I2C_GET_FLAG(hi2c, I2C_FLAG_TXIS) == RESET)
 8005b8a:	68fb      	ldr	r3, [r7, #12]
 8005b8c:	681b      	ldr	r3, [r3, #0]
 8005b8e:	699b      	ldr	r3, [r3, #24]
 8005b90:	f003 0302 	and.w	r3, r3, #2
 8005b94:	2b02      	cmp	r3, #2
 8005b96:	d013      	beq.n	8005bc0 <I2C_WaitOnTXISFlagUntilTimeout+0x76>
        {
          hi2c->ErrorCode |= HAL_I2C_ERROR_TIMEOUT;
 8005b98:	68fb      	ldr	r3, [r7, #12]
 8005b9a:	6c5b      	ldr	r3, [r3, #68]	@ 0x44
 8005b9c:	f043 0220 	orr.w	r2, r3, #32
 8005ba0:	68fb      	ldr	r3, [r7, #12]
 8005ba2:	645a      	str	r2, [r3, #68]	@ 0x44
          hi2c->State = HAL_I2C_STATE_READY;
 8005ba4:	68fb      	ldr	r3, [r7, #12]
 8005ba6:	2220      	movs	r2, #32
 8005ba8:	f883 2041 	strb.w	r2, [r3, #65]	@ 0x41
          hi2c->Mode = HAL_I2C_MODE_NONE;
 8005bac:	68fb      	ldr	r3, [r7, #12]
 8005bae:	2200      	movs	r2, #0
 8005bb0:	f883 2042 	strb.w	r2, [r3, #66]	@ 0x42

          /* Process Unlocked */
          __HAL_UNLOCK(hi2c);
 8005bb4:	68fb      	ldr	r3, [r7, #12]
 8005bb6:	2200      	movs	r2, #0
 8005bb8:	f883 2040 	strb.w	r2, [r3, #64]	@ 0x40

          return HAL_ERROR;
 8005bbc:	2301      	movs	r3, #1
 8005bbe:	e007      	b.n	8005bd0 <I2C_WaitOnTXISFlagUntilTimeout+0x86>
  while (__HAL_I2C_GET_FLAG(hi2c, I2C_FLAG_TXIS) == RESET)
 8005bc0:	68fb      	ldr	r3, [r7, #12]
 8005bc2:	681b      	ldr	r3, [r3, #0]
 8005bc4:	699b      	ldr	r3, [r3, #24]
 8005bc6:	f003 0302 	and.w	r3, r3, #2
 8005bca:	2b02      	cmp	r3, #2
 8005bcc:	d1c4      	bne.n	8005b58 <I2C_WaitOnTXISFlagUntilTimeout+0xe>
        }
      }
    }
  }
  return HAL_OK;
 8005bce:	2300      	movs	r3, #0
}
 8005bd0:	4618      	mov	r0, r3
 8005bd2:	3710      	adds	r7, #16
 8005bd4:	46bd      	mov	sp, r7
 8005bd6:	bd80      	pop	{r7, pc}

08005bd8 <I2C_WaitOnSTOPFlagUntilTimeout>:
  * @param  Tickstart Tick start value
  * @retval HAL status
  */
static HAL_StatusTypeDef I2C_WaitOnSTOPFlagUntilTimeout(I2C_HandleTypeDef *hi2c, uint32_t Timeout,
                                                        uint32_t Tickstart)
{
 8005bd8:	b580      	push	{r7, lr}
 8005bda:	b084      	sub	sp, #16
 8005bdc:	af00      	add	r7, sp, #0
 8005bde:	60f8      	str	r0, [r7, #12]
 8005be0:	60b9      	str	r1, [r7, #8]
 8005be2:	607a      	str	r2, [r7, #4]
  while (__HAL_I2C_GET_FLAG(hi2c, I2C_FLAG_STOPF) == RESET)
 8005be4:	e02f      	b.n	8005c46 <I2C_WaitOnSTOPFlagUntilTimeout+0x6e>
  {
    /* Check if an error is detected */
    if (I2C_IsErrorOccurred(hi2c, Timeout, Tickstart) != HAL_OK)
 8005be6:	687a      	ldr	r2, [r7, #4]
 8005be8:	68b9      	ldr	r1, [r7, #8]
 8005bea:	68f8      	ldr	r0, [r7, #12]
 8005bec:	f000 f838 	bl	8005c60 <I2C_IsErrorOccurred>
 8005bf0:	4603      	mov	r3, r0
 8005bf2:	2b00      	cmp	r3, #0
 8005bf4:	d001      	beq.n	8005bfa <I2C_WaitOnSTOPFlagUntilTimeout+0x22>
    {
      return HAL_ERROR;
 8005bf6:	2301      	movs	r3, #1
 8005bf8:	e02d      	b.n	8005c56 <I2C_WaitOnSTOPFlagUntilTimeout+0x7e>
    }

    /* Check for the Timeout */
    if (((HAL_GetTick() - Tickstart) > Timeout) || (Timeout == 0U))
 8005bfa:	f7fd fca9 	bl	8003550 <HAL_GetTick>
 8005bfe:	4602      	mov	r2, r0
 8005c00:	687b      	ldr	r3, [r7, #4]
 8005c02:	1ad3      	subs	r3, r2, r3
 8005c04:	68ba      	ldr	r2, [r7, #8]
 8005c06:	429a      	cmp	r2, r3
 8005c08:	d302      	bcc.n	8005c10 <I2C_WaitOnSTOPFlagUntilTimeout+0x38>
 8005c0a:	68bb      	ldr	r3, [r7, #8]
 8005c0c:	2b00      	cmp	r3, #0
 8005c0e:	d11a      	bne.n	8005c46 <I2C_WaitOnSTOPFlagUntilTimeout+0x6e>
    {
      if (__HAL_I2C_GET_FLAG(hi2c, I2C_FLAG_STOPF) == RESET)
 8005c10:	68fb      	ldr	r3, [r7, #12]
 8005c12:	681b      	ldr	r3, [r3, #0]
 8005c14:	699b      	ldr	r3, [r3, #24]
 8005c16:	f003 0320 	and.w	r3, r3, #32
 8005c1a:	2b20      	cmp	r3, #32
 8005c1c:	d013      	beq.n	8005c46 <I2C_WaitOnSTOPFlagUntilTimeout+0x6e>
      {
        hi2c->ErrorCode |= HAL_I2C_ERROR_TIMEOUT;
 8005c1e:	68fb      	ldr	r3, [r7, #12]
 8005c20:	6c5b      	ldr	r3, [r3, #68]	@ 0x44
 8005c22:	f043 0220 	orr.w	r2, r3, #32
 8005c26:	68fb      	ldr	r3, [r7, #12]
 8005c28:	645a      	str	r2, [r3, #68]	@ 0x44
        hi2c->State = HAL_I2C_STATE_READY;
 8005c2a:	68fb      	ldr	r3, [r7, #12]
 8005c2c:	2220      	movs	r2, #32
 8005c2e:	f883 2041 	strb.w	r2, [r3, #65]	@ 0x41
        hi2c->Mode = HAL_I2C_MODE_NONE;
 8005c32:	68fb      	ldr	r3, [r7, #12]
 8005c34:	2200      	movs	r2, #0
 8005c36:	f883 2042 	strb.w	r2, [r3, #66]	@ 0x42

        /* Process Unlocked */
        __HAL_UNLOCK(hi2c);
 8005c3a:	68fb      	ldr	r3, [r7, #12]
 8005c3c:	2200      	movs	r2, #0
 8005c3e:	f883 2040 	strb.w	r2, [r3, #64]	@ 0x40

        return HAL_ERROR;
 8005c42:	2301      	movs	r3, #1
 8005c44:	e007      	b.n	8005c56 <I2C_WaitOnSTOPFlagUntilTimeout+0x7e>
  while (__HAL_I2C_GET_FLAG(hi2c, I2C_FLAG_STOPF) == RESET)
 8005c46:	68fb      	ldr	r3, [r7, #12]
 8005c48:	681b      	ldr	r3, [r3, #0]
 8005c4a:	699b      	ldr	r3, [r3, #24]
 8005c4c:	f003 0320 	and.w	r3, r3, #32
 8005c50:	2b20      	cmp	r3, #32
 8005c52:	d1c8      	bne.n	8005be6 <I2C_WaitOnSTOPFlagUntilTimeout+0xe>
      }
    }
  }
  return HAL_OK;
 8005c54:	2300      	movs	r3, #0
}
 8005c56:	4618      	mov	r0, r3
 8005c58:	3710      	adds	r7, #16
 8005c5a:	46bd      	mov	sp, r7
 8005c5c:	bd80      	pop	{r7, pc}
	...

08005c60 <I2C_IsErrorOccurred>:
  * @param  Timeout Timeout duration
  * @param  Tickstart Tick start value
  * @retval HAL status
  */
static HAL_StatusTypeDef I2C_IsErrorOccurred(I2C_HandleTypeDef *hi2c, uint32_t Timeout, uint32_t Tickstart)
{
 8005c60:	b580      	push	{r7, lr}
 8005c62:	b08a      	sub	sp, #40	@ 0x28
 8005c64:	af00      	add	r7, sp, #0
 8005c66:	60f8      	str	r0, [r7, #12]
 8005c68:	60b9      	str	r1, [r7, #8]
 8005c6a:	607a      	str	r2, [r7, #4]
  HAL_StatusTypeDef status = HAL_OK;
 8005c6c:	2300      	movs	r3, #0
 8005c6e:	f887 3027 	strb.w	r3, [r7, #39]	@ 0x27
  uint32_t itflag   = hi2c->Instance->ISR;
 8005c72:	68fb      	ldr	r3, [r7, #12]
 8005c74:	681b      	ldr	r3, [r3, #0]
 8005c76:	699b      	ldr	r3, [r3, #24]
 8005c78:	61bb      	str	r3, [r7, #24]
  uint32_t error_code = 0;
 8005c7a:	2300      	movs	r3, #0
 8005c7c:	623b      	str	r3, [r7, #32]
  uint32_t tickstart = Tickstart;
 8005c7e:	687b      	ldr	r3, [r7, #4]
 8005c80:	61fb      	str	r3, [r7, #28]
  uint32_t tmp1;
  HAL_I2C_ModeTypeDef tmp2;

  if (HAL_IS_BIT_SET(itflag, I2C_FLAG_AF))
 8005c82:	69bb      	ldr	r3, [r7, #24]
 8005c84:	f003 0310 	and.w	r3, r3, #16
 8005c88:	2b00      	cmp	r3, #0
 8005c8a:	d068      	beq.n	8005d5e <I2C_IsErrorOccurred+0xfe>
  {
    /* Clear NACKF Flag */
    __HAL_I2C_CLEAR_FLAG(hi2c, I2C_FLAG_AF);
 8005c8c:	68fb      	ldr	r3, [r7, #12]
 8005c8e:	681b      	ldr	r3, [r3, #0]
 8005c90:	2210      	movs	r2, #16
 8005c92:	61da      	str	r2, [r3, #28]

    /* Wait until STOP Flag is set or timeout occurred */
    /* AutoEnd should be initiate after AF */
    while ((__HAL_I2C_GET_FLAG(hi2c, I2C_FLAG_STOPF) == RESET) && (status == HAL_OK))
 8005c94:	e049      	b.n	8005d2a <I2C_IsErrorOccurred+0xca>
    {
      /* Check for the Timeout */
      if (Timeout != HAL_MAX_DELAY)
 8005c96:	68bb      	ldr	r3, [r7, #8]
 8005c98:	f1b3 3fff 	cmp.w	r3, #4294967295
 8005c9c:	d045      	beq.n	8005d2a <I2C_IsErrorOccurred+0xca>
      {
        if (((HAL_GetTick() - tickstart) > Timeout) || (Timeout == 0U))
 8005c9e:	f7fd fc57 	bl	8003550 <HAL_GetTick>
 8005ca2:	4602      	mov	r2, r0
 8005ca4:	69fb      	ldr	r3, [r7, #28]
 8005ca6:	1ad3      	subs	r3, r2, r3
 8005ca8:	68ba      	ldr	r2, [r7, #8]
 8005caa:	429a      	cmp	r2, r3
 8005cac:	d302      	bcc.n	8005cb4 <I2C_IsErrorOccurred+0x54>
 8005cae:	68bb      	ldr	r3, [r7, #8]
 8005cb0:	2b00      	cmp	r3, #0
 8005cb2:	d13a      	bne.n	8005d2a <I2C_IsErrorOccurred+0xca>
        {
          tmp1 = (uint32_t)(hi2c->Instance->CR2 & I2C_CR2_STOP);
 8005cb4:	68fb      	ldr	r3, [r7, #12]
 8005cb6:	681b      	ldr	r3, [r3, #0]
 8005cb8:	685b      	ldr	r3, [r3, #4]
 8005cba:	f403 4380 	and.w	r3, r3, #16384	@ 0x4000
 8005cbe:	617b      	str	r3, [r7, #20]
          tmp2 = hi2c->Mode;
 8005cc0:	68fb      	ldr	r3, [r7, #12]
 8005cc2:	f893 3042 	ldrb.w	r3, [r3, #66]	@ 0x42
 8005cc6:	74fb      	strb	r3, [r7, #19]

          /* In case of I2C still busy, try to regenerate a STOP manually */
          if ((__HAL_I2C_GET_FLAG(hi2c, I2C_FLAG_BUSY) != RESET) && \
 8005cc8:	68fb      	ldr	r3, [r7, #12]
 8005cca:	681b      	ldr	r3, [r3, #0]
 8005ccc:	699b      	ldr	r3, [r3, #24]
 8005cce:	f403 4300 	and.w	r3, r3, #32768	@ 0x8000
 8005cd2:	f5b3 4f00 	cmp.w	r3, #32768	@ 0x8000
 8005cd6:	d121      	bne.n	8005d1c <I2C_IsErrorOccurred+0xbc>
 8005cd8:	697b      	ldr	r3, [r7, #20]
 8005cda:	f5b3 4f80 	cmp.w	r3, #16384	@ 0x4000
 8005cde:	d01d      	beq.n	8005d1c <I2C_IsErrorOccurred+0xbc>
              (tmp1 != I2C_CR2_STOP) && \
 8005ce0:	7cfb      	ldrb	r3, [r7, #19]
 8005ce2:	2b20      	cmp	r3, #32
 8005ce4:	d01a      	beq.n	8005d1c <I2C_IsErrorOccurred+0xbc>
              (tmp2 != HAL_I2C_MODE_SLAVE))
          {
            /* Generate Stop */
            hi2c->Instance->CR2 |= I2C_CR2_STOP;
 8005ce6:	68fb      	ldr	r3, [r7, #12]
 8005ce8:	681b      	ldr	r3, [r3, #0]
 8005cea:	685a      	ldr	r2, [r3, #4]
 8005cec:	68fb      	ldr	r3, [r7, #12]
 8005cee:	681b      	ldr	r3, [r3, #0]
 8005cf0:	f442 4280 	orr.w	r2, r2, #16384	@ 0x4000
 8005cf4:	605a      	str	r2, [r3, #4]

            /* Update Tick with new reference */
            tickstart = HAL_GetTick();
 8005cf6:	f7fd fc2b 	bl	8003550 <HAL_GetTick>
 8005cfa:	61f8      	str	r0, [r7, #28]
          }

          while (__HAL_I2C_GET_FLAG(hi2c, I2C_FLAG_STOPF) == RESET)
 8005cfc:	e00e      	b.n	8005d1c <I2C_IsErrorOccurred+0xbc>
          {
            /* Check for the Timeout */
            if ((HAL_GetTick() - tickstart) > I2C_TIMEOUT_STOPF)
 8005cfe:	f7fd fc27 	bl	8003550 <HAL_GetTick>
 8005d02:	4602      	mov	r2, r0
 8005d04:	69fb      	ldr	r3, [r7, #28]
 8005d06:	1ad3      	subs	r3, r2, r3
 8005d08:	2b19      	cmp	r3, #25
 8005d0a:	d907      	bls.n	8005d1c <I2C_IsErrorOccurred+0xbc>
            {
              error_code |= HAL_I2C_ERROR_TIMEOUT;
 8005d0c:	6a3b      	ldr	r3, [r7, #32]
 8005d0e:	f043 0320 	orr.w	r3, r3, #32
 8005d12:	623b      	str	r3, [r7, #32]

              status = HAL_ERROR;
 8005d14:	2301      	movs	r3, #1
 8005d16:	f887 3027 	strb.w	r3, [r7, #39]	@ 0x27

              break;
 8005d1a:	e006      	b.n	8005d2a <I2C_IsErrorOccurred+0xca>
          while (__HAL_I2C_GET_FLAG(hi2c, I2C_FLAG_STOPF) == RESET)
 8005d1c:	68fb      	ldr	r3, [r7, #12]
 8005d1e:	681b      	ldr	r3, [r3, #0]
 8005d20:	699b      	ldr	r3, [r3, #24]
 8005d22:	f003 0320 	and.w	r3, r3, #32
 8005d26:	2b20      	cmp	r3, #32
 8005d28:	d1e9      	bne.n	8005cfe <I2C_IsErrorOccurred+0x9e>
    while ((__HAL_I2C_GET_FLAG(hi2c, I2C_FLAG_STOPF) == RESET) && (status == HAL_OK))
 8005d2a:	68fb      	ldr	r3, [r7, #12]
 8005d2c:	681b      	ldr	r3, [r3, #0]
 8005d2e:	699b      	ldr	r3, [r3, #24]
 8005d30:	f003 0320 	and.w	r3, r3, #32
 8005d34:	2b20      	cmp	r3, #32
 8005d36:	d003      	beq.n	8005d40 <I2C_IsErrorOccurred+0xe0>
 8005d38:	f897 3027 	ldrb.w	r3, [r7, #39]	@ 0x27
 8005d3c:	2b00      	cmp	r3, #0
 8005d3e:	d0aa      	beq.n	8005c96 <I2C_IsErrorOccurred+0x36>
        }
      }
    }

    /* In case STOP Flag is detected, clear it */
    if (status == HAL_OK)
 8005d40:	f897 3027 	ldrb.w	r3, [r7, #39]	@ 0x27
 8005d44:	2b00      	cmp	r3, #0
 8005d46:	d103      	bne.n	8005d50 <I2C_IsErrorOccurred+0xf0>
    {
      /* Clear STOP Flag */
      __HAL_I2C_CLEAR_FLAG(hi2c, I2C_FLAG_STOPF);
 8005d48:	68fb      	ldr	r3, [r7, #12]
 8005d4a:	681b      	ldr	r3, [r3, #0]
 8005d4c:	2220      	movs	r2, #32
 8005d4e:	61da      	str	r2, [r3, #28]
    }

    error_code |= HAL_I2C_ERROR_AF;
 8005d50:	6a3b      	ldr	r3, [r7, #32]
 8005d52:	f043 0304 	orr.w	r3, r3, #4
 8005d56:	623b      	str	r3, [r7, #32]

    status = HAL_ERROR;
 8005d58:	2301      	movs	r3, #1
 8005d5a:	f887 3027 	strb.w	r3, [r7, #39]	@ 0x27
  }

  /* Refresh Content of Status register */
  itflag = hi2c->Instance->ISR;
 8005d5e:	68fb      	ldr	r3, [r7, #12]
 8005d60:	681b      	ldr	r3, [r3, #0]
 8005d62:	699b      	ldr	r3, [r3, #24]
 8005d64:	61bb      	str	r3, [r7, #24]

  /* Then verify if an additional errors occurs */
  /* Check if a Bus error occurred */
  if (HAL_IS_BIT_SET(itflag, I2C_FLAG_BERR))
 8005d66:	69bb      	ldr	r3, [r7, #24]
 8005d68:	f403 7380 	and.w	r3, r3, #256	@ 0x100
 8005d6c:	2b00      	cmp	r3, #0
 8005d6e:	d00b      	beq.n	8005d88 <I2C_IsErrorOccurred+0x128>
  {
    error_code |= HAL_I2C_ERROR_BERR;
 8005d70:	6a3b      	ldr	r3, [r7, #32]
 8005d72:	f043 0301 	orr.w	r3, r3, #1
 8005d76:	623b      	str	r3, [r7, #32]

    /* Clear BERR flag */
    __HAL_I2C_CLEAR_FLAG(hi2c, I2C_FLAG_BERR);
 8005d78:	68fb      	ldr	r3, [r7, #12]
 8005d7a:	681b      	ldr	r3, [r3, #0]
 8005d7c:	f44f 7280 	mov.w	r2, #256	@ 0x100
 8005d80:	61da      	str	r2, [r3, #28]

    status = HAL_ERROR;
 8005d82:	2301      	movs	r3, #1
 8005d84:	f887 3027 	strb.w	r3, [r7, #39]	@ 0x27
  }

  /* Check if an Over-Run/Under-Run error occurred */
  if (HAL_IS_BIT_SET(itflag, I2C_FLAG_OVR))
 8005d88:	69bb      	ldr	r3, [r7, #24]
 8005d8a:	f403 6380 	and.w	r3, r3, #1024	@ 0x400
 8005d8e:	2b00      	cmp	r3, #0
 8005d90:	d00b      	beq.n	8005daa <I2C_IsErrorOccurred+0x14a>
  {
    error_code |= HAL_I2C_ERROR_OVR;
 8005d92:	6a3b      	ldr	r3, [r7, #32]
 8005d94:	f043 0308 	orr.w	r3, r3, #8
 8005d98:	623b      	str	r3, [r7, #32]

    /* Clear OVR flag */
    __HAL_I2C_CLEAR_FLAG(hi2c, I2C_FLAG_OVR);
 8005d9a:	68fb      	ldr	r3, [r7, #12]
 8005d9c:	681b      	ldr	r3, [r3, #0]
 8005d9e:	f44f 6280 	mov.w	r2, #1024	@ 0x400
 8005da2:	61da      	str	r2, [r3, #28]

    status = HAL_ERROR;
 8005da4:	2301      	movs	r3, #1
 8005da6:	f887 3027 	strb.w	r3, [r7, #39]	@ 0x27
  }

  /* Check if an Arbitration Loss error occurred */
  if (HAL_IS_BIT_SET(itflag, I2C_FLAG_ARLO))
 8005daa:	69bb      	ldr	r3, [r7, #24]
 8005dac:	f403 7300 	and.w	r3, r3, #512	@ 0x200
 8005db0:	2b00      	cmp	r3, #0
 8005db2:	d00b      	beq.n	8005dcc <I2C_IsErrorOccurred+0x16c>
  {
    error_code |= HAL_I2C_ERROR_ARLO;
 8005db4:	6a3b      	ldr	r3, [r7, #32]
 8005db6:	f043 0302 	orr.w	r3, r3, #2
 8005dba:	623b      	str	r3, [r7, #32]

    /* Clear ARLO flag */
    __HAL_I2C_CLEAR_FLAG(hi2c, I2C_FLAG_ARLO);
 8005dbc:	68fb      	ldr	r3, [r7, #12]
 8005dbe:	681b      	ldr	r3, [r3, #0]
 8005dc0:	f44f 7200 	mov.w	r2, #512	@ 0x200
 8005dc4:	61da      	str	r2, [r3, #28]

    status = HAL_ERROR;
 8005dc6:	2301      	movs	r3, #1
 8005dc8:	f887 3027 	strb.w	r3, [r7, #39]	@ 0x27
  }

  if (status != HAL_OK)
 8005dcc:	f897 3027 	ldrb.w	r3, [r7, #39]	@ 0x27
 8005dd0:	2b00      	cmp	r3, #0
 8005dd2:	d01c      	beq.n	8005e0e <I2C_IsErrorOccurred+0x1ae>
  {
    /* Flush TX register */
    I2C_Flush_TXDR(hi2c);
 8005dd4:	68f8      	ldr	r0, [r7, #12]
 8005dd6:	f7ff fe3b 	bl	8005a50 <I2C_Flush_TXDR>

    /* Clear Configuration Register 2 */
    I2C_RESET_CR2(hi2c);
 8005dda:	68fb      	ldr	r3, [r7, #12]
 8005ddc:	681b      	ldr	r3, [r3, #0]
 8005dde:	6859      	ldr	r1, [r3, #4]
 8005de0:	68fb      	ldr	r3, [r7, #12]
 8005de2:	681a      	ldr	r2, [r3, #0]
 8005de4:	4b0d      	ldr	r3, [pc, #52]	@ (8005e1c <I2C_IsErrorOccurred+0x1bc>)
 8005de6:	400b      	ands	r3, r1
 8005de8:	6053      	str	r3, [r2, #4]

    hi2c->ErrorCode |= error_code;
 8005dea:	68fb      	ldr	r3, [r7, #12]
 8005dec:	6c5a      	ldr	r2, [r3, #68]	@ 0x44
 8005dee:	6a3b      	ldr	r3, [r7, #32]
 8005df0:	431a      	orrs	r2, r3
 8005df2:	68fb      	ldr	r3, [r7, #12]
 8005df4:	645a      	str	r2, [r3, #68]	@ 0x44
    hi2c->State = HAL_I2C_STATE_READY;
 8005df6:	68fb      	ldr	r3, [r7, #12]
 8005df8:	2220      	movs	r2, #32
 8005dfa:	f883 2041 	strb.w	r2, [r3, #65]	@ 0x41
    hi2c->Mode = HAL_I2C_MODE_NONE;
 8005dfe:	68fb      	ldr	r3, [r7, #12]
 8005e00:	2200      	movs	r2, #0
 8005e02:	f883 2042 	strb.w	r2, [r3, #66]	@ 0x42

    /* Process Unlocked */
    __HAL_UNLOCK(hi2c);
 8005e06:	68fb      	ldr	r3, [r7, #12]
 8005e08:	2200      	movs	r2, #0
 8005e0a:	f883 2040 	strb.w	r2, [r3, #64]	@ 0x40
  }

  return status;
 8005e0e:	f897 3027 	ldrb.w	r3, [r7, #39]	@ 0x27
}
 8005e12:	4618      	mov	r0, r3
 8005e14:	3728      	adds	r7, #40	@ 0x28
 8005e16:	46bd      	mov	sp, r7
 8005e18:	bd80      	pop	{r7, pc}
 8005e1a:	bf00      	nop
 8005e1c:	fe00e800 	.word	0xfe00e800

08005e20 <I2C_TransferConfig>:
  *     @arg @ref I2C_GENERATE_START_WRITE Generate Restart for write request.
  * @retval None
  */
static void I2C_TransferConfig(I2C_HandleTypeDef *hi2c, uint16_t DevAddress, uint8_t Size, uint32_t Mode,
                               uint32_t Request)
{
 8005e20:	b480      	push	{r7}
 8005e22:	b087      	sub	sp, #28
 8005e24:	af00      	add	r7, sp, #0
 8005e26:	60f8      	str	r0, [r7, #12]
 8005e28:	607b      	str	r3, [r7, #4]
 8005e2a:	460b      	mov	r3, r1
 8005e2c:	817b      	strh	r3, [r7, #10]
 8005e2e:	4613      	mov	r3, r2
 8005e30:	727b      	strb	r3, [r7, #9]
  assert_param(IS_I2C_ALL_INSTANCE(hi2c->Instance));
  assert_param(IS_TRANSFER_MODE(Mode));
  assert_param(IS_TRANSFER_REQUEST(Request));

  /* Declaration of tmp to prevent undefined behavior of volatile usage */
  tmp = ((uint32_t)(((uint32_t)DevAddress & I2C_CR2_SADD) | \
 8005e32:	897b      	ldrh	r3, [r7, #10]
 8005e34:	f3c3 0209 	ubfx	r2, r3, #0, #10
                    (((uint32_t)Size << I2C_CR2_NBYTES_Pos) & I2C_CR2_NBYTES) | \
 8005e38:	7a7b      	ldrb	r3, [r7, #9]
 8005e3a:	041b      	lsls	r3, r3, #16
 8005e3c:	f403 037f 	and.w	r3, r3, #16711680	@ 0xff0000
  tmp = ((uint32_t)(((uint32_t)DevAddress & I2C_CR2_SADD) | \
 8005e40:	431a      	orrs	r2, r3
                    (((uint32_t)Size << I2C_CR2_NBYTES_Pos) & I2C_CR2_NBYTES) | \
 8005e42:	687b      	ldr	r3, [r7, #4]
 8005e44:	431a      	orrs	r2, r3
  tmp = ((uint32_t)(((uint32_t)DevAddress & I2C_CR2_SADD) | \
 8005e46:	6a3b      	ldr	r3, [r7, #32]
 8005e48:	4313      	orrs	r3, r2
 8005e4a:	f023 4300 	bic.w	r3, r3, #2147483648	@ 0x80000000
 8005e4e:	617b      	str	r3, [r7, #20]
                    (uint32_t)Mode | (uint32_t)Request) & (~0x80000000U));

  /* update CR2 register */
  MODIFY_REG(hi2c->Instance->CR2, \
 8005e50:	68fb      	ldr	r3, [r7, #12]
 8005e52:	681b      	ldr	r3, [r3, #0]
 8005e54:	685a      	ldr	r2, [r3, #4]
 8005e56:	6a3b      	ldr	r3, [r7, #32]
 8005e58:	0d5b      	lsrs	r3, r3, #21
 8005e5a:	f403 6180 	and.w	r1, r3, #1024	@ 0x400
 8005e5e:	4b08      	ldr	r3, [pc, #32]	@ (8005e80 <I2C_TransferConfig+0x60>)
 8005e60:	430b      	orrs	r3, r1
 8005e62:	43db      	mvns	r3, r3
 8005e64:	ea02 0103 	and.w	r1, r2, r3
 8005e68:	68fb      	ldr	r3, [r7, #12]
 8005e6a:	681b      	ldr	r3, [r3, #0]
 8005e6c:	697a      	ldr	r2, [r7, #20]
 8005e6e:	430a      	orrs	r2, r1
 8005e70:	605a      	str	r2, [r3, #4]
             ((I2C_CR2_SADD | I2C_CR2_NBYTES | I2C_CR2_RELOAD | I2C_CR2_AUTOEND | \
               (I2C_CR2_RD_WRN & (uint32_t)(Request >> (31U - I2C_CR2_RD_WRN_Pos))) | \
               I2C_CR2_START | I2C_CR2_STOP)), tmp);
}
 8005e72:	bf00      	nop
 8005e74:	371c      	adds	r7, #28
 8005e76:	46bd      	mov	sp, r7
 8005e78:	f85d 7b04 	ldr.w	r7, [sp], #4
 8005e7c:	4770      	bx	lr
 8005e7e:	bf00      	nop
 8005e80:	03ff63ff 	.word	0x03ff63ff

08005e84 <HAL_I2CEx_ConfigAnalogFilter>:
  *                the configuration information for the specified I2Cx peripheral.
  * @param  AnalogFilter New state of the Analog filter.
  * @retval HAL status
  */
HAL_StatusTypeDef HAL_I2CEx_ConfigAnalogFilter(I2C_HandleTypeDef *hi2c, uint32_t AnalogFilter)
{
 8005e84:	b480      	push	{r7}
 8005e86:	b083      	sub	sp, #12
 8005e88:	af00      	add	r7, sp, #0
 8005e8a:	6078      	str	r0, [r7, #4]
 8005e8c:	6039      	str	r1, [r7, #0]
  /* Check the parameters */
  assert_param(IS_I2C_ALL_INSTANCE(hi2c->Instance));
  assert_param(IS_I2C_ANALOG_FILTER(AnalogFilter));

  if (hi2c->State == HAL_I2C_STATE_READY)
 8005e8e:	687b      	ldr	r3, [r7, #4]
 8005e90:	f893 3041 	ldrb.w	r3, [r3, #65]	@ 0x41
 8005e94:	b2db      	uxtb	r3, r3
 8005e96:	2b20      	cmp	r3, #32
 8005e98:	d138      	bne.n	8005f0c <HAL_I2CEx_ConfigAnalogFilter+0x88>
  {
    /* Process Locked */
    __HAL_LOCK(hi2c);
 8005e9a:	687b      	ldr	r3, [r7, #4]
 8005e9c:	f893 3040 	ldrb.w	r3, [r3, #64]	@ 0x40
 8005ea0:	2b01      	cmp	r3, #1
 8005ea2:	d101      	bne.n	8005ea8 <HAL_I2CEx_ConfigAnalogFilter+0x24>
 8005ea4:	2302      	movs	r3, #2
 8005ea6:	e032      	b.n	8005f0e <HAL_I2CEx_ConfigAnalogFilter+0x8a>
 8005ea8:	687b      	ldr	r3, [r7, #4]
 8005eaa:	2201      	movs	r2, #1
 8005eac:	f883 2040 	strb.w	r2, [r3, #64]	@ 0x40

    hi2c->State = HAL_I2C_STATE_BUSY;
 8005eb0:	687b      	ldr	r3, [r7, #4]
 8005eb2:	2224      	movs	r2, #36	@ 0x24
 8005eb4:	f883 2041 	strb.w	r2, [r3, #65]	@ 0x41

    /* Disable the selected I2C peripheral */
    __HAL_I2C_DISABLE(hi2c);
 8005eb8:	687b      	ldr	r3, [r7, #4]
 8005eba:	681b      	ldr	r3, [r3, #0]
 8005ebc:	681a      	ldr	r2, [r3, #0]
 8005ebe:	687b      	ldr	r3, [r7, #4]
 8005ec0:	681b      	ldr	r3, [r3, #0]
 8005ec2:	f022 0201 	bic.w	r2, r2, #1
 8005ec6:	601a      	str	r2, [r3, #0]

    /* Reset I2Cx ANOFF bit */
    hi2c->Instance->CR1 &= ~(I2C_CR1_ANFOFF);
 8005ec8:	687b      	ldr	r3, [r7, #4]
 8005eca:	681b      	ldr	r3, [r3, #0]
 8005ecc:	681a      	ldr	r2, [r3, #0]
 8005ece:	687b      	ldr	r3, [r7, #4]
 8005ed0:	681b      	ldr	r3, [r3, #0]
 8005ed2:	f422 5280 	bic.w	r2, r2, #4096	@ 0x1000
 8005ed6:	601a      	str	r2, [r3, #0]

    /* Set analog filter bit*/
    hi2c->Instance->CR1 |= AnalogFilter;
 8005ed8:	687b      	ldr	r3, [r7, #4]
 8005eda:	681b      	ldr	r3, [r3, #0]
 8005edc:	6819      	ldr	r1, [r3, #0]
 8005ede:	687b      	ldr	r3, [r7, #4]
 8005ee0:	681b      	ldr	r3, [r3, #0]
 8005ee2:	683a      	ldr	r2, [r7, #0]
 8005ee4:	430a      	orrs	r2, r1
 8005ee6:	601a      	str	r2, [r3, #0]

    __HAL_I2C_ENABLE(hi2c);
 8005ee8:	687b      	ldr	r3, [r7, #4]
 8005eea:	681b      	ldr	r3, [r3, #0]
 8005eec:	681a      	ldr	r2, [r3, #0]
 8005eee:	687b      	ldr	r3, [r7, #4]
 8005ef0:	681b      	ldr	r3, [r3, #0]
 8005ef2:	f042 0201 	orr.w	r2, r2, #1
 8005ef6:	601a      	str	r2, [r3, #0]

    hi2c->State = HAL_I2C_STATE_READY;
 8005ef8:	687b      	ldr	r3, [r7, #4]
 8005efa:	2220      	movs	r2, #32
 8005efc:	f883 2041 	strb.w	r2, [r3, #65]	@ 0x41

    /* Process Unlocked */
    __HAL_UNLOCK(hi2c);
 8005f00:	687b      	ldr	r3, [r7, #4]
 8005f02:	2200      	movs	r2, #0
 8005f04:	f883 2040 	strb.w	r2, [r3, #64]	@ 0x40

    return HAL_OK;
 8005f08:	2300      	movs	r3, #0
 8005f0a:	e000      	b.n	8005f0e <HAL_I2CEx_ConfigAnalogFilter+0x8a>
  }
  else
  {
    return HAL_BUSY;
 8005f0c:	2302      	movs	r3, #2
  }
}
 8005f0e:	4618      	mov	r0, r3
 8005f10:	370c      	adds	r7, #12
 8005f12:	46bd      	mov	sp, r7
 8005f14:	f85d 7b04 	ldr.w	r7, [sp], #4
 8005f18:	4770      	bx	lr

08005f1a <HAL_I2CEx_ConfigDigitalFilter>:
  *                the configuration information for the specified I2Cx peripheral.
  * @param  DigitalFilter Coefficient of digital noise filter between Min_Data=0x00 and Max_Data=0x0F.
  * @retval HAL status
  */
HAL_StatusTypeDef HAL_I2CEx_ConfigDigitalFilter(I2C_HandleTypeDef *hi2c, uint32_t DigitalFilter)
{
 8005f1a:	b480      	push	{r7}
 8005f1c:	b085      	sub	sp, #20
 8005f1e:	af00      	add	r7, sp, #0
 8005f20:	6078      	str	r0, [r7, #4]
 8005f22:	6039      	str	r1, [r7, #0]

  /* Check the parameters */
  assert_param(IS_I2C_ALL_INSTANCE(hi2c->Instance));
  assert_param(IS_I2C_DIGITAL_FILTER(DigitalFilter));

  if (hi2c->State == HAL_I2C_STATE_READY)
 8005f24:	687b      	ldr	r3, [r7, #4]
 8005f26:	f893 3041 	ldrb.w	r3, [r3, #65]	@ 0x41
 8005f2a:	b2db      	uxtb	r3, r3
 8005f2c:	2b20      	cmp	r3, #32
 8005f2e:	d139      	bne.n	8005fa4 <HAL_I2CEx_ConfigDigitalFilter+0x8a>
  {
    /* Process Locked */
    __HAL_LOCK(hi2c);
 8005f30:	687b      	ldr	r3, [r7, #4]
 8005f32:	f893 3040 	ldrb.w	r3, [r3, #64]	@ 0x40
 8005f36:	2b01      	cmp	r3, #1
 8005f38:	d101      	bne.n	8005f3e <HAL_I2CEx_ConfigDigitalFilter+0x24>
 8005f3a:	2302      	movs	r3, #2
 8005f3c:	e033      	b.n	8005fa6 <HAL_I2CEx_ConfigDigitalFilter+0x8c>
 8005f3e:	687b      	ldr	r3, [r7, #4]
 8005f40:	2201      	movs	r2, #1
 8005f42:	f883 2040 	strb.w	r2, [r3, #64]	@ 0x40

    hi2c->State = HAL_I2C_STATE_BUSY;
 8005f46:	687b      	ldr	r3, [r7, #4]
 8005f48:	2224      	movs	r2, #36	@ 0x24
 8005f4a:	f883 2041 	strb.w	r2, [r3, #65]	@ 0x41

    /* Disable the selected I2C peripheral */
    __HAL_I2C_DISABLE(hi2c);
 8005f4e:	687b      	ldr	r3, [r7, #4]
 8005f50:	681b      	ldr	r3, [r3, #0]
 8005f52:	681a      	ldr	r2, [r3, #0]
 8005f54:	687b      	ldr	r3, [r7, #4]
 8005f56:	681b      	ldr	r3, [r3, #0]
 8005f58:	f022 0201 	bic.w	r2, r2, #1
 8005f5c:	601a      	str	r2, [r3, #0]

    /* Get the old register value */
    tmpreg = hi2c->Instance->CR1;
 8005f5e:	687b      	ldr	r3, [r7, #4]
 8005f60:	681b      	ldr	r3, [r3, #0]
 8005f62:	681b      	ldr	r3, [r3, #0]
 8005f64:	60fb      	str	r3, [r7, #12]

    /* Reset I2Cx DNF bits [11:8] */
    tmpreg &= ~(I2C_CR1_DNF);
 8005f66:	68fb      	ldr	r3, [r7, #12]
 8005f68:	f423 6370 	bic.w	r3, r3, #3840	@ 0xf00
 8005f6c:	60fb      	str	r3, [r7, #12]

    /* Set I2Cx DNF coefficient */
    tmpreg |= DigitalFilter << 8U;
 8005f6e:	683b      	ldr	r3, [r7, #0]
 8005f70:	021b      	lsls	r3, r3, #8
 8005f72:	68fa      	ldr	r2, [r7, #12]
 8005f74:	4313      	orrs	r3, r2
 8005f76:	60fb      	str	r3, [r7, #12]

    /* Store the new register value */
    hi2c->Instance->CR1 = tmpreg;
 8005f78:	687b      	ldr	r3, [r7, #4]
 8005f7a:	681b      	ldr	r3, [r3, #0]
 8005f7c:	68fa      	ldr	r2, [r7, #12]
 8005f7e:	601a      	str	r2, [r3, #0]

    __HAL_I2C_ENABLE(hi2c);
 8005f80:	687b      	ldr	r3, [r7, #4]
 8005f82:	681b      	ldr	r3, [r3, #0]
 8005f84:	681a      	ldr	r2, [r3, #0]
 8005f86:	687b      	ldr	r3, [r7, #4]
 8005f88:	681b      	ldr	r3, [r3, #0]
 8005f8a:	f042 0201 	orr.w	r2, r2, #1
 8005f8e:	601a      	str	r2, [r3, #0]

    hi2c->State = HAL_I2C_STATE_READY;
 8005f90:	687b      	ldr	r3, [r7, #4]
 8005f92:	2220      	movs	r2, #32
 8005f94:	f883 2041 	strb.w	r2, [r3, #65]	@ 0x41

    /* Process Unlocked */
    __HAL_UNLOCK(hi2c);
 8005f98:	687b      	ldr	r3, [r7, #4]
 8005f9a:	2200      	movs	r2, #0
 8005f9c:	f883 2040 	strb.w	r2, [r3, #64]	@ 0x40

    return HAL_OK;
 8005fa0:	2300      	movs	r3, #0
 8005fa2:	e000      	b.n	8005fa6 <HAL_I2CEx_ConfigDigitalFilter+0x8c>
  }
  else
  {
    return HAL_BUSY;
 8005fa4:	2302      	movs	r3, #2
  }
}
 8005fa6:	4618      	mov	r0, r3
 8005fa8:	3714      	adds	r7, #20
 8005faa:	46bd      	mov	sp, r7
 8005fac:	f85d 7b04 	ldr.w	r7, [sp], #4
 8005fb0:	4770      	bx	lr
	...

08005fb4 <HAL_PWREx_ControlVoltageScaling>:
  *        cleared before returning the status. If the flag is not cleared within
  *        50 microseconds, HAL_TIMEOUT status is reported.
  * @retval HAL Status
  */
HAL_StatusTypeDef HAL_PWREx_ControlVoltageScaling(uint32_t VoltageScaling)
{
 8005fb4:	b480      	push	{r7}
 8005fb6:	b085      	sub	sp, #20
 8005fb8:	af00      	add	r7, sp, #0
 8005fba:	6078      	str	r0, [r7, #4]
  uint32_t wait_loop_index;

  assert_param(IS_PWR_VOLTAGE_SCALING_RANGE(VoltageScaling));

  if (VoltageScaling == PWR_REGULATOR_VOLTAGE_SCALE1_BOOST)
 8005fbc:	687b      	ldr	r3, [r7, #4]
 8005fbe:	2b00      	cmp	r3, #0
 8005fc0:	d141      	bne.n	8006046 <HAL_PWREx_ControlVoltageScaling+0x92>
  {
    /* If current range is range 2 */
    if (READ_BIT(PWR->CR1, PWR_CR1_VOS) == PWR_REGULATOR_VOLTAGE_SCALE2)
 8005fc2:	4b4b      	ldr	r3, [pc, #300]	@ (80060f0 <HAL_PWREx_ControlVoltageScaling+0x13c>)
 8005fc4:	681b      	ldr	r3, [r3, #0]
 8005fc6:	f403 63c0 	and.w	r3, r3, #1536	@ 0x600
 8005fca:	f5b3 6f80 	cmp.w	r3, #1024	@ 0x400
 8005fce:	d131      	bne.n	8006034 <HAL_PWREx_ControlVoltageScaling+0x80>
    {
      /* Make sure Range 1 Boost is enabled */
      CLEAR_BIT(PWR->CR5, PWR_CR5_R1MODE);
 8005fd0:	4b47      	ldr	r3, [pc, #284]	@ (80060f0 <HAL_PWREx_ControlVoltageScaling+0x13c>)
 8005fd2:	f8d3 3080 	ldr.w	r3, [r3, #128]	@ 0x80
 8005fd6:	4a46      	ldr	r2, [pc, #280]	@ (80060f0 <HAL_PWREx_ControlVoltageScaling+0x13c>)
 8005fd8:	f423 7380 	bic.w	r3, r3, #256	@ 0x100
 8005fdc:	f8c2 3080 	str.w	r3, [r2, #128]	@ 0x80

      /* Set Range 1 */
      MODIFY_REG(PWR->CR1, PWR_CR1_VOS, PWR_REGULATOR_VOLTAGE_SCALE1);
 8005fe0:	4b43      	ldr	r3, [pc, #268]	@ (80060f0 <HAL_PWREx_ControlVoltageScaling+0x13c>)
 8005fe2:	681b      	ldr	r3, [r3, #0]
 8005fe4:	f423 63c0 	bic.w	r3, r3, #1536	@ 0x600
 8005fe8:	4a41      	ldr	r2, [pc, #260]	@ (80060f0 <HAL_PWREx_ControlVoltageScaling+0x13c>)
 8005fea:	f443 7300 	orr.w	r3, r3, #512	@ 0x200
 8005fee:	6013      	str	r3, [r2, #0]

      /* Wait until VOSF is cleared */
      wait_loop_index = ((PWR_FLAG_SETTING_DELAY_US * SystemCoreClock) / 1000000U) + 1U;
 8005ff0:	4b40      	ldr	r3, [pc, #256]	@ (80060f4 <HAL_PWREx_ControlVoltageScaling+0x140>)
 8005ff2:	681b      	ldr	r3, [r3, #0]
 8005ff4:	2232      	movs	r2, #50	@ 0x32
 8005ff6:	fb02 f303 	mul.w	r3, r2, r3
 8005ffa:	4a3f      	ldr	r2, [pc, #252]	@ (80060f8 <HAL_PWREx_ControlVoltageScaling+0x144>)
 8005ffc:	fba2 2303 	umull	r2, r3, r2, r3
 8006000:	0c9b      	lsrs	r3, r3, #18
 8006002:	3301      	adds	r3, #1
 8006004:	60fb      	str	r3, [r7, #12]
      while ((HAL_IS_BIT_SET(PWR->SR2, PWR_SR2_VOSF)) && (wait_loop_index != 0U))
 8006006:	e002      	b.n	800600e <HAL_PWREx_ControlVoltageScaling+0x5a>
      {
        wait_loop_index--;
 8006008:	68fb      	ldr	r3, [r7, #12]
 800600a:	3b01      	subs	r3, #1
 800600c:	60fb      	str	r3, [r7, #12]
      while ((HAL_IS_BIT_SET(PWR->SR2, PWR_SR2_VOSF)) && (wait_loop_index != 0U))
 800600e:	4b38      	ldr	r3, [pc, #224]	@ (80060f0 <HAL_PWREx_ControlVoltageScaling+0x13c>)
 8006010:	695b      	ldr	r3, [r3, #20]
 8006012:	f403 6380 	and.w	r3, r3, #1024	@ 0x400
 8006016:	f5b3 6f80 	cmp.w	r3, #1024	@ 0x400
 800601a:	d102      	bne.n	8006022 <HAL_PWREx_ControlVoltageScaling+0x6e>
 800601c:	68fb      	ldr	r3, [r7, #12]
 800601e:	2b00      	cmp	r3, #0
 8006020:	d1f2      	bne.n	8006008 <HAL_PWREx_ControlVoltageScaling+0x54>
      }
      if (HAL_IS_BIT_SET(PWR->SR2, PWR_SR2_VOSF))
 8006022:	4b33      	ldr	r3, [pc, #204]	@ (80060f0 <HAL_PWREx_ControlVoltageScaling+0x13c>)
 8006024:	695b      	ldr	r3, [r3, #20]
 8006026:	f403 6380 	and.w	r3, r3, #1024	@ 0x400
 800602a:	f5b3 6f80 	cmp.w	r3, #1024	@ 0x400
 800602e:	d158      	bne.n	80060e2 <HAL_PWREx_ControlVoltageScaling+0x12e>
      {
        return HAL_TIMEOUT;
 8006030:	2303      	movs	r3, #3
 8006032:	e057      	b.n	80060e4 <HAL_PWREx_ControlVoltageScaling+0x130>
    }
    /* If current range is range 1 normal or boost mode */
    else
    {
      /* Enable Range 1 Boost (no issue if bit already reset) */
      CLEAR_BIT(PWR->CR5, PWR_CR5_R1MODE);
 8006034:	4b2e      	ldr	r3, [pc, #184]	@ (80060f0 <HAL_PWREx_ControlVoltageScaling+0x13c>)
 8006036:	f8d3 3080 	ldr.w	r3, [r3, #128]	@ 0x80
 800603a:	4a2d      	ldr	r2, [pc, #180]	@ (80060f0 <HAL_PWREx_ControlVoltageScaling+0x13c>)
 800603c:	f423 7380 	bic.w	r3, r3, #256	@ 0x100
 8006040:	f8c2 3080 	str.w	r3, [r2, #128]	@ 0x80
 8006044:	e04d      	b.n	80060e2 <HAL_PWREx_ControlVoltageScaling+0x12e>
    }
  }
  else if (VoltageScaling == PWR_REGULATOR_VOLTAGE_SCALE1)
 8006046:	687b      	ldr	r3, [r7, #4]
 8006048:	f5b3 7f00 	cmp.w	r3, #512	@ 0x200
 800604c:	d141      	bne.n	80060d2 <HAL_PWREx_ControlVoltageScaling+0x11e>
  {
    /* If current range is range 2 */
    if (READ_BIT(PWR->CR1, PWR_CR1_VOS) == PWR_REGULATOR_VOLTAGE_SCALE2)
 800604e:	4b28      	ldr	r3, [pc, #160]	@ (80060f0 <HAL_PWREx_ControlVoltageScaling+0x13c>)
 8006050:	681b      	ldr	r3, [r3, #0]
 8006052:	f403 63c0 	and.w	r3, r3, #1536	@ 0x600
 8006056:	f5b3 6f80 	cmp.w	r3, #1024	@ 0x400
 800605a:	d131      	bne.n	80060c0 <HAL_PWREx_ControlVoltageScaling+0x10c>
    {
      /* Make sure Range 1 Boost is disabled */
      SET_BIT(PWR->CR5, PWR_CR5_R1MODE);
 800605c:	4b24      	ldr	r3, [pc, #144]	@ (80060f0 <HAL_PWREx_ControlVoltageScaling+0x13c>)
 800605e:	f8d3 3080 	ldr.w	r3, [r3, #128]	@ 0x80
 8006062:	4a23      	ldr	r2, [pc, #140]	@ (80060f0 <HAL_PWREx_ControlVoltageScaling+0x13c>)
 8006064:	f443 7380 	orr.w	r3, r3, #256	@ 0x100
 8006068:	f8c2 3080 	str.w	r3, [r2, #128]	@ 0x80

      /* Set Range 1 */
      MODIFY_REG(PWR->CR1, PWR_CR1_VOS, PWR_REGULATOR_VOLTAGE_SCALE1);
 800606c:	4b20      	ldr	r3, [pc, #128]	@ (80060f0 <HAL_PWREx_ControlVoltageScaling+0x13c>)
 800606e:	681b      	ldr	r3, [r3, #0]
 8006070:	f423 63c0 	bic.w	r3, r3, #1536	@ 0x600
 8006074:	4a1e      	ldr	r2, [pc, #120]	@ (80060f0 <HAL_PWREx_ControlVoltageScaling+0x13c>)
 8006076:	f443 7300 	orr.w	r3, r3, #512	@ 0x200
 800607a:	6013      	str	r3, [r2, #0]

      /* Wait until VOSF is cleared */
      wait_loop_index = ((PWR_FLAG_SETTING_DELAY_US * SystemCoreClock) / 1000000U) + 1U;
 800607c:	4b1d      	ldr	r3, [pc, #116]	@ (80060f4 <HAL_PWREx_ControlVoltageScaling+0x140>)
 800607e:	681b      	ldr	r3, [r3, #0]
 8006080:	2232      	movs	r2, #50	@ 0x32
 8006082:	fb02 f303 	mul.w	r3, r2, r3
 8006086:	4a1c      	ldr	r2, [pc, #112]	@ (80060f8 <HAL_PWREx_ControlVoltageScaling+0x144>)
 8006088:	fba2 2303 	umull	r2, r3, r2, r3
 800608c:	0c9b      	lsrs	r3, r3, #18
 800608e:	3301      	adds	r3, #1
 8006090:	60fb      	str	r3, [r7, #12]
      while ((HAL_IS_BIT_SET(PWR->SR2, PWR_SR2_VOSF)) && (wait_loop_index != 0U))
 8006092:	e002      	b.n	800609a <HAL_PWREx_ControlVoltageScaling+0xe6>
      {
        wait_loop_index--;
 8006094:	68fb      	ldr	r3, [r7, #12]
 8006096:	3b01      	subs	r3, #1
 8006098:	60fb      	str	r3, [r7, #12]
      while ((HAL_IS_BIT_SET(PWR->SR2, PWR_SR2_VOSF)) && (wait_loop_index != 0U))
 800609a:	4b15      	ldr	r3, [pc, #84]	@ (80060f0 <HAL_PWREx_ControlVoltageScaling+0x13c>)
 800609c:	695b      	ldr	r3, [r3, #20]
 800609e:	f403 6380 	and.w	r3, r3, #1024	@ 0x400
 80060a2:	f5b3 6f80 	cmp.w	r3, #1024	@ 0x400
 80060a6:	d102      	bne.n	80060ae <HAL_PWREx_ControlVoltageScaling+0xfa>
 80060a8:	68fb      	ldr	r3, [r7, #12]
 80060aa:	2b00      	cmp	r3, #0
 80060ac:	d1f2      	bne.n	8006094 <HAL_PWREx_ControlVoltageScaling+0xe0>
      }
      if (HAL_IS_BIT_SET(PWR->SR2, PWR_SR2_VOSF))
 80060ae:	4b10      	ldr	r3, [pc, #64]	@ (80060f0 <HAL_PWREx_ControlVoltageScaling+0x13c>)
 80060b0:	695b      	ldr	r3, [r3, #20]
 80060b2:	f403 6380 	and.w	r3, r3, #1024	@ 0x400
 80060b6:	f5b3 6f80 	cmp.w	r3, #1024	@ 0x400
 80060ba:	d112      	bne.n	80060e2 <HAL_PWREx_ControlVoltageScaling+0x12e>
      {
        return HAL_TIMEOUT;
 80060bc:	2303      	movs	r3, #3
 80060be:	e011      	b.n	80060e4 <HAL_PWREx_ControlVoltageScaling+0x130>
    }
     /* If current range is range 1 normal or boost mode */
    else
    {
      /* Disable Range 1 Boost (no issue if bit already set) */
      SET_BIT(PWR->CR5, PWR_CR5_R1MODE);
 80060c0:	4b0b      	ldr	r3, [pc, #44]	@ (80060f0 <HAL_PWREx_ControlVoltageScaling+0x13c>)
 80060c2:	f8d3 3080 	ldr.w	r3, [r3, #128]	@ 0x80
 80060c6:	4a0a      	ldr	r2, [pc, #40]	@ (80060f0 <HAL_PWREx_ControlVoltageScaling+0x13c>)
 80060c8:	f443 7380 	orr.w	r3, r3, #256	@ 0x100
 80060cc:	f8c2 3080 	str.w	r3, [r2, #128]	@ 0x80
 80060d0:	e007      	b.n	80060e2 <HAL_PWREx_ControlVoltageScaling+0x12e>
    }
  }
  else
  {
    /* Set Range 2 */
    MODIFY_REG(PWR->CR1, PWR_CR1_VOS, PWR_REGULATOR_VOLTAGE_SCALE2);
 80060d2:	4b07      	ldr	r3, [pc, #28]	@ (80060f0 <HAL_PWREx_ControlVoltageScaling+0x13c>)
 80060d4:	681b      	ldr	r3, [r3, #0]
 80060d6:	f423 63c0 	bic.w	r3, r3, #1536	@ 0x600
 80060da:	4a05      	ldr	r2, [pc, #20]	@ (80060f0 <HAL_PWREx_ControlVoltageScaling+0x13c>)
 80060dc:	f443 6380 	orr.w	r3, r3, #1024	@ 0x400
 80060e0:	6013      	str	r3, [r2, #0]
    /* No need to wait for VOSF to be cleared for this transition */
    /* PWR_CR5_R1MODE bit setting has no effect in Range 2        */
  }

  return HAL_OK;
 80060e2:	2300      	movs	r3, #0
}
 80060e4:	4618      	mov	r0, r3
 80060e6:	3714      	adds	r7, #20
 80060e8:	46bd      	mov	sp, r7
 80060ea:	f85d 7b04 	ldr.w	r7, [sp], #4
 80060ee:	4770      	bx	lr
 80060f0:	40007000 	.word	0x40007000
 80060f4:	20000004 	.word	0x20000004
 80060f8:	431bde83 	.word	0x431bde83

080060fc <HAL_PWREx_DisableUCPDDeadBattery>:
  *       or to hand over control to the UCPD (which should therefore be
  *       initialized before doing the disable).
  * @retval None
  */
void HAL_PWREx_DisableUCPDDeadBattery(void)
{
 80060fc:	b480      	push	{r7}
 80060fe:	af00      	add	r7, sp, #0
  /* Write 1 to disable the USB Type-C dead battery pull-down behavior */
  SET_BIT(PWR->CR3, PWR_CR3_UCPD_DBDIS);
 8006100:	4b05      	ldr	r3, [pc, #20]	@ (8006118 <HAL_PWREx_DisableUCPDDeadBattery+0x1c>)
 8006102:	689b      	ldr	r3, [r3, #8]
 8006104:	4a04      	ldr	r2, [pc, #16]	@ (8006118 <HAL_PWREx_DisableUCPDDeadBattery+0x1c>)
 8006106:	f443 4380 	orr.w	r3, r3, #16384	@ 0x4000
 800610a:	6093      	str	r3, [r2, #8]
}
 800610c:	bf00      	nop
 800610e:	46bd      	mov	sp, r7
 8006110:	f85d 7b04 	ldr.w	r7, [sp], #4
 8006114:	4770      	bx	lr
 8006116:	bf00      	nop
 8006118:	40007000 	.word	0x40007000

0800611c <HAL_RCC_OscConfig>:
  *         supported by this macro. User should request a transition to HSE Off
  *         first and then HSE On or HSE Bypass.
  * @retval HAL status
  */
HAL_StatusTypeDef HAL_RCC_OscConfig(const RCC_OscInitTypeDef  *RCC_OscInitStruct)
{
 800611c:	b580      	push	{r7, lr}
 800611e:	b088      	sub	sp, #32
 8006120:	af00      	add	r7, sp, #0
 8006122:	6078      	str	r0, [r7, #4]
  uint32_t tickstart;
  uint32_t temp_sysclksrc;
  uint32_t temp_pllckcfg;

  /* Check Null pointer */
  if (RCC_OscInitStruct == NULL)
 8006124:	687b      	ldr	r3, [r7, #4]
 8006126:	2b00      	cmp	r3, #0
 8006128:	d101      	bne.n	800612e <HAL_RCC_OscConfig+0x12>
  {
    return HAL_ERROR;
 800612a:	2301      	movs	r3, #1
 800612c:	e2fe      	b.n	800672c <HAL_RCC_OscConfig+0x610>

  /* Check the parameters */
  assert_param(IS_RCC_OSCILLATORTYPE(RCC_OscInitStruct->OscillatorType));

  /*------------------------------- HSE Configuration ------------------------*/
  if (((RCC_OscInitStruct->OscillatorType) & RCC_OSCILLATORTYPE_HSE) == RCC_OSCILLATORTYPE_HSE)
 800612e:	687b      	ldr	r3, [r7, #4]
 8006130:	681b      	ldr	r3, [r3, #0]
 8006132:	f003 0301 	and.w	r3, r3, #1
 8006136:	2b00      	cmp	r3, #0
 8006138:	d075      	beq.n	8006226 <HAL_RCC_OscConfig+0x10a>
  {
    /* Check the parameters */
    assert_param(IS_RCC_HSE(RCC_OscInitStruct->HSEState));

    temp_sysclksrc = __HAL_RCC_GET_SYSCLK_SOURCE();
 800613a:	4b97      	ldr	r3, [pc, #604]	@ (8006398 <HAL_RCC_OscConfig+0x27c>)
 800613c:	689b      	ldr	r3, [r3, #8]
 800613e:	f003 030c 	and.w	r3, r3, #12
 8006142:	61bb      	str	r3, [r7, #24]
    temp_pllckcfg = __HAL_RCC_GET_PLL_OSCSOURCE();
 8006144:	4b94      	ldr	r3, [pc, #592]	@ (8006398 <HAL_RCC_OscConfig+0x27c>)
 8006146:	68db      	ldr	r3, [r3, #12]
 8006148:	f003 0303 	and.w	r3, r3, #3
 800614c:	617b      	str	r3, [r7, #20]

    /* When the HSE is used as system clock or clock source for PLL in these cases it is not allowed to be disabled */
    if (((temp_sysclksrc == RCC_CFGR_SWS_PLL) && (temp_pllckcfg == RCC_PLLSOURCE_HSE)) || (temp_sysclksrc == RCC_CFGR_SWS_HSE))
 800614e:	69bb      	ldr	r3, [r7, #24]
 8006150:	2b0c      	cmp	r3, #12
 8006152:	d102      	bne.n	800615a <HAL_RCC_OscConfig+0x3e>
 8006154:	697b      	ldr	r3, [r7, #20]
 8006156:	2b03      	cmp	r3, #3
 8006158:	d002      	beq.n	8006160 <HAL_RCC_OscConfig+0x44>
 800615a:	69bb      	ldr	r3, [r7, #24]
 800615c:	2b08      	cmp	r3, #8
 800615e:	d10b      	bne.n	8006178 <HAL_RCC_OscConfig+0x5c>
    {
      if ((READ_BIT(RCC->CR, RCC_CR_HSERDY) != 0U) && (RCC_OscInitStruct->HSEState == RCC_HSE_OFF))
 8006160:	4b8d      	ldr	r3, [pc, #564]	@ (8006398 <HAL_RCC_OscConfig+0x27c>)
 8006162:	681b      	ldr	r3, [r3, #0]
 8006164:	f403 3300 	and.w	r3, r3, #131072	@ 0x20000
 8006168:	2b00      	cmp	r3, #0
 800616a:	d05b      	beq.n	8006224 <HAL_RCC_OscConfig+0x108>
 800616c:	687b      	ldr	r3, [r7, #4]
 800616e:	685b      	ldr	r3, [r3, #4]
 8006170:	2b00      	cmp	r3, #0
 8006172:	d157      	bne.n	8006224 <HAL_RCC_OscConfig+0x108>
      {
        return HAL_ERROR;
 8006174:	2301      	movs	r3, #1
 8006176:	e2d9      	b.n	800672c <HAL_RCC_OscConfig+0x610>
      }
    }
    else
    {
      /* Set the new HSE configuration ---------------------------------------*/
      __HAL_RCC_HSE_CONFIG(RCC_OscInitStruct->HSEState);
 8006178:	687b      	ldr	r3, [r7, #4]
 800617a:	685b      	ldr	r3, [r3, #4]
 800617c:	f5b3 3f80 	cmp.w	r3, #65536	@ 0x10000
 8006180:	d106      	bne.n	8006190 <HAL_RCC_OscConfig+0x74>
 8006182:	4b85      	ldr	r3, [pc, #532]	@ (8006398 <HAL_RCC_OscConfig+0x27c>)
 8006184:	681b      	ldr	r3, [r3, #0]
 8006186:	4a84      	ldr	r2, [pc, #528]	@ (8006398 <HAL_RCC_OscConfig+0x27c>)
 8006188:	f443 3380 	orr.w	r3, r3, #65536	@ 0x10000
 800618c:	6013      	str	r3, [r2, #0]
 800618e:	e01d      	b.n	80061cc <HAL_RCC_OscConfig+0xb0>
 8006190:	687b      	ldr	r3, [r7, #4]
 8006192:	685b      	ldr	r3, [r3, #4]
 8006194:	f5b3 2fa0 	cmp.w	r3, #327680	@ 0x50000
 8006198:	d10c      	bne.n	80061b4 <HAL_RCC_OscConfig+0x98>
 800619a:	4b7f      	ldr	r3, [pc, #508]	@ (8006398 <HAL_RCC_OscConfig+0x27c>)
 800619c:	681b      	ldr	r3, [r3, #0]
 800619e:	4a7e      	ldr	r2, [pc, #504]	@ (8006398 <HAL_RCC_OscConfig+0x27c>)
 80061a0:	f443 2380 	orr.w	r3, r3, #262144	@ 0x40000
 80061a4:	6013      	str	r3, [r2, #0]
 80061a6:	4b7c      	ldr	r3, [pc, #496]	@ (8006398 <HAL_RCC_OscConfig+0x27c>)
 80061a8:	681b      	ldr	r3, [r3, #0]
 80061aa:	4a7b      	ldr	r2, [pc, #492]	@ (8006398 <HAL_RCC_OscConfig+0x27c>)
 80061ac:	f443 3380 	orr.w	r3, r3, #65536	@ 0x10000
 80061b0:	6013      	str	r3, [r2, #0]
 80061b2:	e00b      	b.n	80061cc <HAL_RCC_OscConfig+0xb0>
 80061b4:	4b78      	ldr	r3, [pc, #480]	@ (8006398 <HAL_RCC_OscConfig+0x27c>)
 80061b6:	681b      	ldr	r3, [r3, #0]
 80061b8:	4a77      	ldr	r2, [pc, #476]	@ (8006398 <HAL_RCC_OscConfig+0x27c>)
 80061ba:	f423 3380 	bic.w	r3, r3, #65536	@ 0x10000
 80061be:	6013      	str	r3, [r2, #0]
 80061c0:	4b75      	ldr	r3, [pc, #468]	@ (8006398 <HAL_RCC_OscConfig+0x27c>)
 80061c2:	681b      	ldr	r3, [r3, #0]
 80061c4:	4a74      	ldr	r2, [pc, #464]	@ (8006398 <HAL_RCC_OscConfig+0x27c>)
 80061c6:	f423 2380 	bic.w	r3, r3, #262144	@ 0x40000
 80061ca:	6013      	str	r3, [r2, #0]

      /* Check the HSE State */
      if (RCC_OscInitStruct->HSEState != RCC_HSE_OFF)
 80061cc:	687b      	ldr	r3, [r7, #4]
 80061ce:	685b      	ldr	r3, [r3, #4]
 80061d0:	2b00      	cmp	r3, #0
 80061d2:	d013      	beq.n	80061fc <HAL_RCC_OscConfig+0xe0>
      {
        /* Get Start Tick*/
        tickstart = HAL_GetTick();
 80061d4:	f7fd f9bc 	bl	8003550 <HAL_GetTick>
 80061d8:	6138      	str	r0, [r7, #16]

        /* Wait till HSE is ready */
        while (READ_BIT(RCC->CR, RCC_CR_HSERDY) == 0U)
 80061da:	e008      	b.n	80061ee <HAL_RCC_OscConfig+0xd2>
        {
          if ((HAL_GetTick() - tickstart) > HSE_TIMEOUT_VALUE)
 80061dc:	f7fd f9b8 	bl	8003550 <HAL_GetTick>
 80061e0:	4602      	mov	r2, r0
 80061e2:	693b      	ldr	r3, [r7, #16]
 80061e4:	1ad3      	subs	r3, r2, r3
 80061e6:	2b64      	cmp	r3, #100	@ 0x64
 80061e8:	d901      	bls.n	80061ee <HAL_RCC_OscConfig+0xd2>
          {
            return HAL_TIMEOUT;
 80061ea:	2303      	movs	r3, #3
 80061ec:	e29e      	b.n	800672c <HAL_RCC_OscConfig+0x610>
        while (READ_BIT(RCC->CR, RCC_CR_HSERDY) == 0U)
 80061ee:	4b6a      	ldr	r3, [pc, #424]	@ (8006398 <HAL_RCC_OscConfig+0x27c>)
 80061f0:	681b      	ldr	r3, [r3, #0]
 80061f2:	f403 3300 	and.w	r3, r3, #131072	@ 0x20000
 80061f6:	2b00      	cmp	r3, #0
 80061f8:	d0f0      	beq.n	80061dc <HAL_RCC_OscConfig+0xc0>
 80061fa:	e014      	b.n	8006226 <HAL_RCC_OscConfig+0x10a>
        }
      }
      else
      {
        /* Get Start Tick*/
        tickstart = HAL_GetTick();
 80061fc:	f7fd f9a8 	bl	8003550 <HAL_GetTick>
 8006200:	6138      	str	r0, [r7, #16]

        /* Wait till HSE is disabled */
        while (READ_BIT(RCC->CR, RCC_CR_HSERDY) != 0U)
 8006202:	e008      	b.n	8006216 <HAL_RCC_OscConfig+0xfa>
        {
          if ((HAL_GetTick() - tickstart) > HSE_TIMEOUT_VALUE)
 8006204:	f7fd f9a4 	bl	8003550 <HAL_GetTick>
 8006208:	4602      	mov	r2, r0
 800620a:	693b      	ldr	r3, [r7, #16]
 800620c:	1ad3      	subs	r3, r2, r3
 800620e:	2b64      	cmp	r3, #100	@ 0x64
 8006210:	d901      	bls.n	8006216 <HAL_RCC_OscConfig+0xfa>
          {
            return HAL_TIMEOUT;
 8006212:	2303      	movs	r3, #3
 8006214:	e28a      	b.n	800672c <HAL_RCC_OscConfig+0x610>
        while (READ_BIT(RCC->CR, RCC_CR_HSERDY) != 0U)
 8006216:	4b60      	ldr	r3, [pc, #384]	@ (8006398 <HAL_RCC_OscConfig+0x27c>)
 8006218:	681b      	ldr	r3, [r3, #0]
 800621a:	f403 3300 	and.w	r3, r3, #131072	@ 0x20000
 800621e:	2b00      	cmp	r3, #0
 8006220:	d1f0      	bne.n	8006204 <HAL_RCC_OscConfig+0xe8>
 8006222:	e000      	b.n	8006226 <HAL_RCC_OscConfig+0x10a>
      if ((READ_BIT(RCC->CR, RCC_CR_HSERDY) != 0U) && (RCC_OscInitStruct->HSEState == RCC_HSE_OFF))
 8006224:	bf00      	nop
        }
      }
    }
  }
  /*----------------------------- HSI Configuration --------------------------*/
  if (((RCC_OscInitStruct->OscillatorType) & RCC_OSCILLATORTYPE_HSI) == RCC_OSCILLATORTYPE_HSI)
 8006226:	687b      	ldr	r3, [r7, #4]
 8006228:	681b      	ldr	r3, [r3, #0]
 800622a:	f003 0302 	and.w	r3, r3, #2
 800622e:	2b00      	cmp	r3, #0
 8006230:	d075      	beq.n	800631e <HAL_RCC_OscConfig+0x202>
    /* Check the parameters */
    assert_param(IS_RCC_HSI(RCC_OscInitStruct->HSIState));
    assert_param(IS_RCC_HSI_CALIBRATION_VALUE(RCC_OscInitStruct->HSICalibrationValue));

    /* Check if HSI is used as system clock or as PLL source when PLL is selected as system clock */
    temp_sysclksrc = __HAL_RCC_GET_SYSCLK_SOURCE();
 8006232:	4b59      	ldr	r3, [pc, #356]	@ (8006398 <HAL_RCC_OscConfig+0x27c>)
 8006234:	689b      	ldr	r3, [r3, #8]
 8006236:	f003 030c 	and.w	r3, r3, #12
 800623a:	61bb      	str	r3, [r7, #24]
    temp_pllckcfg = __HAL_RCC_GET_PLL_OSCSOURCE();
 800623c:	4b56      	ldr	r3, [pc, #344]	@ (8006398 <HAL_RCC_OscConfig+0x27c>)
 800623e:	68db      	ldr	r3, [r3, #12]
 8006240:	f003 0303 	and.w	r3, r3, #3
 8006244:	617b      	str	r3, [r7, #20]
    if (((temp_sysclksrc == RCC_CFGR_SWS_PLL) && (temp_pllckcfg == RCC_PLLSOURCE_HSI)) || (temp_sysclksrc == RCC_CFGR_SWS_HSI))
 8006246:	69bb      	ldr	r3, [r7, #24]
 8006248:	2b0c      	cmp	r3, #12
 800624a:	d102      	bne.n	8006252 <HAL_RCC_OscConfig+0x136>
 800624c:	697b      	ldr	r3, [r7, #20]
 800624e:	2b02      	cmp	r3, #2
 8006250:	d002      	beq.n	8006258 <HAL_RCC_OscConfig+0x13c>
 8006252:	69bb      	ldr	r3, [r7, #24]
 8006254:	2b04      	cmp	r3, #4
 8006256:	d11f      	bne.n	8006298 <HAL_RCC_OscConfig+0x17c>
    {
      /* When HSI is used as system clock it will not be disabled */
      if ((READ_BIT(RCC->CR, RCC_CR_HSIRDY) != 0U) && (RCC_OscInitStruct->HSIState == RCC_HSI_OFF))
 8006258:	4b4f      	ldr	r3, [pc, #316]	@ (8006398 <HAL_RCC_OscConfig+0x27c>)
 800625a:	681b      	ldr	r3, [r3, #0]
 800625c:	f403 6380 	and.w	r3, r3, #1024	@ 0x400
 8006260:	2b00      	cmp	r3, #0
 8006262:	d005      	beq.n	8006270 <HAL_RCC_OscConfig+0x154>
 8006264:	687b      	ldr	r3, [r7, #4]
 8006266:	68db      	ldr	r3, [r3, #12]
 8006268:	2b00      	cmp	r3, #0
 800626a:	d101      	bne.n	8006270 <HAL_RCC_OscConfig+0x154>
      {
        return HAL_ERROR;
 800626c:	2301      	movs	r3, #1
 800626e:	e25d      	b.n	800672c <HAL_RCC_OscConfig+0x610>
      }
      /* Otherwise, just the calibration is allowed */
      else
      {
        /* Adjusts the Internal High Speed oscillator (HSI) calibration value.*/
        __HAL_RCC_HSI_CALIBRATIONVALUE_ADJUST(RCC_OscInitStruct->HSICalibrationValue);
 8006270:	4b49      	ldr	r3, [pc, #292]	@ (8006398 <HAL_RCC_OscConfig+0x27c>)
 8006272:	685b      	ldr	r3, [r3, #4]
 8006274:	f023 42fe 	bic.w	r2, r3, #2130706432	@ 0x7f000000
 8006278:	687b      	ldr	r3, [r7, #4]
 800627a:	691b      	ldr	r3, [r3, #16]
 800627c:	061b      	lsls	r3, r3, #24
 800627e:	4946      	ldr	r1, [pc, #280]	@ (8006398 <HAL_RCC_OscConfig+0x27c>)
 8006280:	4313      	orrs	r3, r2
 8006282:	604b      	str	r3, [r1, #4]

        /* Adapt Systick interrupt period */
        if (HAL_InitTick(uwTickPrio) != HAL_OK)
 8006284:	4b45      	ldr	r3, [pc, #276]	@ (800639c <HAL_RCC_OscConfig+0x280>)
 8006286:	681b      	ldr	r3, [r3, #0]
 8006288:	4618      	mov	r0, r3
 800628a:	f7fd f915 	bl	80034b8 <HAL_InitTick>
 800628e:	4603      	mov	r3, r0
 8006290:	2b00      	cmp	r3, #0
 8006292:	d043      	beq.n	800631c <HAL_RCC_OscConfig+0x200>
        {
          return HAL_ERROR;
 8006294:	2301      	movs	r3, #1
 8006296:	e249      	b.n	800672c <HAL_RCC_OscConfig+0x610>
      }
    }
    else
    {
      /* Check the HSI State */
      if (RCC_OscInitStruct->HSIState != RCC_HSI_OFF)
 8006298:	687b      	ldr	r3, [r7, #4]
 800629a:	68db      	ldr	r3, [r3, #12]
 800629c:	2b00      	cmp	r3, #0
 800629e:	d023      	beq.n	80062e8 <HAL_RCC_OscConfig+0x1cc>
      {
        /* Enable the Internal High Speed oscillator (HSI). */
        __HAL_RCC_HSI_ENABLE();
 80062a0:	4b3d      	ldr	r3, [pc, #244]	@ (8006398 <HAL_RCC_OscConfig+0x27c>)
 80062a2:	681b      	ldr	r3, [r3, #0]
 80062a4:	4a3c      	ldr	r2, [pc, #240]	@ (8006398 <HAL_RCC_OscConfig+0x27c>)
 80062a6:	f443 7380 	orr.w	r3, r3, #256	@ 0x100
 80062aa:	6013      	str	r3, [r2, #0]

        /* Get Start Tick*/
        tickstart = HAL_GetTick();
 80062ac:	f7fd f950 	bl	8003550 <HAL_GetTick>
 80062b0:	6138      	str	r0, [r7, #16]

        /* Wait till HSI is ready */
        while (READ_BIT(RCC->CR, RCC_CR_HSIRDY) == 0U)
 80062b2:	e008      	b.n	80062c6 <HAL_RCC_OscConfig+0x1aa>
        {
          if ((HAL_GetTick() - tickstart) > HSI_TIMEOUT_VALUE)
 80062b4:	f7fd f94c 	bl	8003550 <HAL_GetTick>
 80062b8:	4602      	mov	r2, r0
 80062ba:	693b      	ldr	r3, [r7, #16]
 80062bc:	1ad3      	subs	r3, r2, r3
 80062be:	2b02      	cmp	r3, #2
 80062c0:	d901      	bls.n	80062c6 <HAL_RCC_OscConfig+0x1aa>
          {
            return HAL_TIMEOUT;
 80062c2:	2303      	movs	r3, #3
 80062c4:	e232      	b.n	800672c <HAL_RCC_OscConfig+0x610>
        while (READ_BIT(RCC->CR, RCC_CR_HSIRDY) == 0U)
 80062c6:	4b34      	ldr	r3, [pc, #208]	@ (8006398 <HAL_RCC_OscConfig+0x27c>)
 80062c8:	681b      	ldr	r3, [r3, #0]
 80062ca:	f403 6380 	and.w	r3, r3, #1024	@ 0x400
 80062ce:	2b00      	cmp	r3, #0
 80062d0:	d0f0      	beq.n	80062b4 <HAL_RCC_OscConfig+0x198>
          }
        }

        /* Adjusts the Internal High Speed oscillator (HSI) calibration value.*/
        __HAL_RCC_HSI_CALIBRATIONVALUE_ADJUST(RCC_OscInitStruct->HSICalibrationValue);
 80062d2:	4b31      	ldr	r3, [pc, #196]	@ (8006398 <HAL_RCC_OscConfig+0x27c>)
 80062d4:	685b      	ldr	r3, [r3, #4]
 80062d6:	f023 42fe 	bic.w	r2, r3, #2130706432	@ 0x7f000000
 80062da:	687b      	ldr	r3, [r7, #4]
 80062dc:	691b      	ldr	r3, [r3, #16]
 80062de:	061b      	lsls	r3, r3, #24
 80062e0:	492d      	ldr	r1, [pc, #180]	@ (8006398 <HAL_RCC_OscConfig+0x27c>)
 80062e2:	4313      	orrs	r3, r2
 80062e4:	604b      	str	r3, [r1, #4]
 80062e6:	e01a      	b.n	800631e <HAL_RCC_OscConfig+0x202>
      }
      else
      {
        /* Disable the Internal High Speed oscillator (HSI). */
        __HAL_RCC_HSI_DISABLE();
 80062e8:	4b2b      	ldr	r3, [pc, #172]	@ (8006398 <HAL_RCC_OscConfig+0x27c>)
 80062ea:	681b      	ldr	r3, [r3, #0]
 80062ec:	4a2a      	ldr	r2, [pc, #168]	@ (8006398 <HAL_RCC_OscConfig+0x27c>)
 80062ee:	f423 7380 	bic.w	r3, r3, #256	@ 0x100
 80062f2:	6013      	str	r3, [r2, #0]

        /* Get Start Tick*/
        tickstart = HAL_GetTick();
 80062f4:	f7fd f92c 	bl	8003550 <HAL_GetTick>
 80062f8:	6138      	str	r0, [r7, #16]

        /* Wait till HSI is disabled */
        while (READ_BIT(RCC->CR, RCC_CR_HSIRDY) != 0U)
 80062fa:	e008      	b.n	800630e <HAL_RCC_OscConfig+0x1f2>
        {
          if ((HAL_GetTick() - tickstart) > HSI_TIMEOUT_VALUE)
 80062fc:	f7fd f928 	bl	8003550 <HAL_GetTick>
 8006300:	4602      	mov	r2, r0
 8006302:	693b      	ldr	r3, [r7, #16]
 8006304:	1ad3      	subs	r3, r2, r3
 8006306:	2b02      	cmp	r3, #2
 8006308:	d901      	bls.n	800630e <HAL_RCC_OscConfig+0x1f2>
          {
            return HAL_TIMEOUT;
 800630a:	2303      	movs	r3, #3
 800630c:	e20e      	b.n	800672c <HAL_RCC_OscConfig+0x610>
        while (READ_BIT(RCC->CR, RCC_CR_HSIRDY) != 0U)
 800630e:	4b22      	ldr	r3, [pc, #136]	@ (8006398 <HAL_RCC_OscConfig+0x27c>)
 8006310:	681b      	ldr	r3, [r3, #0]
 8006312:	f403 6380 	and.w	r3, r3, #1024	@ 0x400
 8006316:	2b00      	cmp	r3, #0
 8006318:	d1f0      	bne.n	80062fc <HAL_RCC_OscConfig+0x1e0>
 800631a:	e000      	b.n	800631e <HAL_RCC_OscConfig+0x202>
      if ((READ_BIT(RCC->CR, RCC_CR_HSIRDY) != 0U) && (RCC_OscInitStruct->HSIState == RCC_HSI_OFF))
 800631c:	bf00      	nop
        }
      }
    }
  }
  /*------------------------------ LSI Configuration -------------------------*/
  if (((RCC_OscInitStruct->OscillatorType) & RCC_OSCILLATORTYPE_LSI) == RCC_OSCILLATORTYPE_LSI)
 800631e:	687b      	ldr	r3, [r7, #4]
 8006320:	681b      	ldr	r3, [r3, #0]
 8006322:	f003 0308 	and.w	r3, r3, #8
 8006326:	2b00      	cmp	r3, #0
 8006328:	d041      	beq.n	80063ae <HAL_RCC_OscConfig+0x292>
  {
    /* Check the parameters */
    assert_param(IS_RCC_LSI(RCC_OscInitStruct->LSIState));

    /* Check the LSI State */
    if(RCC_OscInitStruct->LSIState != RCC_LSI_OFF)
 800632a:	687b      	ldr	r3, [r7, #4]
 800632c:	695b      	ldr	r3, [r3, #20]
 800632e:	2b00      	cmp	r3, #0
 8006330:	d01c      	beq.n	800636c <HAL_RCC_OscConfig+0x250>
    {
      /* Enable the Internal Low Speed oscillator (LSI). */
      __HAL_RCC_LSI_ENABLE();
 8006332:	4b19      	ldr	r3, [pc, #100]	@ (8006398 <HAL_RCC_OscConfig+0x27c>)
 8006334:	f8d3 3094 	ldr.w	r3, [r3, #148]	@ 0x94
 8006338:	4a17      	ldr	r2, [pc, #92]	@ (8006398 <HAL_RCC_OscConfig+0x27c>)
 800633a:	f043 0301 	orr.w	r3, r3, #1
 800633e:	f8c2 3094 	str.w	r3, [r2, #148]	@ 0x94

      /* Get Start Tick*/
      tickstart = HAL_GetTick();
 8006342:	f7fd f905 	bl	8003550 <HAL_GetTick>
 8006346:	6138      	str	r0, [r7, #16]

      /* Wait till LSI is ready */
      while (READ_BIT(RCC->CSR, RCC_CSR_LSIRDY) == 0U)
 8006348:	e008      	b.n	800635c <HAL_RCC_OscConfig+0x240>
      {
        if ((HAL_GetTick() - tickstart) > LSI_TIMEOUT_VALUE)
 800634a:	f7fd f901 	bl	8003550 <HAL_GetTick>
 800634e:	4602      	mov	r2, r0
 8006350:	693b      	ldr	r3, [r7, #16]
 8006352:	1ad3      	subs	r3, r2, r3
 8006354:	2b02      	cmp	r3, #2
 8006356:	d901      	bls.n	800635c <HAL_RCC_OscConfig+0x240>
        {
          return HAL_TIMEOUT;
 8006358:	2303      	movs	r3, #3
 800635a:	e1e7      	b.n	800672c <HAL_RCC_OscConfig+0x610>
      while (READ_BIT(RCC->CSR, RCC_CSR_LSIRDY) == 0U)
 800635c:	4b0e      	ldr	r3, [pc, #56]	@ (8006398 <HAL_RCC_OscConfig+0x27c>)
 800635e:	f8d3 3094 	ldr.w	r3, [r3, #148]	@ 0x94
 8006362:	f003 0302 	and.w	r3, r3, #2
 8006366:	2b00      	cmp	r3, #0
 8006368:	d0ef      	beq.n	800634a <HAL_RCC_OscConfig+0x22e>
 800636a:	e020      	b.n	80063ae <HAL_RCC_OscConfig+0x292>
      }
    }
    else
    {
      /* Disable the Internal Low Speed oscillator (LSI). */
      __HAL_RCC_LSI_DISABLE();
 800636c:	4b0a      	ldr	r3, [pc, #40]	@ (8006398 <HAL_RCC_OscConfig+0x27c>)
 800636e:	f8d3 3094 	ldr.w	r3, [r3, #148]	@ 0x94
 8006372:	4a09      	ldr	r2, [pc, #36]	@ (8006398 <HAL_RCC_OscConfig+0x27c>)
 8006374:	f023 0301 	bic.w	r3, r3, #1
 8006378:	f8c2 3094 	str.w	r3, [r2, #148]	@ 0x94

      /* Get Start Tick*/
      tickstart = HAL_GetTick();
 800637c:	f7fd f8e8 	bl	8003550 <HAL_GetTick>
 8006380:	6138      	str	r0, [r7, #16]

      /* Wait till LSI is disabled */
      while(READ_BIT(RCC->CSR, RCC_CSR_LSIRDY) != 0U)
 8006382:	e00d      	b.n	80063a0 <HAL_RCC_OscConfig+0x284>
      {
        if((HAL_GetTick() - tickstart) > LSI_TIMEOUT_VALUE)
 8006384:	f7fd f8e4 	bl	8003550 <HAL_GetTick>
 8006388:	4602      	mov	r2, r0
 800638a:	693b      	ldr	r3, [r7, #16]
 800638c:	1ad3      	subs	r3, r2, r3
 800638e:	2b02      	cmp	r3, #2
 8006390:	d906      	bls.n	80063a0 <HAL_RCC_OscConfig+0x284>
        {
          return HAL_TIMEOUT;
 8006392:	2303      	movs	r3, #3
 8006394:	e1ca      	b.n	800672c <HAL_RCC_OscConfig+0x610>
 8006396:	bf00      	nop
 8006398:	40021000 	.word	0x40021000
 800639c:	20000008 	.word	0x20000008
      while(READ_BIT(RCC->CSR, RCC_CSR_LSIRDY) != 0U)
 80063a0:	4b8c      	ldr	r3, [pc, #560]	@ (80065d4 <HAL_RCC_OscConfig+0x4b8>)
 80063a2:	f8d3 3094 	ldr.w	r3, [r3, #148]	@ 0x94
 80063a6:	f003 0302 	and.w	r3, r3, #2
 80063aa:	2b00      	cmp	r3, #0
 80063ac:	d1ea      	bne.n	8006384 <HAL_RCC_OscConfig+0x268>
        }
      }
    }
  }
  /*------------------------------ LSE Configuration -------------------------*/
  if (((RCC_OscInitStruct->OscillatorType) & RCC_OSCILLATORTYPE_LSE) == RCC_OSCILLATORTYPE_LSE)
 80063ae:	687b      	ldr	r3, [r7, #4]
 80063b0:	681b      	ldr	r3, [r3, #0]
 80063b2:	f003 0304 	and.w	r3, r3, #4
 80063b6:	2b00      	cmp	r3, #0
 80063b8:	f000 80a6 	beq.w	8006508 <HAL_RCC_OscConfig+0x3ec>
  {
    FlagStatus       pwrclkchanged = RESET;
 80063bc:	2300      	movs	r3, #0
 80063be:	77fb      	strb	r3, [r7, #31]
    /* Check the parameters */
    assert_param(IS_RCC_LSE(RCC_OscInitStruct->LSEState));

    /* Update LSE configuration in Backup Domain control register    */
    /* Requires to enable write access to Backup Domain if necessary */
    if (__HAL_RCC_PWR_IS_CLK_DISABLED() != 0U)
 80063c0:	4b84      	ldr	r3, [pc, #528]	@ (80065d4 <HAL_RCC_OscConfig+0x4b8>)
 80063c2:	6d9b      	ldr	r3, [r3, #88]	@ 0x58
 80063c4:	f003 5380 	and.w	r3, r3, #268435456	@ 0x10000000
 80063c8:	2b00      	cmp	r3, #0
 80063ca:	d101      	bne.n	80063d0 <HAL_RCC_OscConfig+0x2b4>
 80063cc:	2301      	movs	r3, #1
 80063ce:	e000      	b.n	80063d2 <HAL_RCC_OscConfig+0x2b6>
 80063d0:	2300      	movs	r3, #0
 80063d2:	2b00      	cmp	r3, #0
 80063d4:	d00d      	beq.n	80063f2 <HAL_RCC_OscConfig+0x2d6>
    {
      __HAL_RCC_PWR_CLK_ENABLE();
 80063d6:	4b7f      	ldr	r3, [pc, #508]	@ (80065d4 <HAL_RCC_OscConfig+0x4b8>)
 80063d8:	6d9b      	ldr	r3, [r3, #88]	@ 0x58
 80063da:	4a7e      	ldr	r2, [pc, #504]	@ (80065d4 <HAL_RCC_OscConfig+0x4b8>)
 80063dc:	f043 5380 	orr.w	r3, r3, #268435456	@ 0x10000000
 80063e0:	6593      	str	r3, [r2, #88]	@ 0x58
 80063e2:	4b7c      	ldr	r3, [pc, #496]	@ (80065d4 <HAL_RCC_OscConfig+0x4b8>)
 80063e4:	6d9b      	ldr	r3, [r3, #88]	@ 0x58
 80063e6:	f003 5380 	and.w	r3, r3, #268435456	@ 0x10000000
 80063ea:	60fb      	str	r3, [r7, #12]
 80063ec:	68fb      	ldr	r3, [r7, #12]
      pwrclkchanged = SET;
 80063ee:	2301      	movs	r3, #1
 80063f0:	77fb      	strb	r3, [r7, #31]
    }

    if (HAL_IS_BIT_CLR(PWR->CR1, PWR_CR1_DBP))
 80063f2:	4b79      	ldr	r3, [pc, #484]	@ (80065d8 <HAL_RCC_OscConfig+0x4bc>)
 80063f4:	681b      	ldr	r3, [r3, #0]
 80063f6:	f403 7380 	and.w	r3, r3, #256	@ 0x100
 80063fa:	2b00      	cmp	r3, #0
 80063fc:	d118      	bne.n	8006430 <HAL_RCC_OscConfig+0x314>
    {
      /* Enable write access to Backup domain */
      SET_BIT(PWR->CR1, PWR_CR1_DBP);
 80063fe:	4b76      	ldr	r3, [pc, #472]	@ (80065d8 <HAL_RCC_OscConfig+0x4bc>)
 8006400:	681b      	ldr	r3, [r3, #0]
 8006402:	4a75      	ldr	r2, [pc, #468]	@ (80065d8 <HAL_RCC_OscConfig+0x4bc>)
 8006404:	f443 7380 	orr.w	r3, r3, #256	@ 0x100
 8006408:	6013      	str	r3, [r2, #0]

      /* Wait for Backup domain Write protection disable */
      tickstart = HAL_GetTick();
 800640a:	f7fd f8a1 	bl	8003550 <HAL_GetTick>
 800640e:	6138      	str	r0, [r7, #16]

      while (HAL_IS_BIT_CLR(PWR->CR1, PWR_CR1_DBP))
 8006410:	e008      	b.n	8006424 <HAL_RCC_OscConfig+0x308>
      {
        if ((HAL_GetTick() - tickstart) > RCC_DBP_TIMEOUT_VALUE)
 8006412:	f7fd f89d 	bl	8003550 <HAL_GetTick>
 8006416:	4602      	mov	r2, r0
 8006418:	693b      	ldr	r3, [r7, #16]
 800641a:	1ad3      	subs	r3, r2, r3
 800641c:	2b02      	cmp	r3, #2
 800641e:	d901      	bls.n	8006424 <HAL_RCC_OscConfig+0x308>
        {
          return HAL_TIMEOUT;
 8006420:	2303      	movs	r3, #3
 8006422:	e183      	b.n	800672c <HAL_RCC_OscConfig+0x610>
      while (HAL_IS_BIT_CLR(PWR->CR1, PWR_CR1_DBP))
 8006424:	4b6c      	ldr	r3, [pc, #432]	@ (80065d8 <HAL_RCC_OscConfig+0x4bc>)
 8006426:	681b      	ldr	r3, [r3, #0]
 8006428:	f403 7380 	and.w	r3, r3, #256	@ 0x100
 800642c:	2b00      	cmp	r3, #0
 800642e:	d0f0      	beq.n	8006412 <HAL_RCC_OscConfig+0x2f6>
        }
      }
    }

    /* Set the new LSE configuration -----------------------------------------*/
    __HAL_RCC_LSE_CONFIG(RCC_OscInitStruct->LSEState);
 8006430:	687b      	ldr	r3, [r7, #4]
 8006432:	689b      	ldr	r3, [r3, #8]
 8006434:	2b01      	cmp	r3, #1
 8006436:	d108      	bne.n	800644a <HAL_RCC_OscConfig+0x32e>
 8006438:	4b66      	ldr	r3, [pc, #408]	@ (80065d4 <HAL_RCC_OscConfig+0x4b8>)
 800643a:	f8d3 3090 	ldr.w	r3, [r3, #144]	@ 0x90
 800643e:	4a65      	ldr	r2, [pc, #404]	@ (80065d4 <HAL_RCC_OscConfig+0x4b8>)
 8006440:	f043 0301 	orr.w	r3, r3, #1
 8006444:	f8c2 3090 	str.w	r3, [r2, #144]	@ 0x90
 8006448:	e024      	b.n	8006494 <HAL_RCC_OscConfig+0x378>
 800644a:	687b      	ldr	r3, [r7, #4]
 800644c:	689b      	ldr	r3, [r3, #8]
 800644e:	2b05      	cmp	r3, #5
 8006450:	d110      	bne.n	8006474 <HAL_RCC_OscConfig+0x358>
 8006452:	4b60      	ldr	r3, [pc, #384]	@ (80065d4 <HAL_RCC_OscConfig+0x4b8>)
 8006454:	f8d3 3090 	ldr.w	r3, [r3, #144]	@ 0x90
 8006458:	4a5e      	ldr	r2, [pc, #376]	@ (80065d4 <HAL_RCC_OscConfig+0x4b8>)
 800645a:	f043 0304 	orr.w	r3, r3, #4
 800645e:	f8c2 3090 	str.w	r3, [r2, #144]	@ 0x90
 8006462:	4b5c      	ldr	r3, [pc, #368]	@ (80065d4 <HAL_RCC_OscConfig+0x4b8>)
 8006464:	f8d3 3090 	ldr.w	r3, [r3, #144]	@ 0x90
 8006468:	4a5a      	ldr	r2, [pc, #360]	@ (80065d4 <HAL_RCC_OscConfig+0x4b8>)
 800646a:	f043 0301 	orr.w	r3, r3, #1
 800646e:	f8c2 3090 	str.w	r3, [r2, #144]	@ 0x90
 8006472:	e00f      	b.n	8006494 <HAL_RCC_OscConfig+0x378>
 8006474:	4b57      	ldr	r3, [pc, #348]	@ (80065d4 <HAL_RCC_OscConfig+0x4b8>)
 8006476:	f8d3 3090 	ldr.w	r3, [r3, #144]	@ 0x90
 800647a:	4a56      	ldr	r2, [pc, #344]	@ (80065d4 <HAL_RCC_OscConfig+0x4b8>)
 800647c:	f023 0301 	bic.w	r3, r3, #1
 8006480:	f8c2 3090 	str.w	r3, [r2, #144]	@ 0x90
 8006484:	4b53      	ldr	r3, [pc, #332]	@ (80065d4 <HAL_RCC_OscConfig+0x4b8>)
 8006486:	f8d3 3090 	ldr.w	r3, [r3, #144]	@ 0x90
 800648a:	4a52      	ldr	r2, [pc, #328]	@ (80065d4 <HAL_RCC_OscConfig+0x4b8>)
 800648c:	f023 0304 	bic.w	r3, r3, #4
 8006490:	f8c2 3090 	str.w	r3, [r2, #144]	@ 0x90

    /* Check the LSE State */
    if (RCC_OscInitStruct->LSEState != RCC_LSE_OFF)
 8006494:	687b      	ldr	r3, [r7, #4]
 8006496:	689b      	ldr	r3, [r3, #8]
 8006498:	2b00      	cmp	r3, #0
 800649a:	d016      	beq.n	80064ca <HAL_RCC_OscConfig+0x3ae>
    {
      /* Get Start Tick*/
      tickstart = HAL_GetTick();
 800649c:	f7fd f858 	bl	8003550 <HAL_GetTick>
 80064a0:	6138      	str	r0, [r7, #16]

      /* Wait till LSE is ready */
      while (READ_BIT(RCC->BDCR, RCC_BDCR_LSERDY) == 0U)
 80064a2:	e00a      	b.n	80064ba <HAL_RCC_OscConfig+0x39e>
      {
        if((HAL_GetTick() - tickstart) > RCC_LSE_TIMEOUT_VALUE)
 80064a4:	f7fd f854 	bl	8003550 <HAL_GetTick>
 80064a8:	4602      	mov	r2, r0
 80064aa:	693b      	ldr	r3, [r7, #16]
 80064ac:	1ad3      	subs	r3, r2, r3
 80064ae:	f241 3288 	movw	r2, #5000	@ 0x1388
 80064b2:	4293      	cmp	r3, r2
 80064b4:	d901      	bls.n	80064ba <HAL_RCC_OscConfig+0x39e>
        {
          return HAL_TIMEOUT;
 80064b6:	2303      	movs	r3, #3
 80064b8:	e138      	b.n	800672c <HAL_RCC_OscConfig+0x610>
      while (READ_BIT(RCC->BDCR, RCC_BDCR_LSERDY) == 0U)
 80064ba:	4b46      	ldr	r3, [pc, #280]	@ (80065d4 <HAL_RCC_OscConfig+0x4b8>)
 80064bc:	f8d3 3090 	ldr.w	r3, [r3, #144]	@ 0x90
 80064c0:	f003 0302 	and.w	r3, r3, #2
 80064c4:	2b00      	cmp	r3, #0
 80064c6:	d0ed      	beq.n	80064a4 <HAL_RCC_OscConfig+0x388>
 80064c8:	e015      	b.n	80064f6 <HAL_RCC_OscConfig+0x3da>
      }
    }
    else
    {
      /* Get Start Tick*/
      tickstart = HAL_GetTick();
 80064ca:	f7fd f841 	bl	8003550 <HAL_GetTick>
 80064ce:	6138      	str	r0, [r7, #16]

      /* Wait till LSE is disabled */
      while (READ_BIT(RCC->BDCR, RCC_BDCR_LSERDY) != 0U)
 80064d0:	e00a      	b.n	80064e8 <HAL_RCC_OscConfig+0x3cc>
      {
        if((HAL_GetTick() - tickstart) > RCC_LSE_TIMEOUT_VALUE)
 80064d2:	f7fd f83d 	bl	8003550 <HAL_GetTick>
 80064d6:	4602      	mov	r2, r0
 80064d8:	693b      	ldr	r3, [r7, #16]
 80064da:	1ad3      	subs	r3, r2, r3
 80064dc:	f241 3288 	movw	r2, #5000	@ 0x1388
 80064e0:	4293      	cmp	r3, r2
 80064e2:	d901      	bls.n	80064e8 <HAL_RCC_OscConfig+0x3cc>
        {
          return HAL_TIMEOUT;
 80064e4:	2303      	movs	r3, #3
 80064e6:	e121      	b.n	800672c <HAL_RCC_OscConfig+0x610>
      while (READ_BIT(RCC->BDCR, RCC_BDCR_LSERDY) != 0U)
 80064e8:	4b3a      	ldr	r3, [pc, #232]	@ (80065d4 <HAL_RCC_OscConfig+0x4b8>)
 80064ea:	f8d3 3090 	ldr.w	r3, [r3, #144]	@ 0x90
 80064ee:	f003 0302 	and.w	r3, r3, #2
 80064f2:	2b00      	cmp	r3, #0
 80064f4:	d1ed      	bne.n	80064d2 <HAL_RCC_OscConfig+0x3b6>
        }
      }
    }

    /* Restore clock configuration if changed */
    if (pwrclkchanged == SET)
 80064f6:	7ffb      	ldrb	r3, [r7, #31]
 80064f8:	2b01      	cmp	r3, #1
 80064fa:	d105      	bne.n	8006508 <HAL_RCC_OscConfig+0x3ec>
    {
      __HAL_RCC_PWR_CLK_DISABLE();
 80064fc:	4b35      	ldr	r3, [pc, #212]	@ (80065d4 <HAL_RCC_OscConfig+0x4b8>)
 80064fe:	6d9b      	ldr	r3, [r3, #88]	@ 0x58
 8006500:	4a34      	ldr	r2, [pc, #208]	@ (80065d4 <HAL_RCC_OscConfig+0x4b8>)
 8006502:	f023 5380 	bic.w	r3, r3, #268435456	@ 0x10000000
 8006506:	6593      	str	r3, [r2, #88]	@ 0x58
    }
  }

  /*------------------------------ HSI48 Configuration -----------------------*/
  if(((RCC_OscInitStruct->OscillatorType) & RCC_OSCILLATORTYPE_HSI48) == RCC_OSCILLATORTYPE_HSI48)
 8006508:	687b      	ldr	r3, [r7, #4]
 800650a:	681b      	ldr	r3, [r3, #0]
 800650c:	f003 0320 	and.w	r3, r3, #32
 8006510:	2b00      	cmp	r3, #0
 8006512:	d03c      	beq.n	800658e <HAL_RCC_OscConfig+0x472>
  {
    /* Check the parameters */
    assert_param(IS_RCC_HSI48(RCC_OscInitStruct->HSI48State));

    /* Check the HSI48 State */
    if(RCC_OscInitStruct->HSI48State != RCC_HSI48_OFF)
 8006514:	687b      	ldr	r3, [r7, #4]
 8006516:	699b      	ldr	r3, [r3, #24]
 8006518:	2b00      	cmp	r3, #0
 800651a:	d01c      	beq.n	8006556 <HAL_RCC_OscConfig+0x43a>
    {
      /* Enable the Internal Low Speed oscillator (HSI48). */
      __HAL_RCC_HSI48_ENABLE();
 800651c:	4b2d      	ldr	r3, [pc, #180]	@ (80065d4 <HAL_RCC_OscConfig+0x4b8>)
 800651e:	f8d3 3098 	ldr.w	r3, [r3, #152]	@ 0x98
 8006522:	4a2c      	ldr	r2, [pc, #176]	@ (80065d4 <HAL_RCC_OscConfig+0x4b8>)
 8006524:	f043 0301 	orr.w	r3, r3, #1
 8006528:	f8c2 3098 	str.w	r3, [r2, #152]	@ 0x98

      /* Get Start Tick*/
      tickstart = HAL_GetTick();
 800652c:	f7fd f810 	bl	8003550 <HAL_GetTick>
 8006530:	6138      	str	r0, [r7, #16]

      /* Wait till HSI48 is ready */
      while(READ_BIT(RCC->CRRCR, RCC_CRRCR_HSI48RDY) == 0U)
 8006532:	e008      	b.n	8006546 <HAL_RCC_OscConfig+0x42a>
      {
        if((HAL_GetTick() - tickstart) > HSI48_TIMEOUT_VALUE)
 8006534:	f7fd f80c 	bl	8003550 <HAL_GetTick>
 8006538:	4602      	mov	r2, r0
 800653a:	693b      	ldr	r3, [r7, #16]
 800653c:	1ad3      	subs	r3, r2, r3
 800653e:	2b02      	cmp	r3, #2
 8006540:	d901      	bls.n	8006546 <HAL_RCC_OscConfig+0x42a>
        {
          return HAL_TIMEOUT;
 8006542:	2303      	movs	r3, #3
 8006544:	e0f2      	b.n	800672c <HAL_RCC_OscConfig+0x610>
      while(READ_BIT(RCC->CRRCR, RCC_CRRCR_HSI48RDY) == 0U)
 8006546:	4b23      	ldr	r3, [pc, #140]	@ (80065d4 <HAL_RCC_OscConfig+0x4b8>)
 8006548:	f8d3 3098 	ldr.w	r3, [r3, #152]	@ 0x98
 800654c:	f003 0302 	and.w	r3, r3, #2
 8006550:	2b00      	cmp	r3, #0
 8006552:	d0ef      	beq.n	8006534 <HAL_RCC_OscConfig+0x418>
 8006554:	e01b      	b.n	800658e <HAL_RCC_OscConfig+0x472>
      }
    }
    else
    {
      /* Disable the Internal Low Speed oscillator (HSI48). */
      __HAL_RCC_HSI48_DISABLE();
 8006556:	4b1f      	ldr	r3, [pc, #124]	@ (80065d4 <HAL_RCC_OscConfig+0x4b8>)
 8006558:	f8d3 3098 	ldr.w	r3, [r3, #152]	@ 0x98
 800655c:	4a1d      	ldr	r2, [pc, #116]	@ (80065d4 <HAL_RCC_OscConfig+0x4b8>)
 800655e:	f023 0301 	bic.w	r3, r3, #1
 8006562:	f8c2 3098 	str.w	r3, [r2, #152]	@ 0x98

      /* Get Start Tick*/
      tickstart = HAL_GetTick();
 8006566:	f7fc fff3 	bl	8003550 <HAL_GetTick>
 800656a:	6138      	str	r0, [r7, #16]

      /* Wait till HSI48 is disabled */
      while(READ_BIT(RCC->CRRCR, RCC_CRRCR_HSI48RDY) != 0U)
 800656c:	e008      	b.n	8006580 <HAL_RCC_OscConfig+0x464>
      {
        if((HAL_GetTick() - tickstart) > HSI48_TIMEOUT_VALUE)
 800656e:	f7fc ffef 	bl	8003550 <HAL_GetTick>
 8006572:	4602      	mov	r2, r0
 8006574:	693b      	ldr	r3, [r7, #16]
 8006576:	1ad3      	subs	r3, r2, r3
 8006578:	2b02      	cmp	r3, #2
 800657a:	d901      	bls.n	8006580 <HAL_RCC_OscConfig+0x464>
        {
          return HAL_TIMEOUT;
 800657c:	2303      	movs	r3, #3
 800657e:	e0d5      	b.n	800672c <HAL_RCC_OscConfig+0x610>
      while(READ_BIT(RCC->CRRCR, RCC_CRRCR_HSI48RDY) != 0U)
 8006580:	4b14      	ldr	r3, [pc, #80]	@ (80065d4 <HAL_RCC_OscConfig+0x4b8>)
 8006582:	f8d3 3098 	ldr.w	r3, [r3, #152]	@ 0x98
 8006586:	f003 0302 	and.w	r3, r3, #2
 800658a:	2b00      	cmp	r3, #0
 800658c:	d1ef      	bne.n	800656e <HAL_RCC_OscConfig+0x452>

  /*-------------------------------- PLL Configuration -----------------------*/
  /* Check the parameters */
  assert_param(IS_RCC_PLL(RCC_OscInitStruct->PLL.PLLState));

  if (RCC_OscInitStruct->PLL.PLLState != RCC_PLL_NONE)
 800658e:	687b      	ldr	r3, [r7, #4]
 8006590:	69db      	ldr	r3, [r3, #28]
 8006592:	2b00      	cmp	r3, #0
 8006594:	f000 80c9 	beq.w	800672a <HAL_RCC_OscConfig+0x60e>
  {
    /* Check if the PLL is used as system clock or not */
    if (__HAL_RCC_GET_SYSCLK_SOURCE() != RCC_CFGR_SWS_PLL)
 8006598:	4b0e      	ldr	r3, [pc, #56]	@ (80065d4 <HAL_RCC_OscConfig+0x4b8>)
 800659a:	689b      	ldr	r3, [r3, #8]
 800659c:	f003 030c 	and.w	r3, r3, #12
 80065a0:	2b0c      	cmp	r3, #12
 80065a2:	f000 8083 	beq.w	80066ac <HAL_RCC_OscConfig+0x590>
    {
      if (RCC_OscInitStruct->PLL.PLLState == RCC_PLL_ON)
 80065a6:	687b      	ldr	r3, [r7, #4]
 80065a8:	69db      	ldr	r3, [r3, #28]
 80065aa:	2b02      	cmp	r3, #2
 80065ac:	d15e      	bne.n	800666c <HAL_RCC_OscConfig+0x550>
        assert_param(IS_RCC_PLLP_VALUE(RCC_OscInitStruct->PLL.PLLP));
        assert_param(IS_RCC_PLLQ_VALUE(RCC_OscInitStruct->PLL.PLLQ));
        assert_param(IS_RCC_PLLR_VALUE(RCC_OscInitStruct->PLL.PLLR));

        /* Disable the main PLL. */
        __HAL_RCC_PLL_DISABLE();
 80065ae:	4b09      	ldr	r3, [pc, #36]	@ (80065d4 <HAL_RCC_OscConfig+0x4b8>)
 80065b0:	681b      	ldr	r3, [r3, #0]
 80065b2:	4a08      	ldr	r2, [pc, #32]	@ (80065d4 <HAL_RCC_OscConfig+0x4b8>)
 80065b4:	f023 7380 	bic.w	r3, r3, #16777216	@ 0x1000000
 80065b8:	6013      	str	r3, [r2, #0]

        /* Get Start Tick*/
        tickstart = HAL_GetTick();
 80065ba:	f7fc ffc9 	bl	8003550 <HAL_GetTick>
 80065be:	6138      	str	r0, [r7, #16]

        /* Wait till PLL is disabled */
        while (READ_BIT(RCC->CR, RCC_CR_PLLRDY) != 0U)
 80065c0:	e00c      	b.n	80065dc <HAL_RCC_OscConfig+0x4c0>
        {
          if ((HAL_GetTick() - tickstart) > PLL_TIMEOUT_VALUE)
 80065c2:	f7fc ffc5 	bl	8003550 <HAL_GetTick>
 80065c6:	4602      	mov	r2, r0
 80065c8:	693b      	ldr	r3, [r7, #16]
 80065ca:	1ad3      	subs	r3, r2, r3
 80065cc:	2b02      	cmp	r3, #2
 80065ce:	d905      	bls.n	80065dc <HAL_RCC_OscConfig+0x4c0>
          {
            return HAL_TIMEOUT;
 80065d0:	2303      	movs	r3, #3
 80065d2:	e0ab      	b.n	800672c <HAL_RCC_OscConfig+0x610>
 80065d4:	40021000 	.word	0x40021000
 80065d8:	40007000 	.word	0x40007000
        while (READ_BIT(RCC->CR, RCC_CR_PLLRDY) != 0U)
 80065dc:	4b55      	ldr	r3, [pc, #340]	@ (8006734 <HAL_RCC_OscConfig+0x618>)
 80065de:	681b      	ldr	r3, [r3, #0]
 80065e0:	f003 7300 	and.w	r3, r3, #33554432	@ 0x2000000
 80065e4:	2b00      	cmp	r3, #0
 80065e6:	d1ec      	bne.n	80065c2 <HAL_RCC_OscConfig+0x4a6>
          }
        }

        /* Configure the main PLL clock source, multiplication and division factors. */
        __HAL_RCC_PLL_CONFIG(RCC_OscInitStruct->PLL.PLLSource,
 80065e8:	4b52      	ldr	r3, [pc, #328]	@ (8006734 <HAL_RCC_OscConfig+0x618>)
 80065ea:	68da      	ldr	r2, [r3, #12]
 80065ec:	4b52      	ldr	r3, [pc, #328]	@ (8006738 <HAL_RCC_OscConfig+0x61c>)
 80065ee:	4013      	ands	r3, r2
 80065f0:	687a      	ldr	r2, [r7, #4]
 80065f2:	6a11      	ldr	r1, [r2, #32]
 80065f4:	687a      	ldr	r2, [r7, #4]
 80065f6:	6a52      	ldr	r2, [r2, #36]	@ 0x24
 80065f8:	3a01      	subs	r2, #1
 80065fa:	0112      	lsls	r2, r2, #4
 80065fc:	4311      	orrs	r1, r2
 80065fe:	687a      	ldr	r2, [r7, #4]
 8006600:	6a92      	ldr	r2, [r2, #40]	@ 0x28
 8006602:	0212      	lsls	r2, r2, #8
 8006604:	4311      	orrs	r1, r2
 8006606:	687a      	ldr	r2, [r7, #4]
 8006608:	6b12      	ldr	r2, [r2, #48]	@ 0x30
 800660a:	0852      	lsrs	r2, r2, #1
 800660c:	3a01      	subs	r2, #1
 800660e:	0552      	lsls	r2, r2, #21
 8006610:	4311      	orrs	r1, r2
 8006612:	687a      	ldr	r2, [r7, #4]
 8006614:	6b52      	ldr	r2, [r2, #52]	@ 0x34
 8006616:	0852      	lsrs	r2, r2, #1
 8006618:	3a01      	subs	r2, #1
 800661a:	0652      	lsls	r2, r2, #25
 800661c:	4311      	orrs	r1, r2
 800661e:	687a      	ldr	r2, [r7, #4]
 8006620:	6ad2      	ldr	r2, [r2, #44]	@ 0x2c
 8006622:	06d2      	lsls	r2, r2, #27
 8006624:	430a      	orrs	r2, r1
 8006626:	4943      	ldr	r1, [pc, #268]	@ (8006734 <HAL_RCC_OscConfig+0x618>)
 8006628:	4313      	orrs	r3, r2
 800662a:	60cb      	str	r3, [r1, #12]
                             RCC_OscInitStruct->PLL.PLLP,
                             RCC_OscInitStruct->PLL.PLLQ,
                             RCC_OscInitStruct->PLL.PLLR);

        /* Enable the main PLL. */
        __HAL_RCC_PLL_ENABLE();
 800662c:	4b41      	ldr	r3, [pc, #260]	@ (8006734 <HAL_RCC_OscConfig+0x618>)
 800662e:	681b      	ldr	r3, [r3, #0]
 8006630:	4a40      	ldr	r2, [pc, #256]	@ (8006734 <HAL_RCC_OscConfig+0x618>)
 8006632:	f043 7380 	orr.w	r3, r3, #16777216	@ 0x1000000
 8006636:	6013      	str	r3, [r2, #0]

        /* Enable PLL System Clock output. */
         __HAL_RCC_PLLCLKOUT_ENABLE(RCC_PLL_SYSCLK);
 8006638:	4b3e      	ldr	r3, [pc, #248]	@ (8006734 <HAL_RCC_OscConfig+0x618>)
 800663a:	68db      	ldr	r3, [r3, #12]
 800663c:	4a3d      	ldr	r2, [pc, #244]	@ (8006734 <HAL_RCC_OscConfig+0x618>)
 800663e:	f043 7380 	orr.w	r3, r3, #16777216	@ 0x1000000
 8006642:	60d3      	str	r3, [r2, #12]

        /* Get Start Tick*/
        tickstart = HAL_GetTick();
 8006644:	f7fc ff84 	bl	8003550 <HAL_GetTick>
 8006648:	6138      	str	r0, [r7, #16]

        /* Wait till PLL is ready */
        while (READ_BIT(RCC->CR, RCC_CR_PLLRDY) == 0U)
 800664a:	e008      	b.n	800665e <HAL_RCC_OscConfig+0x542>
        {
          if ((HAL_GetTick() - tickstart) > PLL_TIMEOUT_VALUE)
 800664c:	f7fc ff80 	bl	8003550 <HAL_GetTick>
 8006650:	4602      	mov	r2, r0
 8006652:	693b      	ldr	r3, [r7, #16]
 8006654:	1ad3      	subs	r3, r2, r3
 8006656:	2b02      	cmp	r3, #2
 8006658:	d901      	bls.n	800665e <HAL_RCC_OscConfig+0x542>
          {
            return HAL_TIMEOUT;
 800665a:	2303      	movs	r3, #3
 800665c:	e066      	b.n	800672c <HAL_RCC_OscConfig+0x610>
        while (READ_BIT(RCC->CR, RCC_CR_PLLRDY) == 0U)
 800665e:	4b35      	ldr	r3, [pc, #212]	@ (8006734 <HAL_RCC_OscConfig+0x618>)
 8006660:	681b      	ldr	r3, [r3, #0]
 8006662:	f003 7300 	and.w	r3, r3, #33554432	@ 0x2000000
 8006666:	2b00      	cmp	r3, #0
 8006668:	d0f0      	beq.n	800664c <HAL_RCC_OscConfig+0x530>
 800666a:	e05e      	b.n	800672a <HAL_RCC_OscConfig+0x60e>
        }
      }
      else
      {
        /* Disable the main PLL. */
        __HAL_RCC_PLL_DISABLE();
 800666c:	4b31      	ldr	r3, [pc, #196]	@ (8006734 <HAL_RCC_OscConfig+0x618>)
 800666e:	681b      	ldr	r3, [r3, #0]
 8006670:	4a30      	ldr	r2, [pc, #192]	@ (8006734 <HAL_RCC_OscConfig+0x618>)
 8006672:	f023 7380 	bic.w	r3, r3, #16777216	@ 0x1000000
 8006676:	6013      	str	r3, [r2, #0]

        /* Get Start Tick*/
        tickstart = HAL_GetTick();
 8006678:	f7fc ff6a 	bl	8003550 <HAL_GetTick>
 800667c:	6138      	str	r0, [r7, #16]

        /* Wait till PLL is disabled */
        while (READ_BIT(RCC->CR, RCC_CR_PLLRDY) != 0U)
 800667e:	e008      	b.n	8006692 <HAL_RCC_OscConfig+0x576>
        {
          if ((HAL_GetTick() - tickstart) > PLL_TIMEOUT_VALUE)
 8006680:	f7fc ff66 	bl	8003550 <HAL_GetTick>
 8006684:	4602      	mov	r2, r0
 8006686:	693b      	ldr	r3, [r7, #16]
 8006688:	1ad3      	subs	r3, r2, r3
 800668a:	2b02      	cmp	r3, #2
 800668c:	d901      	bls.n	8006692 <HAL_RCC_OscConfig+0x576>
          {
            return HAL_TIMEOUT;
 800668e:	2303      	movs	r3, #3
 8006690:	e04c      	b.n	800672c <HAL_RCC_OscConfig+0x610>
        while (READ_BIT(RCC->CR, RCC_CR_PLLRDY) != 0U)
 8006692:	4b28      	ldr	r3, [pc, #160]	@ (8006734 <HAL_RCC_OscConfig+0x618>)
 8006694:	681b      	ldr	r3, [r3, #0]
 8006696:	f003 7300 	and.w	r3, r3, #33554432	@ 0x2000000
 800669a:	2b00      	cmp	r3, #0
 800669c:	d1f0      	bne.n	8006680 <HAL_RCC_OscConfig+0x564>
          }
        }

        /* Unselect PLL clock source and disable outputs to save power */
        RCC->PLLCFGR &= ~(RCC_PLLCFGR_PLLSRC | RCC_PLL_SYSCLK | RCC_PLL_48M1CLK | RCC_PLL_ADCCLK);
 800669e:	4b25      	ldr	r3, [pc, #148]	@ (8006734 <HAL_RCC_OscConfig+0x618>)
 80066a0:	68da      	ldr	r2, [r3, #12]
 80066a2:	4924      	ldr	r1, [pc, #144]	@ (8006734 <HAL_RCC_OscConfig+0x618>)
 80066a4:	4b25      	ldr	r3, [pc, #148]	@ (800673c <HAL_RCC_OscConfig+0x620>)
 80066a6:	4013      	ands	r3, r2
 80066a8:	60cb      	str	r3, [r1, #12]
 80066aa:	e03e      	b.n	800672a <HAL_RCC_OscConfig+0x60e>
      }
    }
    else
    {
      /* Check if there is a request to disable the PLL used as System clock source */
      if((RCC_OscInitStruct->PLL.PLLState) == RCC_PLL_OFF)
 80066ac:	687b      	ldr	r3, [r7, #4]
 80066ae:	69db      	ldr	r3, [r3, #28]
 80066b0:	2b01      	cmp	r3, #1
 80066b2:	d101      	bne.n	80066b8 <HAL_RCC_OscConfig+0x59c>
      {
        return HAL_ERROR;
 80066b4:	2301      	movs	r3, #1
 80066b6:	e039      	b.n	800672c <HAL_RCC_OscConfig+0x610>
      }
      else
      {
      /* Do not return HAL_ERROR if request repeats the current configuration */
      temp_pllckcfg = RCC->PLLCFGR;
 80066b8:	4b1e      	ldr	r3, [pc, #120]	@ (8006734 <HAL_RCC_OscConfig+0x618>)
 80066ba:	68db      	ldr	r3, [r3, #12]
 80066bc:	617b      	str	r3, [r7, #20]
      if((READ_BIT(temp_pllckcfg, RCC_PLLCFGR_PLLSRC) != RCC_OscInitStruct->PLL.PLLSource) ||
 80066be:	697b      	ldr	r3, [r7, #20]
 80066c0:	f003 0203 	and.w	r2, r3, #3
 80066c4:	687b      	ldr	r3, [r7, #4]
 80066c6:	6a1b      	ldr	r3, [r3, #32]
 80066c8:	429a      	cmp	r2, r3
 80066ca:	d12c      	bne.n	8006726 <HAL_RCC_OscConfig+0x60a>
         (READ_BIT(temp_pllckcfg, RCC_PLLCFGR_PLLM) != (((RCC_OscInitStruct->PLL.PLLM) - 1U) << RCC_PLLCFGR_PLLM_Pos)) ||
 80066cc:	697b      	ldr	r3, [r7, #20]
 80066ce:	f003 02f0 	and.w	r2, r3, #240	@ 0xf0
 80066d2:	687b      	ldr	r3, [r7, #4]
 80066d4:	6a5b      	ldr	r3, [r3, #36]	@ 0x24
 80066d6:	3b01      	subs	r3, #1
 80066d8:	011b      	lsls	r3, r3, #4
      if((READ_BIT(temp_pllckcfg, RCC_PLLCFGR_PLLSRC) != RCC_OscInitStruct->PLL.PLLSource) ||
 80066da:	429a      	cmp	r2, r3
 80066dc:	d123      	bne.n	8006726 <HAL_RCC_OscConfig+0x60a>
         (READ_BIT(temp_pllckcfg, RCC_PLLCFGR_PLLN) != ((RCC_OscInitStruct->PLL.PLLN) << RCC_PLLCFGR_PLLN_Pos)) ||
 80066de:	697b      	ldr	r3, [r7, #20]
 80066e0:	f403 42fe 	and.w	r2, r3, #32512	@ 0x7f00
 80066e4:	687b      	ldr	r3, [r7, #4]
 80066e6:	6a9b      	ldr	r3, [r3, #40]	@ 0x28
 80066e8:	021b      	lsls	r3, r3, #8
         (READ_BIT(temp_pllckcfg, RCC_PLLCFGR_PLLM) != (((RCC_OscInitStruct->PLL.PLLM) - 1U) << RCC_PLLCFGR_PLLM_Pos)) ||
 80066ea:	429a      	cmp	r2, r3
 80066ec:	d11b      	bne.n	8006726 <HAL_RCC_OscConfig+0x60a>
         (READ_BIT(temp_pllckcfg, RCC_PLLCFGR_PLLPDIV) != ((RCC_OscInitStruct->PLL.PLLP) << RCC_PLLCFGR_PLLPDIV_Pos)) ||
 80066ee:	697b      	ldr	r3, [r7, #20]
 80066f0:	f003 4278 	and.w	r2, r3, #4160749568	@ 0xf8000000
 80066f4:	687b      	ldr	r3, [r7, #4]
 80066f6:	6adb      	ldr	r3, [r3, #44]	@ 0x2c
 80066f8:	06db      	lsls	r3, r3, #27
         (READ_BIT(temp_pllckcfg, RCC_PLLCFGR_PLLN) != ((RCC_OscInitStruct->PLL.PLLN) << RCC_PLLCFGR_PLLN_Pos)) ||
 80066fa:	429a      	cmp	r2, r3
 80066fc:	d113      	bne.n	8006726 <HAL_RCC_OscConfig+0x60a>
         (READ_BIT(temp_pllckcfg, RCC_PLLCFGR_PLLQ) != ((((RCC_OscInitStruct->PLL.PLLQ) >> 1U) - 1U) << RCC_PLLCFGR_PLLQ_Pos)) ||
 80066fe:	697b      	ldr	r3, [r7, #20]
 8006700:	f403 02c0 	and.w	r2, r3, #6291456	@ 0x600000
 8006704:	687b      	ldr	r3, [r7, #4]
 8006706:	6b1b      	ldr	r3, [r3, #48]	@ 0x30
 8006708:	085b      	lsrs	r3, r3, #1
 800670a:	3b01      	subs	r3, #1
 800670c:	055b      	lsls	r3, r3, #21
         (READ_BIT(temp_pllckcfg, RCC_PLLCFGR_PLLPDIV) != ((RCC_OscInitStruct->PLL.PLLP) << RCC_PLLCFGR_PLLPDIV_Pos)) ||
 800670e:	429a      	cmp	r2, r3
 8006710:	d109      	bne.n	8006726 <HAL_RCC_OscConfig+0x60a>
         (READ_BIT(temp_pllckcfg, RCC_PLLCFGR_PLLR) != ((((RCC_OscInitStruct->PLL.PLLR) >> 1U) - 1U) << RCC_PLLCFGR_PLLR_Pos)))
 8006712:	697b      	ldr	r3, [r7, #20]
 8006714:	f003 62c0 	and.w	r2, r3, #100663296	@ 0x6000000
 8006718:	687b      	ldr	r3, [r7, #4]
 800671a:	6b5b      	ldr	r3, [r3, #52]	@ 0x34
 800671c:	085b      	lsrs	r3, r3, #1
 800671e:	3b01      	subs	r3, #1
 8006720:	065b      	lsls	r3, r3, #25
         (READ_BIT(temp_pllckcfg, RCC_PLLCFGR_PLLQ) != ((((RCC_OscInitStruct->PLL.PLLQ) >> 1U) - 1U) << RCC_PLLCFGR_PLLQ_Pos)) ||
 8006722:	429a      	cmp	r2, r3
 8006724:	d001      	beq.n	800672a <HAL_RCC_OscConfig+0x60e>
      {
        return HAL_ERROR;
 8006726:	2301      	movs	r3, #1
 8006728:	e000      	b.n	800672c <HAL_RCC_OscConfig+0x610>
      }
    }
  }
  }

  return HAL_OK;
 800672a:	2300      	movs	r3, #0
}
 800672c:	4618      	mov	r0, r3
 800672e:	3720      	adds	r7, #32
 8006730:	46bd      	mov	sp, r7
 8006732:	bd80      	pop	{r7, pc}
 8006734:	40021000 	.word	0x40021000
 8006738:	019f800c 	.word	0x019f800c
 800673c:	feeefffc 	.word	0xfeeefffc

08006740 <HAL_RCC_ClockConfig>:
  *         HPRE[3:0] bits to ensure that HCLK not exceed the maximum allowed frequency
  *         (for more details refer to section above "Initialization/de-initialization functions")
  * @retval None
  */
HAL_StatusTypeDef HAL_RCC_ClockConfig(const RCC_ClkInitTypeDef  *RCC_ClkInitStruct, uint32_t FLatency)
{
 8006740:	b580      	push	{r7, lr}
 8006742:	b086      	sub	sp, #24
 8006744:	af00      	add	r7, sp, #0
 8006746:	6078      	str	r0, [r7, #4]
 8006748:	6039      	str	r1, [r7, #0]
  uint32_t tickstart;
  uint32_t pllfreq;
  uint32_t hpre = RCC_SYSCLK_DIV1;
 800674a:	2300      	movs	r3, #0
 800674c:	617b      	str	r3, [r7, #20]

  /* Check Null pointer */
  if (RCC_ClkInitStruct == NULL)
 800674e:	687b      	ldr	r3, [r7, #4]
 8006750:	2b00      	cmp	r3, #0
 8006752:	d101      	bne.n	8006758 <HAL_RCC_ClockConfig+0x18>
  {
    return HAL_ERROR;
 8006754:	2301      	movs	r3, #1
 8006756:	e11e      	b.n	8006996 <HAL_RCC_ClockConfig+0x256>
  /* To correctly read data from FLASH memory, the number of wait states (LATENCY)
    must be correctly programmed according to the frequency of the CPU clock
    (HCLK) and the supply voltage of the device. */

  /* Increasing the number of wait states because of higher CPU frequency */
  if (FLatency > __HAL_FLASH_GET_LATENCY())
 8006758:	4b91      	ldr	r3, [pc, #580]	@ (80069a0 <HAL_RCC_ClockConfig+0x260>)
 800675a:	681b      	ldr	r3, [r3, #0]
 800675c:	f003 030f 	and.w	r3, r3, #15
 8006760:	683a      	ldr	r2, [r7, #0]
 8006762:	429a      	cmp	r2, r3
 8006764:	d910      	bls.n	8006788 <HAL_RCC_ClockConfig+0x48>
  {
    /* Program the new number of wait states to the LATENCY bits in the FLASH_ACR register */
    __HAL_FLASH_SET_LATENCY(FLatency);
 8006766:	4b8e      	ldr	r3, [pc, #568]	@ (80069a0 <HAL_RCC_ClockConfig+0x260>)
 8006768:	681b      	ldr	r3, [r3, #0]
 800676a:	f023 020f 	bic.w	r2, r3, #15
 800676e:	498c      	ldr	r1, [pc, #560]	@ (80069a0 <HAL_RCC_ClockConfig+0x260>)
 8006770:	683b      	ldr	r3, [r7, #0]
 8006772:	4313      	orrs	r3, r2
 8006774:	600b      	str	r3, [r1, #0]

    /* Check that the new number of wait states is taken into account to access the Flash
    memory by reading the FLASH_ACR register */
    if (__HAL_FLASH_GET_LATENCY() != FLatency)
 8006776:	4b8a      	ldr	r3, [pc, #552]	@ (80069a0 <HAL_RCC_ClockConfig+0x260>)
 8006778:	681b      	ldr	r3, [r3, #0]
 800677a:	f003 030f 	and.w	r3, r3, #15
 800677e:	683a      	ldr	r2, [r7, #0]
 8006780:	429a      	cmp	r2, r3
 8006782:	d001      	beq.n	8006788 <HAL_RCC_ClockConfig+0x48>
    {
      return HAL_ERROR;
 8006784:	2301      	movs	r3, #1
 8006786:	e106      	b.n	8006996 <HAL_RCC_ClockConfig+0x256>
    }
  }

  /*------------------------- SYSCLK Configuration ---------------------------*/
  if(((RCC_ClkInitStruct->ClockType) & RCC_CLOCKTYPE_SYSCLK) == RCC_CLOCKTYPE_SYSCLK)
 8006788:	687b      	ldr	r3, [r7, #4]
 800678a:	681b      	ldr	r3, [r3, #0]
 800678c:	f003 0301 	and.w	r3, r3, #1
 8006790:	2b00      	cmp	r3, #0
 8006792:	d073      	beq.n	800687c <HAL_RCC_ClockConfig+0x13c>
  {
    assert_param(IS_RCC_SYSCLKSOURCE(RCC_ClkInitStruct->SYSCLKSource));

    /* PLL is selected as System Clock Source */
    if (RCC_ClkInitStruct->SYSCLKSource == RCC_SYSCLKSOURCE_PLLCLK)
 8006794:	687b      	ldr	r3, [r7, #4]
 8006796:	685b      	ldr	r3, [r3, #4]
 8006798:	2b03      	cmp	r3, #3
 800679a:	d129      	bne.n	80067f0 <HAL_RCC_ClockConfig+0xb0>
    {
      /* Check the PLL ready flag */
      if (READ_BIT(RCC->CR, RCC_CR_PLLRDY) == 0U)
 800679c:	4b81      	ldr	r3, [pc, #516]	@ (80069a4 <HAL_RCC_ClockConfig+0x264>)
 800679e:	681b      	ldr	r3, [r3, #0]
 80067a0:	f003 7300 	and.w	r3, r3, #33554432	@ 0x2000000
 80067a4:	2b00      	cmp	r3, #0
 80067a6:	d101      	bne.n	80067ac <HAL_RCC_ClockConfig+0x6c>
      {
        return HAL_ERROR;
 80067a8:	2301      	movs	r3, #1
 80067aa:	e0f4      	b.n	8006996 <HAL_RCC_ClockConfig+0x256>
      }
      /* Undershoot management when selection PLL as SYSCLK source and frequency above 80Mhz */
      /* Compute target PLL output frequency */
      pllfreq = RCC_GetSysClockFreqFromPLLSource();
 80067ac:	f000 f966 	bl	8006a7c <RCC_GetSysClockFreqFromPLLSource>
 80067b0:	6138      	str	r0, [r7, #16]

      /* Intermediate step with HCLK prescaler 2 necessary before to go over 80Mhz */
      if(pllfreq > 80000000U)
 80067b2:	693b      	ldr	r3, [r7, #16]
 80067b4:	4a7c      	ldr	r2, [pc, #496]	@ (80069a8 <HAL_RCC_ClockConfig+0x268>)
 80067b6:	4293      	cmp	r3, r2
 80067b8:	d93f      	bls.n	800683a <HAL_RCC_ClockConfig+0xfa>
      {
        if (((READ_BIT(RCC->CFGR, RCC_CFGR_HPRE) == RCC_SYSCLK_DIV1)) ||
 80067ba:	4b7a      	ldr	r3, [pc, #488]	@ (80069a4 <HAL_RCC_ClockConfig+0x264>)
 80067bc:	689b      	ldr	r3, [r3, #8]
 80067be:	f003 03f0 	and.w	r3, r3, #240	@ 0xf0
 80067c2:	2b00      	cmp	r3, #0
 80067c4:	d009      	beq.n	80067da <HAL_RCC_ClockConfig+0x9a>
            (((((RCC_ClkInitStruct->ClockType) & RCC_CLOCKTYPE_HCLK) == RCC_CLOCKTYPE_HCLK) &&
 80067c6:	687b      	ldr	r3, [r7, #4]
 80067c8:	681b      	ldr	r3, [r3, #0]
 80067ca:	f003 0302 	and.w	r3, r3, #2
        if (((READ_BIT(RCC->CFGR, RCC_CFGR_HPRE) == RCC_SYSCLK_DIV1)) ||
 80067ce:	2b00      	cmp	r3, #0
 80067d0:	d033      	beq.n	800683a <HAL_RCC_ClockConfig+0xfa>
              (RCC_ClkInitStruct->AHBCLKDivider == RCC_SYSCLK_DIV1))))
 80067d2:	687b      	ldr	r3, [r7, #4]
 80067d4:	689b      	ldr	r3, [r3, #8]
            (((((RCC_ClkInitStruct->ClockType) & RCC_CLOCKTYPE_HCLK) == RCC_CLOCKTYPE_HCLK) &&
 80067d6:	2b00      	cmp	r3, #0
 80067d8:	d12f      	bne.n	800683a <HAL_RCC_ClockConfig+0xfa>
        {
          MODIFY_REG(RCC->CFGR, RCC_CFGR_HPRE, RCC_SYSCLK_DIV2);
 80067da:	4b72      	ldr	r3, [pc, #456]	@ (80069a4 <HAL_RCC_ClockConfig+0x264>)
 80067dc:	689b      	ldr	r3, [r3, #8]
 80067de:	f023 03f0 	bic.w	r3, r3, #240	@ 0xf0
 80067e2:	4a70      	ldr	r2, [pc, #448]	@ (80069a4 <HAL_RCC_ClockConfig+0x264>)
 80067e4:	f043 0380 	orr.w	r3, r3, #128	@ 0x80
 80067e8:	6093      	str	r3, [r2, #8]
          hpre = RCC_SYSCLK_DIV2;
 80067ea:	2380      	movs	r3, #128	@ 0x80
 80067ec:	617b      	str	r3, [r7, #20]
 80067ee:	e024      	b.n	800683a <HAL_RCC_ClockConfig+0xfa>
      }
    }
    else
    {
      /* HSE is selected as System Clock Source */
      if (RCC_ClkInitStruct->SYSCLKSource == RCC_SYSCLKSOURCE_HSE)
 80067f0:	687b      	ldr	r3, [r7, #4]
 80067f2:	685b      	ldr	r3, [r3, #4]
 80067f4:	2b02      	cmp	r3, #2
 80067f6:	d107      	bne.n	8006808 <HAL_RCC_ClockConfig+0xc8>
      {
        /* Check the HSE ready flag */
        if(READ_BIT(RCC->CR, RCC_CR_HSERDY) == 0U)
 80067f8:	4b6a      	ldr	r3, [pc, #424]	@ (80069a4 <HAL_RCC_ClockConfig+0x264>)
 80067fa:	681b      	ldr	r3, [r3, #0]
 80067fc:	f403 3300 	and.w	r3, r3, #131072	@ 0x20000
 8006800:	2b00      	cmp	r3, #0
 8006802:	d109      	bne.n	8006818 <HAL_RCC_ClockConfig+0xd8>
        {
          return HAL_ERROR;
 8006804:	2301      	movs	r3, #1
 8006806:	e0c6      	b.n	8006996 <HAL_RCC_ClockConfig+0x256>
      }
      /* HSI is selected as System Clock Source */
      else
      {
        /* Check the HSI ready flag */
        if(READ_BIT(RCC->CR, RCC_CR_HSIRDY) == 0U)
 8006808:	4b66      	ldr	r3, [pc, #408]	@ (80069a4 <HAL_RCC_ClockConfig+0x264>)
 800680a:	681b      	ldr	r3, [r3, #0]
 800680c:	f403 6380 	and.w	r3, r3, #1024	@ 0x400
 8006810:	2b00      	cmp	r3, #0
 8006812:	d101      	bne.n	8006818 <HAL_RCC_ClockConfig+0xd8>
        {
          return HAL_ERROR;
 8006814:	2301      	movs	r3, #1
 8006816:	e0be      	b.n	8006996 <HAL_RCC_ClockConfig+0x256>
        }
      }
      /* Overshoot management when going down from PLL as SYSCLK source and frequency above 80Mhz */
      pllfreq = HAL_RCC_GetSysClockFreq();
 8006818:	f000 f8ce 	bl	80069b8 <HAL_RCC_GetSysClockFreq>
 800681c:	6138      	str	r0, [r7, #16]

      /* Intermediate step with HCLK prescaler 2 necessary before to go under 80Mhz */
      if(pllfreq > 80000000U)
 800681e:	693b      	ldr	r3, [r7, #16]
 8006820:	4a61      	ldr	r2, [pc, #388]	@ (80069a8 <HAL_RCC_ClockConfig+0x268>)
 8006822:	4293      	cmp	r3, r2
 8006824:	d909      	bls.n	800683a <HAL_RCC_ClockConfig+0xfa>
      {
        MODIFY_REG(RCC->CFGR, RCC_CFGR_HPRE, RCC_SYSCLK_DIV2);
 8006826:	4b5f      	ldr	r3, [pc, #380]	@ (80069a4 <HAL_RCC_ClockConfig+0x264>)
 8006828:	689b      	ldr	r3, [r3, #8]
 800682a:	f023 03f0 	bic.w	r3, r3, #240	@ 0xf0
 800682e:	4a5d      	ldr	r2, [pc, #372]	@ (80069a4 <HAL_RCC_ClockConfig+0x264>)
 8006830:	f043 0380 	orr.w	r3, r3, #128	@ 0x80
 8006834:	6093      	str	r3, [r2, #8]
        hpre = RCC_SYSCLK_DIV2;
 8006836:	2380      	movs	r3, #128	@ 0x80
 8006838:	617b      	str	r3, [r7, #20]
      }

    }

    MODIFY_REG(RCC->CFGR, RCC_CFGR_SW, RCC_ClkInitStruct->SYSCLKSource);
 800683a:	4b5a      	ldr	r3, [pc, #360]	@ (80069a4 <HAL_RCC_ClockConfig+0x264>)
 800683c:	689b      	ldr	r3, [r3, #8]
 800683e:	f023 0203 	bic.w	r2, r3, #3
 8006842:	687b      	ldr	r3, [r7, #4]
 8006844:	685b      	ldr	r3, [r3, #4]
 8006846:	4957      	ldr	r1, [pc, #348]	@ (80069a4 <HAL_RCC_ClockConfig+0x264>)
 8006848:	4313      	orrs	r3, r2
 800684a:	608b      	str	r3, [r1, #8]

    /* Get Start Tick*/
    tickstart = HAL_GetTick();
 800684c:	f7fc fe80 	bl	8003550 <HAL_GetTick>
 8006850:	60f8      	str	r0, [r7, #12]

    while (__HAL_RCC_GET_SYSCLK_SOURCE() != (RCC_ClkInitStruct->SYSCLKSource << RCC_CFGR_SWS_Pos))
 8006852:	e00a      	b.n	800686a <HAL_RCC_ClockConfig+0x12a>
    {
      if ((HAL_GetTick() - tickstart) > CLOCKSWITCH_TIMEOUT_VALUE)
 8006854:	f7fc fe7c 	bl	8003550 <HAL_GetTick>
 8006858:	4602      	mov	r2, r0
 800685a:	68fb      	ldr	r3, [r7, #12]
 800685c:	1ad3      	subs	r3, r2, r3
 800685e:	f241 3288 	movw	r2, #5000	@ 0x1388
 8006862:	4293      	cmp	r3, r2
 8006864:	d901      	bls.n	800686a <HAL_RCC_ClockConfig+0x12a>
      {
        return HAL_TIMEOUT;
 8006866:	2303      	movs	r3, #3
 8006868:	e095      	b.n	8006996 <HAL_RCC_ClockConfig+0x256>
    while (__HAL_RCC_GET_SYSCLK_SOURCE() != (RCC_ClkInitStruct->SYSCLKSource << RCC_CFGR_SWS_Pos))
 800686a:	4b4e      	ldr	r3, [pc, #312]	@ (80069a4 <HAL_RCC_ClockConfig+0x264>)
 800686c:	689b      	ldr	r3, [r3, #8]
 800686e:	f003 020c 	and.w	r2, r3, #12
 8006872:	687b      	ldr	r3, [r7, #4]
 8006874:	685b      	ldr	r3, [r3, #4]
 8006876:	009b      	lsls	r3, r3, #2
 8006878:	429a      	cmp	r2, r3
 800687a:	d1eb      	bne.n	8006854 <HAL_RCC_ClockConfig+0x114>
      }
    }
  }

  /*-------------------------- HCLK Configuration --------------------------*/
  if (((RCC_ClkInitStruct->ClockType) & RCC_CLOCKTYPE_HCLK) == RCC_CLOCKTYPE_HCLK)
 800687c:	687b      	ldr	r3, [r7, #4]
 800687e:	681b      	ldr	r3, [r3, #0]
 8006880:	f003 0302 	and.w	r3, r3, #2
 8006884:	2b00      	cmp	r3, #0
 8006886:	d023      	beq.n	80068d0 <HAL_RCC_ClockConfig+0x190>
  {
    /* Set the highest APB divider in order to ensure that we do not go through
       a non-spec phase whatever we decrease or increase HCLK. */
    if (((RCC_ClkInitStruct->ClockType) & RCC_CLOCKTYPE_PCLK1) == RCC_CLOCKTYPE_PCLK1)
 8006888:	687b      	ldr	r3, [r7, #4]
 800688a:	681b      	ldr	r3, [r3, #0]
 800688c:	f003 0304 	and.w	r3, r3, #4
 8006890:	2b00      	cmp	r3, #0
 8006892:	d005      	beq.n	80068a0 <HAL_RCC_ClockConfig+0x160>
    {
      MODIFY_REG(RCC->CFGR, RCC_CFGR_PPRE1, RCC_HCLK_DIV16);
 8006894:	4b43      	ldr	r3, [pc, #268]	@ (80069a4 <HAL_RCC_ClockConfig+0x264>)
 8006896:	689b      	ldr	r3, [r3, #8]
 8006898:	4a42      	ldr	r2, [pc, #264]	@ (80069a4 <HAL_RCC_ClockConfig+0x264>)
 800689a:	f443 63e0 	orr.w	r3, r3, #1792	@ 0x700
 800689e:	6093      	str	r3, [r2, #8]
    }
    if (((RCC_ClkInitStruct->ClockType) & RCC_CLOCKTYPE_PCLK2) == RCC_CLOCKTYPE_PCLK2)
 80068a0:	687b      	ldr	r3, [r7, #4]
 80068a2:	681b      	ldr	r3, [r3, #0]
 80068a4:	f003 0308 	and.w	r3, r3, #8
 80068a8:	2b00      	cmp	r3, #0
 80068aa:	d007      	beq.n	80068bc <HAL_RCC_ClockConfig+0x17c>
    {
      MODIFY_REG(RCC->CFGR, RCC_CFGR_PPRE2, RCC_HCLK_DIV16);
 80068ac:	4b3d      	ldr	r3, [pc, #244]	@ (80069a4 <HAL_RCC_ClockConfig+0x264>)
 80068ae:	689b      	ldr	r3, [r3, #8]
 80068b0:	f423 537c 	bic.w	r3, r3, #16128	@ 0x3f00
 80068b4:	4a3b      	ldr	r2, [pc, #236]	@ (80069a4 <HAL_RCC_ClockConfig+0x264>)
 80068b6:	f443 63e0 	orr.w	r3, r3, #1792	@ 0x700
 80068ba:	6093      	str	r3, [r2, #8]
    }

    /* Set the new HCLK clock divider */
    assert_param(IS_RCC_HCLK(RCC_ClkInitStruct->AHBCLKDivider));
    MODIFY_REG(RCC->CFGR, RCC_CFGR_HPRE, RCC_ClkInitStruct->AHBCLKDivider);
 80068bc:	4b39      	ldr	r3, [pc, #228]	@ (80069a4 <HAL_RCC_ClockConfig+0x264>)
 80068be:	689b      	ldr	r3, [r3, #8]
 80068c0:	f023 02f0 	bic.w	r2, r3, #240	@ 0xf0
 80068c4:	687b      	ldr	r3, [r7, #4]
 80068c6:	689b      	ldr	r3, [r3, #8]
 80068c8:	4936      	ldr	r1, [pc, #216]	@ (80069a4 <HAL_RCC_ClockConfig+0x264>)
 80068ca:	4313      	orrs	r3, r2
 80068cc:	608b      	str	r3, [r1, #8]
 80068ce:	e008      	b.n	80068e2 <HAL_RCC_ClockConfig+0x1a2>
  }
  else
  {
    /* Is intermediate HCLK prescaler 2 applied internally, complete with HCLK prescaler 1 */
    if(hpre == RCC_SYSCLK_DIV2)
 80068d0:	697b      	ldr	r3, [r7, #20]
 80068d2:	2b80      	cmp	r3, #128	@ 0x80
 80068d4:	d105      	bne.n	80068e2 <HAL_RCC_ClockConfig+0x1a2>
    {
      MODIFY_REG(RCC->CFGR, RCC_CFGR_HPRE, RCC_SYSCLK_DIV1);
 80068d6:	4b33      	ldr	r3, [pc, #204]	@ (80069a4 <HAL_RCC_ClockConfig+0x264>)
 80068d8:	689b      	ldr	r3, [r3, #8]
 80068da:	4a32      	ldr	r2, [pc, #200]	@ (80069a4 <HAL_RCC_ClockConfig+0x264>)
 80068dc:	f023 03f0 	bic.w	r3, r3, #240	@ 0xf0
 80068e0:	6093      	str	r3, [r2, #8]
    }
  }

  /* Decreasing the number of wait states because of lower CPU frequency */
  if (FLatency < __HAL_FLASH_GET_LATENCY())
 80068e2:	4b2f      	ldr	r3, [pc, #188]	@ (80069a0 <HAL_RCC_ClockConfig+0x260>)
 80068e4:	681b      	ldr	r3, [r3, #0]
 80068e6:	f003 030f 	and.w	r3, r3, #15
 80068ea:	683a      	ldr	r2, [r7, #0]
 80068ec:	429a      	cmp	r2, r3
 80068ee:	d21d      	bcs.n	800692c <HAL_RCC_ClockConfig+0x1ec>
  {
    /* Program the new number of wait states to the LATENCY bits in the FLASH_ACR register */
    __HAL_FLASH_SET_LATENCY(FLatency);
 80068f0:	4b2b      	ldr	r3, [pc, #172]	@ (80069a0 <HAL_RCC_ClockConfig+0x260>)
 80068f2:	681b      	ldr	r3, [r3, #0]
 80068f4:	f023 020f 	bic.w	r2, r3, #15
 80068f8:	4929      	ldr	r1, [pc, #164]	@ (80069a0 <HAL_RCC_ClockConfig+0x260>)
 80068fa:	683b      	ldr	r3, [r7, #0]
 80068fc:	4313      	orrs	r3, r2
 80068fe:	600b      	str	r3, [r1, #0]

    /* Check that the new number of wait states is taken into account to access the Flash
    memory by polling the FLASH_ACR register */
    tickstart = HAL_GetTick();
 8006900:	f7fc fe26 	bl	8003550 <HAL_GetTick>
 8006904:	60f8      	str	r0, [r7, #12]

    while (__HAL_FLASH_GET_LATENCY() != FLatency)
 8006906:	e00a      	b.n	800691e <HAL_RCC_ClockConfig+0x1de>
    {
      if ((HAL_GetTick() - tickstart) > CLOCKSWITCH_TIMEOUT_VALUE)
 8006908:	f7fc fe22 	bl	8003550 <HAL_GetTick>
 800690c:	4602      	mov	r2, r0
 800690e:	68fb      	ldr	r3, [r7, #12]
 8006910:	1ad3      	subs	r3, r2, r3
 8006912:	f241 3288 	movw	r2, #5000	@ 0x1388
 8006916:	4293      	cmp	r3, r2
 8006918:	d901      	bls.n	800691e <HAL_RCC_ClockConfig+0x1de>
      {
        return HAL_TIMEOUT;
 800691a:	2303      	movs	r3, #3
 800691c:	e03b      	b.n	8006996 <HAL_RCC_ClockConfig+0x256>
    while (__HAL_FLASH_GET_LATENCY() != FLatency)
 800691e:	4b20      	ldr	r3, [pc, #128]	@ (80069a0 <HAL_RCC_ClockConfig+0x260>)
 8006920:	681b      	ldr	r3, [r3, #0]
 8006922:	f003 030f 	and.w	r3, r3, #15
 8006926:	683a      	ldr	r2, [r7, #0]
 8006928:	429a      	cmp	r2, r3
 800692a:	d1ed      	bne.n	8006908 <HAL_RCC_ClockConfig+0x1c8>
      }
    }
  }

  /*-------------------------- PCLK1 Configuration ---------------------------*/
  if (((RCC_ClkInitStruct->ClockType) & RCC_CLOCKTYPE_PCLK1) == RCC_CLOCKTYPE_PCLK1)
 800692c:	687b      	ldr	r3, [r7, #4]
 800692e:	681b      	ldr	r3, [r3, #0]
 8006930:	f003 0304 	and.w	r3, r3, #4
 8006934:	2b00      	cmp	r3, #0
 8006936:	d008      	beq.n	800694a <HAL_RCC_ClockConfig+0x20a>
  {
    assert_param(IS_RCC_PCLK(RCC_ClkInitStruct->APB1CLKDivider));
    MODIFY_REG(RCC->CFGR, RCC_CFGR_PPRE1, RCC_ClkInitStruct->APB1CLKDivider);
 8006938:	4b1a      	ldr	r3, [pc, #104]	@ (80069a4 <HAL_RCC_ClockConfig+0x264>)
 800693a:	689b      	ldr	r3, [r3, #8]
 800693c:	f423 62e0 	bic.w	r2, r3, #1792	@ 0x700
 8006940:	687b      	ldr	r3, [r7, #4]
 8006942:	68db      	ldr	r3, [r3, #12]
 8006944:	4917      	ldr	r1, [pc, #92]	@ (80069a4 <HAL_RCC_ClockConfig+0x264>)
 8006946:	4313      	orrs	r3, r2
 8006948:	608b      	str	r3, [r1, #8]
  }

  /*-------------------------- PCLK2 Configuration ---------------------------*/
  if(((RCC_ClkInitStruct->ClockType) & RCC_CLOCKTYPE_PCLK2) == RCC_CLOCKTYPE_PCLK2)
 800694a:	687b      	ldr	r3, [r7, #4]
 800694c:	681b      	ldr	r3, [r3, #0]
 800694e:	f003 0308 	and.w	r3, r3, #8
 8006952:	2b00      	cmp	r3, #0
 8006954:	d009      	beq.n	800696a <HAL_RCC_ClockConfig+0x22a>
  {
    assert_param(IS_RCC_PCLK(RCC_ClkInitStruct->APB2CLKDivider));
    MODIFY_REG(RCC->CFGR, RCC_CFGR_PPRE2, ((RCC_ClkInitStruct->APB2CLKDivider) << 3U));
 8006956:	4b13      	ldr	r3, [pc, #76]	@ (80069a4 <HAL_RCC_ClockConfig+0x264>)
 8006958:	689b      	ldr	r3, [r3, #8]
 800695a:	f423 5260 	bic.w	r2, r3, #14336	@ 0x3800
 800695e:	687b      	ldr	r3, [r7, #4]
 8006960:	691b      	ldr	r3, [r3, #16]
 8006962:	00db      	lsls	r3, r3, #3
 8006964:	490f      	ldr	r1, [pc, #60]	@ (80069a4 <HAL_RCC_ClockConfig+0x264>)
 8006966:	4313      	orrs	r3, r2
 8006968:	608b      	str	r3, [r1, #8]
  }

  /* Update the SystemCoreClock global variable */
  SystemCoreClock = HAL_RCC_GetSysClockFreq() >> (AHBPrescTable[READ_BIT(RCC->CFGR, RCC_CFGR_HPRE) >> RCC_CFGR_HPRE_Pos] & 0x1FU);
 800696a:	f000 f825 	bl	80069b8 <HAL_RCC_GetSysClockFreq>
 800696e:	4602      	mov	r2, r0
 8006970:	4b0c      	ldr	r3, [pc, #48]	@ (80069a4 <HAL_RCC_ClockConfig+0x264>)
 8006972:	689b      	ldr	r3, [r3, #8]
 8006974:	091b      	lsrs	r3, r3, #4
 8006976:	f003 030f 	and.w	r3, r3, #15
 800697a:	490c      	ldr	r1, [pc, #48]	@ (80069ac <HAL_RCC_ClockConfig+0x26c>)
 800697c:	5ccb      	ldrb	r3, [r1, r3]
 800697e:	f003 031f 	and.w	r3, r3, #31
 8006982:	fa22 f303 	lsr.w	r3, r2, r3
 8006986:	4a0a      	ldr	r2, [pc, #40]	@ (80069b0 <HAL_RCC_ClockConfig+0x270>)
 8006988:	6013      	str	r3, [r2, #0]

  /* Configure the source of time base considering new system clocks settings*/
  return HAL_InitTick(uwTickPrio);
 800698a:	4b0a      	ldr	r3, [pc, #40]	@ (80069b4 <HAL_RCC_ClockConfig+0x274>)
 800698c:	681b      	ldr	r3, [r3, #0]
 800698e:	4618      	mov	r0, r3
 8006990:	f7fc fd92 	bl	80034b8 <HAL_InitTick>
 8006994:	4603      	mov	r3, r0
}
 8006996:	4618      	mov	r0, r3
 8006998:	3718      	adds	r7, #24
 800699a:	46bd      	mov	sp, r7
 800699c:	bd80      	pop	{r7, pc}
 800699e:	bf00      	nop
 80069a0:	40022000 	.word	0x40022000
 80069a4:	40021000 	.word	0x40021000
 80069a8:	04c4b400 	.word	0x04c4b400
 80069ac:	080098b0 	.word	0x080098b0
 80069b0:	20000004 	.word	0x20000004
 80069b4:	20000008 	.word	0x20000008

080069b8 <HAL_RCC_GetSysClockFreq>:
  *
  *
  * @retval SYSCLK frequency
  */
uint32_t HAL_RCC_GetSysClockFreq(void)
{
 80069b8:	b480      	push	{r7}
 80069ba:	b087      	sub	sp, #28
 80069bc:	af00      	add	r7, sp, #0
  uint32_t pllvco, pllsource, pllr, pllm;
  uint32_t sysclockfreq;

  if (__HAL_RCC_GET_SYSCLK_SOURCE() == RCC_CFGR_SWS_HSI)
 80069be:	4b2c      	ldr	r3, [pc, #176]	@ (8006a70 <HAL_RCC_GetSysClockFreq+0xb8>)
 80069c0:	689b      	ldr	r3, [r3, #8]
 80069c2:	f003 030c 	and.w	r3, r3, #12
 80069c6:	2b04      	cmp	r3, #4
 80069c8:	d102      	bne.n	80069d0 <HAL_RCC_GetSysClockFreq+0x18>
  {
    /* HSI used as system clock source */
    sysclockfreq = HSI_VALUE;
 80069ca:	4b2a      	ldr	r3, [pc, #168]	@ (8006a74 <HAL_RCC_GetSysClockFreq+0xbc>)
 80069cc:	613b      	str	r3, [r7, #16]
 80069ce:	e047      	b.n	8006a60 <HAL_RCC_GetSysClockFreq+0xa8>
  }
  else if (__HAL_RCC_GET_SYSCLK_SOURCE() == RCC_CFGR_SWS_HSE)
 80069d0:	4b27      	ldr	r3, [pc, #156]	@ (8006a70 <HAL_RCC_GetSysClockFreq+0xb8>)
 80069d2:	689b      	ldr	r3, [r3, #8]
 80069d4:	f003 030c 	and.w	r3, r3, #12
 80069d8:	2b08      	cmp	r3, #8
 80069da:	d102      	bne.n	80069e2 <HAL_RCC_GetSysClockFreq+0x2a>
  {
    /* HSE used as system clock source */
    sysclockfreq = HSE_VALUE;
 80069dc:	4b26      	ldr	r3, [pc, #152]	@ (8006a78 <HAL_RCC_GetSysClockFreq+0xc0>)
 80069de:	613b      	str	r3, [r7, #16]
 80069e0:	e03e      	b.n	8006a60 <HAL_RCC_GetSysClockFreq+0xa8>
  }
  else if (__HAL_RCC_GET_SYSCLK_SOURCE() == RCC_CFGR_SWS_PLL)
 80069e2:	4b23      	ldr	r3, [pc, #140]	@ (8006a70 <HAL_RCC_GetSysClockFreq+0xb8>)
 80069e4:	689b      	ldr	r3, [r3, #8]
 80069e6:	f003 030c 	and.w	r3, r3, #12
 80069ea:	2b0c      	cmp	r3, #12
 80069ec:	d136      	bne.n	8006a5c <HAL_RCC_GetSysClockFreq+0xa4>
    /* PLL used as system clock  source */

    /* PLL_VCO = ((HSE_VALUE or HSI_VALUE)/ PLLM) * PLLN
    SYSCLK = PLL_VCO / PLLR
    */
    pllsource = READ_BIT(RCC->PLLCFGR, RCC_PLLCFGR_PLLSRC);
 80069ee:	4b20      	ldr	r3, [pc, #128]	@ (8006a70 <HAL_RCC_GetSysClockFreq+0xb8>)
 80069f0:	68db      	ldr	r3, [r3, #12]
 80069f2:	f003 0303 	and.w	r3, r3, #3
 80069f6:	60fb      	str	r3, [r7, #12]
    pllm = (READ_BIT(RCC->PLLCFGR, RCC_PLLCFGR_PLLM) >> RCC_PLLCFGR_PLLM_Pos) + 1U ;
 80069f8:	4b1d      	ldr	r3, [pc, #116]	@ (8006a70 <HAL_RCC_GetSysClockFreq+0xb8>)
 80069fa:	68db      	ldr	r3, [r3, #12]
 80069fc:	091b      	lsrs	r3, r3, #4
 80069fe:	f003 030f 	and.w	r3, r3, #15
 8006a02:	3301      	adds	r3, #1
 8006a04:	60bb      	str	r3, [r7, #8]

    switch (pllsource)
 8006a06:	68fb      	ldr	r3, [r7, #12]
 8006a08:	2b03      	cmp	r3, #3
 8006a0a:	d10c      	bne.n	8006a26 <HAL_RCC_GetSysClockFreq+0x6e>
    {
    case RCC_PLLSOURCE_HSE:  /* HSE used as PLL clock source */
      pllvco = (HSE_VALUE / pllm) * (READ_BIT(RCC->PLLCFGR, RCC_PLLCFGR_PLLN) >> RCC_PLLCFGR_PLLN_Pos);
 8006a0c:	4a1a      	ldr	r2, [pc, #104]	@ (8006a78 <HAL_RCC_GetSysClockFreq+0xc0>)
 8006a0e:	68bb      	ldr	r3, [r7, #8]
 8006a10:	fbb2 f3f3 	udiv	r3, r2, r3
 8006a14:	4a16      	ldr	r2, [pc, #88]	@ (8006a70 <HAL_RCC_GetSysClockFreq+0xb8>)
 8006a16:	68d2      	ldr	r2, [r2, #12]
 8006a18:	0a12      	lsrs	r2, r2, #8
 8006a1a:	f002 027f 	and.w	r2, r2, #127	@ 0x7f
 8006a1e:	fb02 f303 	mul.w	r3, r2, r3
 8006a22:	617b      	str	r3, [r7, #20]
      break;
 8006a24:	e00c      	b.n	8006a40 <HAL_RCC_GetSysClockFreq+0x88>

    case RCC_PLLSOURCE_HSI:  /* HSI used as PLL clock source */
    default:
      pllvco = (HSI_VALUE / pllm) * (READ_BIT(RCC->PLLCFGR, RCC_PLLCFGR_PLLN) >> RCC_PLLCFGR_PLLN_Pos);
 8006a26:	4a13      	ldr	r2, [pc, #76]	@ (8006a74 <HAL_RCC_GetSysClockFreq+0xbc>)
 8006a28:	68bb      	ldr	r3, [r7, #8]
 8006a2a:	fbb2 f3f3 	udiv	r3, r2, r3
 8006a2e:	4a10      	ldr	r2, [pc, #64]	@ (8006a70 <HAL_RCC_GetSysClockFreq+0xb8>)
 8006a30:	68d2      	ldr	r2, [r2, #12]
 8006a32:	0a12      	lsrs	r2, r2, #8
 8006a34:	f002 027f 	and.w	r2, r2, #127	@ 0x7f
 8006a38:	fb02 f303 	mul.w	r3, r2, r3
 8006a3c:	617b      	str	r3, [r7, #20]
      break;
 8006a3e:	bf00      	nop
    }
    pllr = ((READ_BIT(RCC->PLLCFGR, RCC_PLLCFGR_PLLR) >> RCC_PLLCFGR_PLLR_Pos) + 1U ) * 2U;
 8006a40:	4b0b      	ldr	r3, [pc, #44]	@ (8006a70 <HAL_RCC_GetSysClockFreq+0xb8>)
 8006a42:	68db      	ldr	r3, [r3, #12]
 8006a44:	0e5b      	lsrs	r3, r3, #25
 8006a46:	f003 0303 	and.w	r3, r3, #3
 8006a4a:	3301      	adds	r3, #1
 8006a4c:	005b      	lsls	r3, r3, #1
 8006a4e:	607b      	str	r3, [r7, #4]
    sysclockfreq = pllvco/pllr;
 8006a50:	697a      	ldr	r2, [r7, #20]
 8006a52:	687b      	ldr	r3, [r7, #4]
 8006a54:	fbb2 f3f3 	udiv	r3, r2, r3
 8006a58:	613b      	str	r3, [r7, #16]
 8006a5a:	e001      	b.n	8006a60 <HAL_RCC_GetSysClockFreq+0xa8>
  }
  else
  {
    sysclockfreq = 0U;
 8006a5c:	2300      	movs	r3, #0
 8006a5e:	613b      	str	r3, [r7, #16]
  }

  return sysclockfreq;
 8006a60:	693b      	ldr	r3, [r7, #16]
}
 8006a62:	4618      	mov	r0, r3
 8006a64:	371c      	adds	r7, #28
 8006a66:	46bd      	mov	sp, r7
 8006a68:	f85d 7b04 	ldr.w	r7, [sp], #4
 8006a6c:	4770      	bx	lr
 8006a6e:	bf00      	nop
 8006a70:	40021000 	.word	0x40021000
 8006a74:	00f42400 	.word	0x00f42400
 8006a78:	007a1200 	.word	0x007a1200

08006a7c <RCC_GetSysClockFreqFromPLLSource>:
/**
  * @brief  Compute SYSCLK frequency based on PLL SYSCLK source.
  * @retval SYSCLK frequency
  */
static uint32_t RCC_GetSysClockFreqFromPLLSource(void)
{
 8006a7c:	b480      	push	{r7}
 8006a7e:	b087      	sub	sp, #28
 8006a80:	af00      	add	r7, sp, #0
  uint32_t sysclockfreq;

  /* PLL_VCO = (HSE_VALUE or HSI_VALUE/ PLLM) * PLLN
     SYSCLK = PLL_VCO / PLLR
   */
  pllsource = READ_BIT(RCC->PLLCFGR, RCC_PLLCFGR_PLLSRC);
 8006a82:	4b1e      	ldr	r3, [pc, #120]	@ (8006afc <RCC_GetSysClockFreqFromPLLSource+0x80>)
 8006a84:	68db      	ldr	r3, [r3, #12]
 8006a86:	f003 0303 	and.w	r3, r3, #3
 8006a8a:	613b      	str	r3, [r7, #16]
  pllm = (READ_BIT(RCC->PLLCFGR, RCC_PLLCFGR_PLLM) >> RCC_PLLCFGR_PLLM_Pos) + 1U ;
 8006a8c:	4b1b      	ldr	r3, [pc, #108]	@ (8006afc <RCC_GetSysClockFreqFromPLLSource+0x80>)
 8006a8e:	68db      	ldr	r3, [r3, #12]
 8006a90:	091b      	lsrs	r3, r3, #4
 8006a92:	f003 030f 	and.w	r3, r3, #15
 8006a96:	3301      	adds	r3, #1
 8006a98:	60fb      	str	r3, [r7, #12]

  switch (pllsource)
 8006a9a:	693b      	ldr	r3, [r7, #16]
 8006a9c:	2b03      	cmp	r3, #3
 8006a9e:	d10c      	bne.n	8006aba <RCC_GetSysClockFreqFromPLLSource+0x3e>
  {
  case RCC_PLLSOURCE_HSE:  /* HSE used as PLL clock source */
    pllvco = (HSE_VALUE / pllm) * (READ_BIT(RCC->PLLCFGR, RCC_PLLCFGR_PLLN) >> RCC_PLLCFGR_PLLN_Pos);
 8006aa0:	4a17      	ldr	r2, [pc, #92]	@ (8006b00 <RCC_GetSysClockFreqFromPLLSource+0x84>)
 8006aa2:	68fb      	ldr	r3, [r7, #12]
 8006aa4:	fbb2 f3f3 	udiv	r3, r2, r3
 8006aa8:	4a14      	ldr	r2, [pc, #80]	@ (8006afc <RCC_GetSysClockFreqFromPLLSource+0x80>)
 8006aaa:	68d2      	ldr	r2, [r2, #12]
 8006aac:	0a12      	lsrs	r2, r2, #8
 8006aae:	f002 027f 	and.w	r2, r2, #127	@ 0x7f
 8006ab2:	fb02 f303 	mul.w	r3, r2, r3
 8006ab6:	617b      	str	r3, [r7, #20]
    break;
 8006ab8:	e00c      	b.n	8006ad4 <RCC_GetSysClockFreqFromPLLSource+0x58>

  case RCC_PLLSOURCE_HSI:  /* HSI used as PLL clock source */
  default:
    pllvco = (HSI_VALUE / pllm) * (READ_BIT(RCC->PLLCFGR, RCC_PLLCFGR_PLLN) >> RCC_PLLCFGR_PLLN_Pos);
 8006aba:	4a12      	ldr	r2, [pc, #72]	@ (8006b04 <RCC_GetSysClockFreqFromPLLSource+0x88>)
 8006abc:	68fb      	ldr	r3, [r7, #12]
 8006abe:	fbb2 f3f3 	udiv	r3, r2, r3
 8006ac2:	4a0e      	ldr	r2, [pc, #56]	@ (8006afc <RCC_GetSysClockFreqFromPLLSource+0x80>)
 8006ac4:	68d2      	ldr	r2, [r2, #12]
 8006ac6:	0a12      	lsrs	r2, r2, #8
 8006ac8:	f002 027f 	and.w	r2, r2, #127	@ 0x7f
 8006acc:	fb02 f303 	mul.w	r3, r2, r3
 8006ad0:	617b      	str	r3, [r7, #20]
    break;
 8006ad2:	bf00      	nop
  }

  pllr = ((READ_BIT(RCC->PLLCFGR, RCC_PLLCFGR_PLLR) >> RCC_PLLCFGR_PLLR_Pos) + 1U ) * 2U;
 8006ad4:	4b09      	ldr	r3, [pc, #36]	@ (8006afc <RCC_GetSysClockFreqFromPLLSource+0x80>)
 8006ad6:	68db      	ldr	r3, [r3, #12]
 8006ad8:	0e5b      	lsrs	r3, r3, #25
 8006ada:	f003 0303 	and.w	r3, r3, #3
 8006ade:	3301      	adds	r3, #1
 8006ae0:	005b      	lsls	r3, r3, #1
 8006ae2:	60bb      	str	r3, [r7, #8]
  sysclockfreq = pllvco/pllr;
 8006ae4:	697a      	ldr	r2, [r7, #20]
 8006ae6:	68bb      	ldr	r3, [r7, #8]
 8006ae8:	fbb2 f3f3 	udiv	r3, r2, r3
 8006aec:	607b      	str	r3, [r7, #4]

  return sysclockfreq;
 8006aee:	687b      	ldr	r3, [r7, #4]
}
 8006af0:	4618      	mov	r0, r3
 8006af2:	371c      	adds	r7, #28
 8006af4:	46bd      	mov	sp, r7
 8006af6:	f85d 7b04 	ldr.w	r7, [sp], #4
 8006afa:	4770      	bx	lr
 8006afc:	40021000 	.word	0x40021000
 8006b00:	007a1200 	.word	0x007a1200
 8006b04:	00f42400 	.word	0x00f42400

08006b08 <HAL_RCCEx_PeriphCLKConfig>:
  *         the RTC clock source: in this case the access to Backup domain is enabled.
  *
  * @retval HAL status
  */
HAL_StatusTypeDef HAL_RCCEx_PeriphCLKConfig(RCC_PeriphCLKInitTypeDef const *PeriphClkInit)
{
 8006b08:	b580      	push	{r7, lr}
 8006b0a:	b086      	sub	sp, #24
 8006b0c:	af00      	add	r7, sp, #0
 8006b0e:	6078      	str	r0, [r7, #4]
  uint32_t tmpregister;
  uint32_t tickstart;
  HAL_StatusTypeDef ret = HAL_OK;      /* Intermediate status */
 8006b10:	2300      	movs	r3, #0
 8006b12:	74fb      	strb	r3, [r7, #19]
  HAL_StatusTypeDef status = HAL_OK;   /* Final status */
 8006b14:	2300      	movs	r3, #0
 8006b16:	74bb      	strb	r3, [r7, #18]

  /* Check the parameters */
  assert_param(IS_RCC_PERIPHCLOCK(PeriphClkInit->PeriphClockSelection));

  /*-------------------------- RTC clock source configuration ----------------------*/
  if((PeriphClkInit->PeriphClockSelection & RCC_PERIPHCLK_RTC) == RCC_PERIPHCLK_RTC)
 8006b18:	687b      	ldr	r3, [r7, #4]
 8006b1a:	681b      	ldr	r3, [r3, #0]
 8006b1c:	f403 2300 	and.w	r3, r3, #524288	@ 0x80000
 8006b20:	2b00      	cmp	r3, #0
 8006b22:	f000 8098 	beq.w	8006c56 <HAL_RCCEx_PeriphCLKConfig+0x14e>
  {
    FlagStatus       pwrclkchanged = RESET;
 8006b26:	2300      	movs	r3, #0
 8006b28:	747b      	strb	r3, [r7, #17]
    
    /* Check for RTC Parameters used to output RTCCLK */
    assert_param(IS_RCC_RTCCLKSOURCE(PeriphClkInit->RTCClockSelection));

    /* Enable Power Clock */
    if(__HAL_RCC_PWR_IS_CLK_DISABLED())
 8006b2a:	4b43      	ldr	r3, [pc, #268]	@ (8006c38 <HAL_RCCEx_PeriphCLKConfig+0x130>)
 8006b2c:	6d9b      	ldr	r3, [r3, #88]	@ 0x58
 8006b2e:	f003 5380 	and.w	r3, r3, #268435456	@ 0x10000000
 8006b32:	2b00      	cmp	r3, #0
 8006b34:	d10d      	bne.n	8006b52 <HAL_RCCEx_PeriphCLKConfig+0x4a>
    {
      __HAL_RCC_PWR_CLK_ENABLE();
 8006b36:	4b40      	ldr	r3, [pc, #256]	@ (8006c38 <HAL_RCCEx_PeriphCLKConfig+0x130>)
 8006b38:	6d9b      	ldr	r3, [r3, #88]	@ 0x58
 8006b3a:	4a3f      	ldr	r2, [pc, #252]	@ (8006c38 <HAL_RCCEx_PeriphCLKConfig+0x130>)
 8006b3c:	f043 5380 	orr.w	r3, r3, #268435456	@ 0x10000000
 8006b40:	6593      	str	r3, [r2, #88]	@ 0x58
 8006b42:	4b3d      	ldr	r3, [pc, #244]	@ (8006c38 <HAL_RCCEx_PeriphCLKConfig+0x130>)
 8006b44:	6d9b      	ldr	r3, [r3, #88]	@ 0x58
 8006b46:	f003 5380 	and.w	r3, r3, #268435456	@ 0x10000000
 8006b4a:	60bb      	str	r3, [r7, #8]
 8006b4c:	68bb      	ldr	r3, [r7, #8]
      pwrclkchanged = SET;
 8006b4e:	2301      	movs	r3, #1
 8006b50:	747b      	strb	r3, [r7, #17]
    }
      
    /* Enable write access to Backup domain */
    SET_BIT(PWR->CR1, PWR_CR1_DBP);
 8006b52:	4b3a      	ldr	r3, [pc, #232]	@ (8006c3c <HAL_RCCEx_PeriphCLKConfig+0x134>)
 8006b54:	681b      	ldr	r3, [r3, #0]
 8006b56:	4a39      	ldr	r2, [pc, #228]	@ (8006c3c <HAL_RCCEx_PeriphCLKConfig+0x134>)
 8006b58:	f443 7380 	orr.w	r3, r3, #256	@ 0x100
 8006b5c:	6013      	str	r3, [r2, #0]

    /* Wait for Backup domain Write protection disable */
    tickstart = HAL_GetTick();
 8006b5e:	f7fc fcf7 	bl	8003550 <HAL_GetTick>
 8006b62:	60f8      	str	r0, [r7, #12]

    while((PWR->CR1 & PWR_CR1_DBP) == 0U)
 8006b64:	e009      	b.n	8006b7a <HAL_RCCEx_PeriphCLKConfig+0x72>
    {
      if((HAL_GetTick() - tickstart) > RCC_DBP_TIMEOUT_VALUE)
 8006b66:	f7fc fcf3 	bl	8003550 <HAL_GetTick>
 8006b6a:	4602      	mov	r2, r0
 8006b6c:	68fb      	ldr	r3, [r7, #12]
 8006b6e:	1ad3      	subs	r3, r2, r3
 8006b70:	2b02      	cmp	r3, #2
 8006b72:	d902      	bls.n	8006b7a <HAL_RCCEx_PeriphCLKConfig+0x72>
      {
        ret = HAL_TIMEOUT;
 8006b74:	2303      	movs	r3, #3
 8006b76:	74fb      	strb	r3, [r7, #19]
        break;
 8006b78:	e005      	b.n	8006b86 <HAL_RCCEx_PeriphCLKConfig+0x7e>
    while((PWR->CR1 & PWR_CR1_DBP) == 0U)
 8006b7a:	4b30      	ldr	r3, [pc, #192]	@ (8006c3c <HAL_RCCEx_PeriphCLKConfig+0x134>)
 8006b7c:	681b      	ldr	r3, [r3, #0]
 8006b7e:	f403 7380 	and.w	r3, r3, #256	@ 0x100
 8006b82:	2b00      	cmp	r3, #0
 8006b84:	d0ef      	beq.n	8006b66 <HAL_RCCEx_PeriphCLKConfig+0x5e>
      }
    }

    if(ret == HAL_OK)
 8006b86:	7cfb      	ldrb	r3, [r7, #19]
 8006b88:	2b00      	cmp	r3, #0
 8006b8a:	d159      	bne.n	8006c40 <HAL_RCCEx_PeriphCLKConfig+0x138>
    { 
      /* Reset the Backup domain only if the RTC Clock source selection is modified from default */
      tmpregister = READ_BIT(RCC->BDCR, RCC_BDCR_RTCSEL);
 8006b8c:	4b2a      	ldr	r3, [pc, #168]	@ (8006c38 <HAL_RCCEx_PeriphCLKConfig+0x130>)
 8006b8e:	f8d3 3090 	ldr.w	r3, [r3, #144]	@ 0x90
 8006b92:	f403 7340 	and.w	r3, r3, #768	@ 0x300
 8006b96:	617b      	str	r3, [r7, #20]
      
      if((tmpregister != RCC_RTCCLKSOURCE_NONE) && (tmpregister != PeriphClkInit->RTCClockSelection))
 8006b98:	697b      	ldr	r3, [r7, #20]
 8006b9a:	2b00      	cmp	r3, #0
 8006b9c:	d01e      	beq.n	8006bdc <HAL_RCCEx_PeriphCLKConfig+0xd4>
 8006b9e:	687b      	ldr	r3, [r7, #4]
 8006ba0:	6c1b      	ldr	r3, [r3, #64]	@ 0x40
 8006ba2:	697a      	ldr	r2, [r7, #20]
 8006ba4:	429a      	cmp	r2, r3
 8006ba6:	d019      	beq.n	8006bdc <HAL_RCCEx_PeriphCLKConfig+0xd4>
      {
        /* Store the content of BDCR register before the reset of Backup Domain */
        tmpregister = READ_BIT(RCC->BDCR, ~(RCC_BDCR_RTCSEL));
 8006ba8:	4b23      	ldr	r3, [pc, #140]	@ (8006c38 <HAL_RCCEx_PeriphCLKConfig+0x130>)
 8006baa:	f8d3 3090 	ldr.w	r3, [r3, #144]	@ 0x90
 8006bae:	f423 7340 	bic.w	r3, r3, #768	@ 0x300
 8006bb2:	617b      	str	r3, [r7, #20]
        /* RTC Clock selection can be changed only if the Backup Domain is reset */
        __HAL_RCC_BACKUPRESET_FORCE();
 8006bb4:	4b20      	ldr	r3, [pc, #128]	@ (8006c38 <HAL_RCCEx_PeriphCLKConfig+0x130>)
 8006bb6:	f8d3 3090 	ldr.w	r3, [r3, #144]	@ 0x90
 8006bba:	4a1f      	ldr	r2, [pc, #124]	@ (8006c38 <HAL_RCCEx_PeriphCLKConfig+0x130>)
 8006bbc:	f443 3380 	orr.w	r3, r3, #65536	@ 0x10000
 8006bc0:	f8c2 3090 	str.w	r3, [r2, #144]	@ 0x90
        __HAL_RCC_BACKUPRESET_RELEASE();
 8006bc4:	4b1c      	ldr	r3, [pc, #112]	@ (8006c38 <HAL_RCCEx_PeriphCLKConfig+0x130>)
 8006bc6:	f8d3 3090 	ldr.w	r3, [r3, #144]	@ 0x90
 8006bca:	4a1b      	ldr	r2, [pc, #108]	@ (8006c38 <HAL_RCCEx_PeriphCLKConfig+0x130>)
 8006bcc:	f423 3380 	bic.w	r3, r3, #65536	@ 0x10000
 8006bd0:	f8c2 3090 	str.w	r3, [r2, #144]	@ 0x90
        /* Restore the Content of BDCR register */
        RCC->BDCR = tmpregister;
 8006bd4:	4a18      	ldr	r2, [pc, #96]	@ (8006c38 <HAL_RCCEx_PeriphCLKConfig+0x130>)
 8006bd6:	697b      	ldr	r3, [r7, #20]
 8006bd8:	f8c2 3090 	str.w	r3, [r2, #144]	@ 0x90
      }

      /* Wait for LSE reactivation if LSE was enable prior to Backup Domain reset */
      if (HAL_IS_BIT_SET(tmpregister, RCC_BDCR_LSEON))
 8006bdc:	697b      	ldr	r3, [r7, #20]
 8006bde:	f003 0301 	and.w	r3, r3, #1
 8006be2:	2b00      	cmp	r3, #0
 8006be4:	d016      	beq.n	8006c14 <HAL_RCCEx_PeriphCLKConfig+0x10c>
      {
        /* Get Start Tick*/
        tickstart = HAL_GetTick();
 8006be6:	f7fc fcb3 	bl	8003550 <HAL_GetTick>
 8006bea:	60f8      	str	r0, [r7, #12]

        /* Wait till LSE is ready */
        while(READ_BIT(RCC->BDCR, RCC_BDCR_LSERDY) == 0U)
 8006bec:	e00b      	b.n	8006c06 <HAL_RCCEx_PeriphCLKConfig+0xfe>
        {
          if((HAL_GetTick() - tickstart) > RCC_LSE_TIMEOUT_VALUE)
 8006bee:	f7fc fcaf 	bl	8003550 <HAL_GetTick>
 8006bf2:	4602      	mov	r2, r0
 8006bf4:	68fb      	ldr	r3, [r7, #12]
 8006bf6:	1ad3      	subs	r3, r2, r3
 8006bf8:	f241 3288 	movw	r2, #5000	@ 0x1388
 8006bfc:	4293      	cmp	r3, r2
 8006bfe:	d902      	bls.n	8006c06 <HAL_RCCEx_PeriphCLKConfig+0xfe>
          {
            ret = HAL_TIMEOUT;
 8006c00:	2303      	movs	r3, #3
 8006c02:	74fb      	strb	r3, [r7, #19]
            break;
 8006c04:	e006      	b.n	8006c14 <HAL_RCCEx_PeriphCLKConfig+0x10c>
        while(READ_BIT(RCC->BDCR, RCC_BDCR_LSERDY) == 0U)
 8006c06:	4b0c      	ldr	r3, [pc, #48]	@ (8006c38 <HAL_RCCEx_PeriphCLKConfig+0x130>)
 8006c08:	f8d3 3090 	ldr.w	r3, [r3, #144]	@ 0x90
 8006c0c:	f003 0302 	and.w	r3, r3, #2
 8006c10:	2b00      	cmp	r3, #0
 8006c12:	d0ec      	beq.n	8006bee <HAL_RCCEx_PeriphCLKConfig+0xe6>
          }
        }
      }
      
      if(ret == HAL_OK)
 8006c14:	7cfb      	ldrb	r3, [r7, #19]
 8006c16:	2b00      	cmp	r3, #0
 8006c18:	d10b      	bne.n	8006c32 <HAL_RCCEx_PeriphCLKConfig+0x12a>
      {
        /* Apply new RTC clock source selection */
        __HAL_RCC_RTC_CONFIG(PeriphClkInit->RTCClockSelection);
 8006c1a:	4b07      	ldr	r3, [pc, #28]	@ (8006c38 <HAL_RCCEx_PeriphCLKConfig+0x130>)
 8006c1c:	f8d3 3090 	ldr.w	r3, [r3, #144]	@ 0x90
 8006c20:	f423 7240 	bic.w	r2, r3, #768	@ 0x300
 8006c24:	687b      	ldr	r3, [r7, #4]
 8006c26:	6c1b      	ldr	r3, [r3, #64]	@ 0x40
 8006c28:	4903      	ldr	r1, [pc, #12]	@ (8006c38 <HAL_RCCEx_PeriphCLKConfig+0x130>)
 8006c2a:	4313      	orrs	r3, r2
 8006c2c:	f8c1 3090 	str.w	r3, [r1, #144]	@ 0x90
 8006c30:	e008      	b.n	8006c44 <HAL_RCCEx_PeriphCLKConfig+0x13c>
      }
      else
      {
        /* set overall return value */
        status = ret;
 8006c32:	7cfb      	ldrb	r3, [r7, #19]
 8006c34:	74bb      	strb	r3, [r7, #18]
 8006c36:	e005      	b.n	8006c44 <HAL_RCCEx_PeriphCLKConfig+0x13c>
 8006c38:	40021000 	.word	0x40021000
 8006c3c:	40007000 	.word	0x40007000
      }
    }
    else
    {
      /* set overall return value */
      status = ret;
 8006c40:	7cfb      	ldrb	r3, [r7, #19]
 8006c42:	74bb      	strb	r3, [r7, #18]
    }

    /* Restore clock configuration if changed */
    if(pwrclkchanged == SET)
 8006c44:	7c7b      	ldrb	r3, [r7, #17]
 8006c46:	2b01      	cmp	r3, #1
 8006c48:	d105      	bne.n	8006c56 <HAL_RCCEx_PeriphCLKConfig+0x14e>
    {
      __HAL_RCC_PWR_CLK_DISABLE();
 8006c4a:	4ba6      	ldr	r3, [pc, #664]	@ (8006ee4 <HAL_RCCEx_PeriphCLKConfig+0x3dc>)
 8006c4c:	6d9b      	ldr	r3, [r3, #88]	@ 0x58
 8006c4e:	4aa5      	ldr	r2, [pc, #660]	@ (8006ee4 <HAL_RCCEx_PeriphCLKConfig+0x3dc>)
 8006c50:	f023 5380 	bic.w	r3, r3, #268435456	@ 0x10000000
 8006c54:	6593      	str	r3, [r2, #88]	@ 0x58
    }
  }

  /*-------------------------- USART1 clock source configuration -------------------*/
  if(((PeriphClkInit->PeriphClockSelection) & RCC_PERIPHCLK_USART1) == RCC_PERIPHCLK_USART1)
 8006c56:	687b      	ldr	r3, [r7, #4]
 8006c58:	681b      	ldr	r3, [r3, #0]
 8006c5a:	f003 0301 	and.w	r3, r3, #1
 8006c5e:	2b00      	cmp	r3, #0
 8006c60:	d00a      	beq.n	8006c78 <HAL_RCCEx_PeriphCLKConfig+0x170>
  {
    /* Check the parameters */
    assert_param(IS_RCC_USART1CLKSOURCE(PeriphClkInit->Usart1ClockSelection));

    /* Configure the USART1 clock source */
    __HAL_RCC_USART1_CONFIG(PeriphClkInit->Usart1ClockSelection);
 8006c62:	4ba0      	ldr	r3, [pc, #640]	@ (8006ee4 <HAL_RCCEx_PeriphCLKConfig+0x3dc>)
 8006c64:	f8d3 3088 	ldr.w	r3, [r3, #136]	@ 0x88
 8006c68:	f023 0203 	bic.w	r2, r3, #3
 8006c6c:	687b      	ldr	r3, [r7, #4]
 8006c6e:	685b      	ldr	r3, [r3, #4]
 8006c70:	499c      	ldr	r1, [pc, #624]	@ (8006ee4 <HAL_RCCEx_PeriphCLKConfig+0x3dc>)
 8006c72:	4313      	orrs	r3, r2
 8006c74:	f8c1 3088 	str.w	r3, [r1, #136]	@ 0x88
  }

  /*-------------------------- USART2 clock source configuration -------------------*/
  if(((PeriphClkInit->PeriphClockSelection) & RCC_PERIPHCLK_USART2) == RCC_PERIPHCLK_USART2)
 8006c78:	687b      	ldr	r3, [r7, #4]
 8006c7a:	681b      	ldr	r3, [r3, #0]
 8006c7c:	f003 0302 	and.w	r3, r3, #2
 8006c80:	2b00      	cmp	r3, #0
 8006c82:	d00a      	beq.n	8006c9a <HAL_RCCEx_PeriphCLKConfig+0x192>
  {
    /* Check the parameters */
    assert_param(IS_RCC_USART2CLKSOURCE(PeriphClkInit->Usart2ClockSelection));

    /* Configure the USART2 clock source */
    __HAL_RCC_USART2_CONFIG(PeriphClkInit->Usart2ClockSelection);
 8006c84:	4b97      	ldr	r3, [pc, #604]	@ (8006ee4 <HAL_RCCEx_PeriphCLKConfig+0x3dc>)
 8006c86:	f8d3 3088 	ldr.w	r3, [r3, #136]	@ 0x88
 8006c8a:	f023 020c 	bic.w	r2, r3, #12
 8006c8e:	687b      	ldr	r3, [r7, #4]
 8006c90:	689b      	ldr	r3, [r3, #8]
 8006c92:	4994      	ldr	r1, [pc, #592]	@ (8006ee4 <HAL_RCCEx_PeriphCLKConfig+0x3dc>)
 8006c94:	4313      	orrs	r3, r2
 8006c96:	f8c1 3088 	str.w	r3, [r1, #136]	@ 0x88
  }

#if defined(USART3)

  /*-------------------------- USART3 clock source configuration -------------------*/
  if(((PeriphClkInit->PeriphClockSelection) & RCC_PERIPHCLK_USART3) == RCC_PERIPHCLK_USART3)
 8006c9a:	687b      	ldr	r3, [r7, #4]
 8006c9c:	681b      	ldr	r3, [r3, #0]
 8006c9e:	f003 0304 	and.w	r3, r3, #4
 8006ca2:	2b00      	cmp	r3, #0
 8006ca4:	d00a      	beq.n	8006cbc <HAL_RCCEx_PeriphCLKConfig+0x1b4>
  {
    /* Check the parameters */
    assert_param(IS_RCC_USART3CLKSOURCE(PeriphClkInit->Usart3ClockSelection));

    /* Configure the USART3 clock source */
    __HAL_RCC_USART3_CONFIG(PeriphClkInit->Usart3ClockSelection);
 8006ca6:	4b8f      	ldr	r3, [pc, #572]	@ (8006ee4 <HAL_RCCEx_PeriphCLKConfig+0x3dc>)
 8006ca8:	f8d3 3088 	ldr.w	r3, [r3, #136]	@ 0x88
 8006cac:	f023 0230 	bic.w	r2, r3, #48	@ 0x30
 8006cb0:	687b      	ldr	r3, [r7, #4]
 8006cb2:	68db      	ldr	r3, [r3, #12]
 8006cb4:	498b      	ldr	r1, [pc, #556]	@ (8006ee4 <HAL_RCCEx_PeriphCLKConfig+0x3dc>)
 8006cb6:	4313      	orrs	r3, r2
 8006cb8:	f8c1 3088 	str.w	r3, [r1, #136]	@ 0x88

#endif /* USART3 */

#if defined(UART4)
  /*-------------------------- UART4 clock source configuration --------------------*/
  if(((PeriphClkInit->PeriphClockSelection) & RCC_PERIPHCLK_UART4) == RCC_PERIPHCLK_UART4)
 8006cbc:	687b      	ldr	r3, [r7, #4]
 8006cbe:	681b      	ldr	r3, [r3, #0]
 8006cc0:	f003 0308 	and.w	r3, r3, #8
 8006cc4:	2b00      	cmp	r3, #0
 8006cc6:	d00a      	beq.n	8006cde <HAL_RCCEx_PeriphCLKConfig+0x1d6>
  {
    /* Check the parameters */
    assert_param(IS_RCC_UART4CLKSOURCE(PeriphClkInit->Uart4ClockSelection));

    /* Configure the UART4 clock source */
    __HAL_RCC_UART4_CONFIG(PeriphClkInit->Uart4ClockSelection);
 8006cc8:	4b86      	ldr	r3, [pc, #536]	@ (8006ee4 <HAL_RCCEx_PeriphCLKConfig+0x3dc>)
 8006cca:	f8d3 3088 	ldr.w	r3, [r3, #136]	@ 0x88
 8006cce:	f023 02c0 	bic.w	r2, r3, #192	@ 0xc0
 8006cd2:	687b      	ldr	r3, [r7, #4]
 8006cd4:	691b      	ldr	r3, [r3, #16]
 8006cd6:	4983      	ldr	r1, [pc, #524]	@ (8006ee4 <HAL_RCCEx_PeriphCLKConfig+0x3dc>)
 8006cd8:	4313      	orrs	r3, r2
 8006cda:	f8c1 3088 	str.w	r3, [r1, #136]	@ 0x88
  }

#endif /* UART5 */

  /*-------------------------- LPUART1 clock source configuration ------------------*/
  if(((PeriphClkInit->PeriphClockSelection) & RCC_PERIPHCLK_LPUART1) == RCC_PERIPHCLK_LPUART1)
 8006cde:	687b      	ldr	r3, [r7, #4]
 8006ce0:	681b      	ldr	r3, [r3, #0]
 8006ce2:	f003 0320 	and.w	r3, r3, #32
 8006ce6:	2b00      	cmp	r3, #0
 8006ce8:	d00a      	beq.n	8006d00 <HAL_RCCEx_PeriphCLKConfig+0x1f8>
  {
    /* Check the parameters */
    assert_param(IS_RCC_LPUART1CLKSOURCE(PeriphClkInit->Lpuart1ClockSelection));

    /* Configure the LPUAR1 clock source */
    __HAL_RCC_LPUART1_CONFIG(PeriphClkInit->Lpuart1ClockSelection);
 8006cea:	4b7e      	ldr	r3, [pc, #504]	@ (8006ee4 <HAL_RCCEx_PeriphCLKConfig+0x3dc>)
 8006cec:	f8d3 3088 	ldr.w	r3, [r3, #136]	@ 0x88
 8006cf0:	f423 6240 	bic.w	r2, r3, #3072	@ 0xc00
 8006cf4:	687b      	ldr	r3, [r7, #4]
 8006cf6:	695b      	ldr	r3, [r3, #20]
 8006cf8:	497a      	ldr	r1, [pc, #488]	@ (8006ee4 <HAL_RCCEx_PeriphCLKConfig+0x3dc>)
 8006cfa:	4313      	orrs	r3, r2
 8006cfc:	f8c1 3088 	str.w	r3, [r1, #136]	@ 0x88
  }

  /*-------------------------- I2C1 clock source configuration ---------------------*/
  if(((PeriphClkInit->PeriphClockSelection) & RCC_PERIPHCLK_I2C1) == RCC_PERIPHCLK_I2C1)
 8006d00:	687b      	ldr	r3, [r7, #4]
 8006d02:	681b      	ldr	r3, [r3, #0]
 8006d04:	f003 0340 	and.w	r3, r3, #64	@ 0x40
 8006d08:	2b00      	cmp	r3, #0
 8006d0a:	d00a      	beq.n	8006d22 <HAL_RCCEx_PeriphCLKConfig+0x21a>
  {
    /* Check the parameters */
    assert_param(IS_RCC_I2C1CLKSOURCE(PeriphClkInit->I2c1ClockSelection));

    /* Configure the I2C1 clock source */
    __HAL_RCC_I2C1_CONFIG(PeriphClkInit->I2c1ClockSelection);
 8006d0c:	4b75      	ldr	r3, [pc, #468]	@ (8006ee4 <HAL_RCCEx_PeriphCLKConfig+0x3dc>)
 8006d0e:	f8d3 3088 	ldr.w	r3, [r3, #136]	@ 0x88
 8006d12:	f423 5240 	bic.w	r2, r3, #12288	@ 0x3000
 8006d16:	687b      	ldr	r3, [r7, #4]
 8006d18:	699b      	ldr	r3, [r3, #24]
 8006d1a:	4972      	ldr	r1, [pc, #456]	@ (8006ee4 <HAL_RCCEx_PeriphCLKConfig+0x3dc>)
 8006d1c:	4313      	orrs	r3, r2
 8006d1e:	f8c1 3088 	str.w	r3, [r1, #136]	@ 0x88
  }

  /*-------------------------- I2C2 clock source configuration ---------------------*/
  if(((PeriphClkInit->PeriphClockSelection) & RCC_PERIPHCLK_I2C2) == RCC_PERIPHCLK_I2C2)
 8006d22:	687b      	ldr	r3, [r7, #4]
 8006d24:	681b      	ldr	r3, [r3, #0]
 8006d26:	f003 0380 	and.w	r3, r3, #128	@ 0x80
 8006d2a:	2b00      	cmp	r3, #0
 8006d2c:	d00a      	beq.n	8006d44 <HAL_RCCEx_PeriphCLKConfig+0x23c>
  {
    /* Check the parameters */
    assert_param(IS_RCC_I2C2CLKSOURCE(PeriphClkInit->I2c2ClockSelection));

    /* Configure the I2C2 clock source */
    __HAL_RCC_I2C2_CONFIG(PeriphClkInit->I2c2ClockSelection);
 8006d2e:	4b6d      	ldr	r3, [pc, #436]	@ (8006ee4 <HAL_RCCEx_PeriphCLKConfig+0x3dc>)
 8006d30:	f8d3 3088 	ldr.w	r3, [r3, #136]	@ 0x88
 8006d34:	f423 4240 	bic.w	r2, r3, #49152	@ 0xc000
 8006d38:	687b      	ldr	r3, [r7, #4]
 8006d3a:	69db      	ldr	r3, [r3, #28]
 8006d3c:	4969      	ldr	r1, [pc, #420]	@ (8006ee4 <HAL_RCCEx_PeriphCLKConfig+0x3dc>)
 8006d3e:	4313      	orrs	r3, r2
 8006d40:	f8c1 3088 	str.w	r3, [r1, #136]	@ 0x88
  }
#if defined(I2C3)

  /*-------------------------- I2C3 clock source configuration ---------------------*/
  if(((PeriphClkInit->PeriphClockSelection) & RCC_PERIPHCLK_I2C3) == RCC_PERIPHCLK_I2C3)
 8006d44:	687b      	ldr	r3, [r7, #4]
 8006d46:	681b      	ldr	r3, [r3, #0]
 8006d48:	f403 7380 	and.w	r3, r3, #256	@ 0x100
 8006d4c:	2b00      	cmp	r3, #0
 8006d4e:	d00a      	beq.n	8006d66 <HAL_RCCEx_PeriphCLKConfig+0x25e>
  {
    /* Check the parameters */
    assert_param(IS_RCC_I2C3CLKSOURCE(PeriphClkInit->I2c3ClockSelection));

    /* Configure the I2C3 clock source */
    __HAL_RCC_I2C3_CONFIG(PeriphClkInit->I2c3ClockSelection);
 8006d50:	4b64      	ldr	r3, [pc, #400]	@ (8006ee4 <HAL_RCCEx_PeriphCLKConfig+0x3dc>)
 8006d52:	f8d3 3088 	ldr.w	r3, [r3, #136]	@ 0x88
 8006d56:	f423 3240 	bic.w	r2, r3, #196608	@ 0x30000
 8006d5a:	687b      	ldr	r3, [r7, #4]
 8006d5c:	6a1b      	ldr	r3, [r3, #32]
 8006d5e:	4961      	ldr	r1, [pc, #388]	@ (8006ee4 <HAL_RCCEx_PeriphCLKConfig+0x3dc>)
 8006d60:	4313      	orrs	r3, r2
 8006d62:	f8c1 3088 	str.w	r3, [r1, #136]	@ 0x88
  }

#endif /* I2C4 */

  /*-------------------------- LPTIM1 clock source configuration ---------------------*/
  if(((PeriphClkInit->PeriphClockSelection) & RCC_PERIPHCLK_LPTIM1) == RCC_PERIPHCLK_LPTIM1)
 8006d66:	687b      	ldr	r3, [r7, #4]
 8006d68:	681b      	ldr	r3, [r3, #0]
 8006d6a:	f403 7300 	and.w	r3, r3, #512	@ 0x200
 8006d6e:	2b00      	cmp	r3, #0
 8006d70:	d00a      	beq.n	8006d88 <HAL_RCCEx_PeriphCLKConfig+0x280>
  {
    /* Check the parameters */
    assert_param(IS_RCC_LPTIM1CLKSOURCE(PeriphClkInit->Lptim1ClockSelection));

    /* Configure the LPTIM1 clock source */
    __HAL_RCC_LPTIM1_CONFIG(PeriphClkInit->Lptim1ClockSelection);
 8006d72:	4b5c      	ldr	r3, [pc, #368]	@ (8006ee4 <HAL_RCCEx_PeriphCLKConfig+0x3dc>)
 8006d74:	f8d3 3088 	ldr.w	r3, [r3, #136]	@ 0x88
 8006d78:	f423 2240 	bic.w	r2, r3, #786432	@ 0xc0000
 8006d7c:	687b      	ldr	r3, [r7, #4]
 8006d7e:	6a5b      	ldr	r3, [r3, #36]	@ 0x24
 8006d80:	4958      	ldr	r1, [pc, #352]	@ (8006ee4 <HAL_RCCEx_PeriphCLKConfig+0x3dc>)
 8006d82:	4313      	orrs	r3, r2
 8006d84:	f8c1 3088 	str.w	r3, [r1, #136]	@ 0x88
  }

#if defined(SAI1) 
  /*-------------------------- SAI1 clock source configuration ---------------------*/
  if(((PeriphClkInit->PeriphClockSelection) & RCC_PERIPHCLK_SAI1) == RCC_PERIPHCLK_SAI1)
 8006d88:	687b      	ldr	r3, [r7, #4]
 8006d8a:	681b      	ldr	r3, [r3, #0]
 8006d8c:	f403 6380 	and.w	r3, r3, #1024	@ 0x400
 8006d90:	2b00      	cmp	r3, #0
 8006d92:	d015      	beq.n	8006dc0 <HAL_RCCEx_PeriphCLKConfig+0x2b8>
  {
    /* Check the parameters */
    assert_param(IS_RCC_SAI1CLKSOURCE(PeriphClkInit->Sai1ClockSelection));

    /* Configure the SAI1 interface clock source */
    __HAL_RCC_SAI1_CONFIG(PeriphClkInit->Sai1ClockSelection);
 8006d94:	4b53      	ldr	r3, [pc, #332]	@ (8006ee4 <HAL_RCCEx_PeriphCLKConfig+0x3dc>)
 8006d96:	f8d3 3088 	ldr.w	r3, [r3, #136]	@ 0x88
 8006d9a:	f423 1240 	bic.w	r2, r3, #3145728	@ 0x300000
 8006d9e:	687b      	ldr	r3, [r7, #4]
 8006da0:	6a9b      	ldr	r3, [r3, #40]	@ 0x28
 8006da2:	4950      	ldr	r1, [pc, #320]	@ (8006ee4 <HAL_RCCEx_PeriphCLKConfig+0x3dc>)
 8006da4:	4313      	orrs	r3, r2
 8006da6:	f8c1 3088 	str.w	r3, [r1, #136]	@ 0x88
    
    if(PeriphClkInit->Sai1ClockSelection == RCC_SAI1CLKSOURCE_PLL)
 8006daa:	687b      	ldr	r3, [r7, #4]
 8006dac:	6a9b      	ldr	r3, [r3, #40]	@ 0x28
 8006dae:	f5b3 1f80 	cmp.w	r3, #1048576	@ 0x100000
 8006db2:	d105      	bne.n	8006dc0 <HAL_RCCEx_PeriphCLKConfig+0x2b8>
    {
      /* Enable PLL48M1CLK output */
      __HAL_RCC_PLLCLKOUT_ENABLE(RCC_PLL_48M1CLK);
 8006db4:	4b4b      	ldr	r3, [pc, #300]	@ (8006ee4 <HAL_RCCEx_PeriphCLKConfig+0x3dc>)
 8006db6:	68db      	ldr	r3, [r3, #12]
 8006db8:	4a4a      	ldr	r2, [pc, #296]	@ (8006ee4 <HAL_RCCEx_PeriphCLKConfig+0x3dc>)
 8006dba:	f443 1380 	orr.w	r3, r3, #1048576	@ 0x100000
 8006dbe:	60d3      	str	r3, [r2, #12]

#endif /* SAI1 */

#if defined(SPI_I2S_SUPPORT)
  /*-------------------------- I2S clock source configuration ---------------------*/
  if(((PeriphClkInit->PeriphClockSelection) & RCC_PERIPHCLK_I2S) == RCC_PERIPHCLK_I2S)
 8006dc0:	687b      	ldr	r3, [r7, #4]
 8006dc2:	681b      	ldr	r3, [r3, #0]
 8006dc4:	f403 6300 	and.w	r3, r3, #2048	@ 0x800
 8006dc8:	2b00      	cmp	r3, #0
 8006dca:	d015      	beq.n	8006df8 <HAL_RCCEx_PeriphCLKConfig+0x2f0>
  {
    /* Check the parameters */
    assert_param(IS_RCC_I2SCLKSOURCE(PeriphClkInit->I2sClockSelection));

    /* Configure the I2S interface clock source */
    __HAL_RCC_I2S_CONFIG(PeriphClkInit->I2sClockSelection);
 8006dcc:	4b45      	ldr	r3, [pc, #276]	@ (8006ee4 <HAL_RCCEx_PeriphCLKConfig+0x3dc>)
 8006dce:	f8d3 3088 	ldr.w	r3, [r3, #136]	@ 0x88
 8006dd2:	f423 0240 	bic.w	r2, r3, #12582912	@ 0xc00000
 8006dd6:	687b      	ldr	r3, [r7, #4]
 8006dd8:	6adb      	ldr	r3, [r3, #44]	@ 0x2c
 8006dda:	4942      	ldr	r1, [pc, #264]	@ (8006ee4 <HAL_RCCEx_PeriphCLKConfig+0x3dc>)
 8006ddc:	4313      	orrs	r3, r2
 8006dde:	f8c1 3088 	str.w	r3, [r1, #136]	@ 0x88
    
    if(PeriphClkInit->I2sClockSelection == RCC_I2SCLKSOURCE_PLL)
 8006de2:	687b      	ldr	r3, [r7, #4]
 8006de4:	6adb      	ldr	r3, [r3, #44]	@ 0x2c
 8006de6:	f5b3 0f80 	cmp.w	r3, #4194304	@ 0x400000
 8006dea:	d105      	bne.n	8006df8 <HAL_RCCEx_PeriphCLKConfig+0x2f0>
    {
      /* Enable PLL48M1CLK output */
      __HAL_RCC_PLLCLKOUT_ENABLE(RCC_PLL_48M1CLK);
 8006dec:	4b3d      	ldr	r3, [pc, #244]	@ (8006ee4 <HAL_RCCEx_PeriphCLKConfig+0x3dc>)
 8006dee:	68db      	ldr	r3, [r3, #12]
 8006df0:	4a3c      	ldr	r2, [pc, #240]	@ (8006ee4 <HAL_RCCEx_PeriphCLKConfig+0x3dc>)
 8006df2:	f443 1380 	orr.w	r3, r3, #1048576	@ 0x100000
 8006df6:	60d3      	str	r3, [r2, #12]

#endif /* SPI_I2S_SUPPORT */

#if defined(FDCAN1)
  /*-------------------------- FDCAN clock source configuration ---------------------*/
  if(((PeriphClkInit->PeriphClockSelection) & RCC_PERIPHCLK_FDCAN) == RCC_PERIPHCLK_FDCAN)
 8006df8:	687b      	ldr	r3, [r7, #4]
 8006dfa:	681b      	ldr	r3, [r3, #0]
 8006dfc:	f403 5380 	and.w	r3, r3, #4096	@ 0x1000
 8006e00:	2b00      	cmp	r3, #0
 8006e02:	d015      	beq.n	8006e30 <HAL_RCCEx_PeriphCLKConfig+0x328>
  {
    /* Check the parameters */
    assert_param(IS_RCC_FDCANCLKSOURCE(PeriphClkInit->FdcanClockSelection));

    /* Configure the FDCAN interface clock source */
    __HAL_RCC_FDCAN_CONFIG(PeriphClkInit->FdcanClockSelection);
 8006e04:	4b37      	ldr	r3, [pc, #220]	@ (8006ee4 <HAL_RCCEx_PeriphCLKConfig+0x3dc>)
 8006e06:	f8d3 3088 	ldr.w	r3, [r3, #136]	@ 0x88
 8006e0a:	f023 7240 	bic.w	r2, r3, #50331648	@ 0x3000000
 8006e0e:	687b      	ldr	r3, [r7, #4]
 8006e10:	6b1b      	ldr	r3, [r3, #48]	@ 0x30
 8006e12:	4934      	ldr	r1, [pc, #208]	@ (8006ee4 <HAL_RCCEx_PeriphCLKConfig+0x3dc>)
 8006e14:	4313      	orrs	r3, r2
 8006e16:	f8c1 3088 	str.w	r3, [r1, #136]	@ 0x88
    
    if(PeriphClkInit->FdcanClockSelection == RCC_FDCANCLKSOURCE_PLL)
 8006e1a:	687b      	ldr	r3, [r7, #4]
 8006e1c:	6b1b      	ldr	r3, [r3, #48]	@ 0x30
 8006e1e:	f1b3 7f80 	cmp.w	r3, #16777216	@ 0x1000000
 8006e22:	d105      	bne.n	8006e30 <HAL_RCCEx_PeriphCLKConfig+0x328>
    {
      /* Enable PLL48M1CLK output */
      __HAL_RCC_PLLCLKOUT_ENABLE(RCC_PLL_48M1CLK);
 8006e24:	4b2f      	ldr	r3, [pc, #188]	@ (8006ee4 <HAL_RCCEx_PeriphCLKConfig+0x3dc>)
 8006e26:	68db      	ldr	r3, [r3, #12]
 8006e28:	4a2e      	ldr	r2, [pc, #184]	@ (8006ee4 <HAL_RCCEx_PeriphCLKConfig+0x3dc>)
 8006e2a:	f443 1380 	orr.w	r3, r3, #1048576	@ 0x100000
 8006e2e:	60d3      	str	r3, [r2, #12]
#endif /* FDCAN1 */

#if defined(USB)

  /*-------------------------- USB clock source configuration ----------------------*/
  if(((PeriphClkInit->PeriphClockSelection) & RCC_PERIPHCLK_USB) == (RCC_PERIPHCLK_USB))
 8006e30:	687b      	ldr	r3, [r7, #4]
 8006e32:	681b      	ldr	r3, [r3, #0]
 8006e34:	f403 5300 	and.w	r3, r3, #8192	@ 0x2000
 8006e38:	2b00      	cmp	r3, #0
 8006e3a:	d015      	beq.n	8006e68 <HAL_RCCEx_PeriphCLKConfig+0x360>
  {
    assert_param(IS_RCC_USBCLKSOURCE(PeriphClkInit->UsbClockSelection));
    __HAL_RCC_USB_CONFIG(PeriphClkInit->UsbClockSelection);
 8006e3c:	4b29      	ldr	r3, [pc, #164]	@ (8006ee4 <HAL_RCCEx_PeriphCLKConfig+0x3dc>)
 8006e3e:	f8d3 3088 	ldr.w	r3, [r3, #136]	@ 0x88
 8006e42:	f023 6240 	bic.w	r2, r3, #201326592	@ 0xc000000
 8006e46:	687b      	ldr	r3, [r7, #4]
 8006e48:	6b5b      	ldr	r3, [r3, #52]	@ 0x34
 8006e4a:	4926      	ldr	r1, [pc, #152]	@ (8006ee4 <HAL_RCCEx_PeriphCLKConfig+0x3dc>)
 8006e4c:	4313      	orrs	r3, r2
 8006e4e:	f8c1 3088 	str.w	r3, [r1, #136]	@ 0x88

    if(PeriphClkInit->UsbClockSelection == RCC_USBCLKSOURCE_PLL)
 8006e52:	687b      	ldr	r3, [r7, #4]
 8006e54:	6b5b      	ldr	r3, [r3, #52]	@ 0x34
 8006e56:	f1b3 6f00 	cmp.w	r3, #134217728	@ 0x8000000
 8006e5a:	d105      	bne.n	8006e68 <HAL_RCCEx_PeriphCLKConfig+0x360>
    {
      /* Enable PLL48M1CLK output */
      __HAL_RCC_PLLCLKOUT_ENABLE(RCC_PLL_48M1CLK);
 8006e5c:	4b21      	ldr	r3, [pc, #132]	@ (8006ee4 <HAL_RCCEx_PeriphCLKConfig+0x3dc>)
 8006e5e:	68db      	ldr	r3, [r3, #12]
 8006e60:	4a20      	ldr	r2, [pc, #128]	@ (8006ee4 <HAL_RCCEx_PeriphCLKConfig+0x3dc>)
 8006e62:	f443 1380 	orr.w	r3, r3, #1048576	@ 0x100000
 8006e66:	60d3      	str	r3, [r2, #12]
  }

#endif /* USB */

  /*-------------------------- RNG clock source configuration ----------------------*/
  if(((PeriphClkInit->PeriphClockSelection) & RCC_PERIPHCLK_RNG) == (RCC_PERIPHCLK_RNG))
 8006e68:	687b      	ldr	r3, [r7, #4]
 8006e6a:	681b      	ldr	r3, [r3, #0]
 8006e6c:	f403 4380 	and.w	r3, r3, #16384	@ 0x4000
 8006e70:	2b00      	cmp	r3, #0
 8006e72:	d015      	beq.n	8006ea0 <HAL_RCCEx_PeriphCLKConfig+0x398>
  {
    assert_param(IS_RCC_RNGCLKSOURCE(PeriphClkInit->RngClockSelection));
    __HAL_RCC_RNG_CONFIG(PeriphClkInit->RngClockSelection);
 8006e74:	4b1b      	ldr	r3, [pc, #108]	@ (8006ee4 <HAL_RCCEx_PeriphCLKConfig+0x3dc>)
 8006e76:	f8d3 3088 	ldr.w	r3, [r3, #136]	@ 0x88
 8006e7a:	f023 6240 	bic.w	r2, r3, #201326592	@ 0xc000000
 8006e7e:	687b      	ldr	r3, [r7, #4]
 8006e80:	6b9b      	ldr	r3, [r3, #56]	@ 0x38
 8006e82:	4918      	ldr	r1, [pc, #96]	@ (8006ee4 <HAL_RCCEx_PeriphCLKConfig+0x3dc>)
 8006e84:	4313      	orrs	r3, r2
 8006e86:	f8c1 3088 	str.w	r3, [r1, #136]	@ 0x88

    if(PeriphClkInit->RngClockSelection == RCC_RNGCLKSOURCE_PLL)
 8006e8a:	687b      	ldr	r3, [r7, #4]
 8006e8c:	6b9b      	ldr	r3, [r3, #56]	@ 0x38
 8006e8e:	f1b3 6f00 	cmp.w	r3, #134217728	@ 0x8000000
 8006e92:	d105      	bne.n	8006ea0 <HAL_RCCEx_PeriphCLKConfig+0x398>
    {
      /* Enable PLL48M1CLK output */
      __HAL_RCC_PLLCLKOUT_ENABLE(RCC_PLL_48M1CLK);
 8006e94:	4b13      	ldr	r3, [pc, #76]	@ (8006ee4 <HAL_RCCEx_PeriphCLKConfig+0x3dc>)
 8006e96:	68db      	ldr	r3, [r3, #12]
 8006e98:	4a12      	ldr	r2, [pc, #72]	@ (8006ee4 <HAL_RCCEx_PeriphCLKConfig+0x3dc>)
 8006e9a:	f443 1380 	orr.w	r3, r3, #1048576	@ 0x100000
 8006e9e:	60d3      	str	r3, [r2, #12]
    }
  }

  /*-------------------------- ADC12 clock source configuration ----------------------*/
  if(((PeriphClkInit->PeriphClockSelection) & RCC_PERIPHCLK_ADC12) == RCC_PERIPHCLK_ADC12)
 8006ea0:	687b      	ldr	r3, [r7, #4]
 8006ea2:	681b      	ldr	r3, [r3, #0]
 8006ea4:	f403 4300 	and.w	r3, r3, #32768	@ 0x8000
 8006ea8:	2b00      	cmp	r3, #0
 8006eaa:	d015      	beq.n	8006ed8 <HAL_RCCEx_PeriphCLKConfig+0x3d0>
  {
    /* Check the parameters */
    assert_param(IS_RCC_ADC12CLKSOURCE(PeriphClkInit->Adc12ClockSelection));

    /* Configure the ADC12 interface clock source */
    __HAL_RCC_ADC12_CONFIG(PeriphClkInit->Adc12ClockSelection);
 8006eac:	4b0d      	ldr	r3, [pc, #52]	@ (8006ee4 <HAL_RCCEx_PeriphCLKConfig+0x3dc>)
 8006eae:	f8d3 3088 	ldr.w	r3, [r3, #136]	@ 0x88
 8006eb2:	f023 5240 	bic.w	r2, r3, #805306368	@ 0x30000000
 8006eb6:	687b      	ldr	r3, [r7, #4]
 8006eb8:	6bdb      	ldr	r3, [r3, #60]	@ 0x3c
 8006eba:	490a      	ldr	r1, [pc, #40]	@ (8006ee4 <HAL_RCCEx_PeriphCLKConfig+0x3dc>)
 8006ebc:	4313      	orrs	r3, r2
 8006ebe:	f8c1 3088 	str.w	r3, [r1, #136]	@ 0x88
    
    if(PeriphClkInit->Adc12ClockSelection == RCC_ADC12CLKSOURCE_PLL)
 8006ec2:	687b      	ldr	r3, [r7, #4]
 8006ec4:	6bdb      	ldr	r3, [r3, #60]	@ 0x3c
 8006ec6:	f1b3 5f80 	cmp.w	r3, #268435456	@ 0x10000000
 8006eca:	d105      	bne.n	8006ed8 <HAL_RCCEx_PeriphCLKConfig+0x3d0>
    {
      /* Enable PLLADCCLK output */
      __HAL_RCC_PLLCLKOUT_ENABLE(RCC_PLL_ADCCLK);
 8006ecc:	4b05      	ldr	r3, [pc, #20]	@ (8006ee4 <HAL_RCCEx_PeriphCLKConfig+0x3dc>)
 8006ece:	68db      	ldr	r3, [r3, #12]
 8006ed0:	4a04      	ldr	r2, [pc, #16]	@ (8006ee4 <HAL_RCCEx_PeriphCLKConfig+0x3dc>)
 8006ed2:	f443 3380 	orr.w	r3, r3, #65536	@ 0x10000
 8006ed6:	60d3      	str	r3, [r2, #12]
    }
  }

#endif /* QUADSPI */

  return status;
 8006ed8:	7cbb      	ldrb	r3, [r7, #18]
}
 8006eda:	4618      	mov	r0, r3
 8006edc:	3718      	adds	r7, #24
 8006ede:	46bd      	mov	sp, r7
 8006ee0:	bd80      	pop	{r7, pc}
 8006ee2:	bf00      	nop
 8006ee4:	40021000 	.word	0x40021000

08006ee8 <HAL_SPI_Init>:
  * @param  hspi pointer to a SPI_HandleTypeDef structure that contains
  *               the configuration information for SPI module.
  * @retval HAL status
  */
HAL_StatusTypeDef HAL_SPI_Init(SPI_HandleTypeDef *hspi)
{
 8006ee8:	b580      	push	{r7, lr}
 8006eea:	b084      	sub	sp, #16
 8006eec:	af00      	add	r7, sp, #0
 8006eee:	6078      	str	r0, [r7, #4]
  uint32_t frxth;

  /* Check the SPI handle allocation */
  if (hspi == NULL)
 8006ef0:	687b      	ldr	r3, [r7, #4]
 8006ef2:	2b00      	cmp	r3, #0
 8006ef4:	d101      	bne.n	8006efa <HAL_SPI_Init+0x12>
  {
    return HAL_ERROR;
 8006ef6:	2301      	movs	r3, #1
 8006ef8:	e09d      	b.n	8007036 <HAL_SPI_Init+0x14e>
  assert_param(IS_SPI_NSS(hspi->Init.NSS));
  assert_param(IS_SPI_NSSP(hspi->Init.NSSPMode));
  assert_param(IS_SPI_BAUDRATE_PRESCALER(hspi->Init.BaudRatePrescaler));
  assert_param(IS_SPI_FIRST_BIT(hspi->Init.FirstBit));
  assert_param(IS_SPI_TIMODE(hspi->Init.TIMode));
  if (hspi->Init.TIMode == SPI_TIMODE_DISABLE)
 8006efa:	687b      	ldr	r3, [r7, #4]
 8006efc:	6a5b      	ldr	r3, [r3, #36]	@ 0x24
 8006efe:	2b00      	cmp	r3, #0
 8006f00:	d108      	bne.n	8006f14 <HAL_SPI_Init+0x2c>
  {
    assert_param(IS_SPI_CPOL(hspi->Init.CLKPolarity));
    assert_param(IS_SPI_CPHA(hspi->Init.CLKPhase));

    if (hspi->Init.Mode == SPI_MODE_MASTER)
 8006f02:	687b      	ldr	r3, [r7, #4]
 8006f04:	685b      	ldr	r3, [r3, #4]
 8006f06:	f5b3 7f82 	cmp.w	r3, #260	@ 0x104
 8006f0a:	d009      	beq.n	8006f20 <HAL_SPI_Init+0x38>
      assert_param(IS_SPI_BAUDRATE_PRESCALER(hspi->Init.BaudRatePrescaler));
    }
    else
    {
      /* Baudrate prescaler not use in Motoraola Slave mode. force to default value */
      hspi->Init.BaudRatePrescaler = SPI_BAUDRATEPRESCALER_2;
 8006f0c:	687b      	ldr	r3, [r7, #4]
 8006f0e:	2200      	movs	r2, #0
 8006f10:	61da      	str	r2, [r3, #28]
 8006f12:	e005      	b.n	8006f20 <HAL_SPI_Init+0x38>
  else
  {
    assert_param(IS_SPI_BAUDRATE_PRESCALER(hspi->Init.BaudRatePrescaler));

    /* Force polarity and phase to TI protocaol requirements */
    hspi->Init.CLKPolarity = SPI_POLARITY_LOW;
 8006f14:	687b      	ldr	r3, [r7, #4]
 8006f16:	2200      	movs	r2, #0
 8006f18:	611a      	str	r2, [r3, #16]
    hspi->Init.CLKPhase    = SPI_PHASE_1EDGE;
 8006f1a:	687b      	ldr	r3, [r7, #4]
 8006f1c:	2200      	movs	r2, #0
 8006f1e:	615a      	str	r2, [r3, #20]
  {
    assert_param(IS_SPI_CRC_POLYNOMIAL(hspi->Init.CRCPolynomial));
    assert_param(IS_SPI_CRC_LENGTH(hspi->Init.CRCLength));
  }
#else
  hspi->Init.CRCCalculation = SPI_CRCCALCULATION_DISABLE;
 8006f20:	687b      	ldr	r3, [r7, #4]
 8006f22:	2200      	movs	r2, #0
 8006f24:	629a      	str	r2, [r3, #40]	@ 0x28
#endif /* USE_SPI_CRC */

  if (hspi->State == HAL_SPI_STATE_RESET)
 8006f26:	687b      	ldr	r3, [r7, #4]
 8006f28:	f893 305d 	ldrb.w	r3, [r3, #93]	@ 0x5d
 8006f2c:	b2db      	uxtb	r3, r3
 8006f2e:	2b00      	cmp	r3, #0
 8006f30:	d106      	bne.n	8006f40 <HAL_SPI_Init+0x58>
  {
    /* Allocate lock resource and initialize it */
    hspi->Lock = HAL_UNLOCKED;
 8006f32:	687b      	ldr	r3, [r7, #4]
 8006f34:	2200      	movs	r2, #0
 8006f36:	f883 205c 	strb.w	r2, [r3, #92]	@ 0x5c

    /* Init the low level hardware : GPIO, CLOCK, NVIC... */
    hspi->MspInitCallback(hspi);
#else
    /* Init the low level hardware : GPIO, CLOCK, NVIC... */
    HAL_SPI_MspInit(hspi);
 8006f3a:	6878      	ldr	r0, [r7, #4]
 8006f3c:	f7fc f90e 	bl	800315c <HAL_SPI_MspInit>
#endif /* USE_HAL_SPI_REGISTER_CALLBACKS */
  }

  hspi->State = HAL_SPI_STATE_BUSY;
 8006f40:	687b      	ldr	r3, [r7, #4]
 8006f42:	2202      	movs	r2, #2
 8006f44:	f883 205d 	strb.w	r2, [r3, #93]	@ 0x5d

  /* Disable the selected SPI peripheral */
  __HAL_SPI_DISABLE(hspi);
 8006f48:	687b      	ldr	r3, [r7, #4]
 8006f4a:	681b      	ldr	r3, [r3, #0]
 8006f4c:	681a      	ldr	r2, [r3, #0]
 8006f4e:	687b      	ldr	r3, [r7, #4]
 8006f50:	681b      	ldr	r3, [r3, #0]
 8006f52:	f022 0240 	bic.w	r2, r2, #64	@ 0x40
 8006f56:	601a      	str	r2, [r3, #0]

  /* Align by default the rs fifo threshold on the data size */
  if (hspi->Init.DataSize > SPI_DATASIZE_8BIT)
 8006f58:	687b      	ldr	r3, [r7, #4]
 8006f5a:	68db      	ldr	r3, [r3, #12]
 8006f5c:	f5b3 6fe0 	cmp.w	r3, #1792	@ 0x700
 8006f60:	d902      	bls.n	8006f68 <HAL_SPI_Init+0x80>
  {
    frxth = SPI_RXFIFO_THRESHOLD_HF;
 8006f62:	2300      	movs	r3, #0
 8006f64:	60fb      	str	r3, [r7, #12]
 8006f66:	e002      	b.n	8006f6e <HAL_SPI_Init+0x86>
  }
  else
  {
    frxth = SPI_RXFIFO_THRESHOLD_QF;
 8006f68:	f44f 5380 	mov.w	r3, #4096	@ 0x1000
 8006f6c:	60fb      	str	r3, [r7, #12]
  }

  /* CRC calculation is valid only for 16Bit and 8 Bit */
  if ((hspi->Init.DataSize != SPI_DATASIZE_16BIT) && (hspi->Init.DataSize != SPI_DATASIZE_8BIT))
 8006f6e:	687b      	ldr	r3, [r7, #4]
 8006f70:	68db      	ldr	r3, [r3, #12]
 8006f72:	f5b3 6f70 	cmp.w	r3, #3840	@ 0xf00
 8006f76:	d007      	beq.n	8006f88 <HAL_SPI_Init+0xa0>
 8006f78:	687b      	ldr	r3, [r7, #4]
 8006f7a:	68db      	ldr	r3, [r3, #12]
 8006f7c:	f5b3 6fe0 	cmp.w	r3, #1792	@ 0x700
 8006f80:	d002      	beq.n	8006f88 <HAL_SPI_Init+0xa0>
  {
    /* CRC must be disabled */
    hspi->Init.CRCCalculation = SPI_CRCCALCULATION_DISABLE;
 8006f82:	687b      	ldr	r3, [r7, #4]
 8006f84:	2200      	movs	r2, #0
 8006f86:	629a      	str	r2, [r3, #40]	@ 0x28
  }

  /*----------------------- SPIx CR1 & CR2 Configuration ---------------------*/
  /* Configure : SPI Mode, Communication Mode, Clock polarity and phase, NSS management,
  Communication speed, First bit and CRC calculation state */
  WRITE_REG(hspi->Instance->CR1, ((hspi->Init.Mode & (SPI_CR1_MSTR | SPI_CR1_SSI)) |
 8006f88:	687b      	ldr	r3, [r7, #4]
 8006f8a:	685b      	ldr	r3, [r3, #4]
 8006f8c:	f403 7282 	and.w	r2, r3, #260	@ 0x104
 8006f90:	687b      	ldr	r3, [r7, #4]
 8006f92:	689b      	ldr	r3, [r3, #8]
 8006f94:	f403 4304 	and.w	r3, r3, #33792	@ 0x8400
 8006f98:	431a      	orrs	r2, r3
 8006f9a:	687b      	ldr	r3, [r7, #4]
 8006f9c:	691b      	ldr	r3, [r3, #16]
 8006f9e:	f003 0302 	and.w	r3, r3, #2
 8006fa2:	431a      	orrs	r2, r3
 8006fa4:	687b      	ldr	r3, [r7, #4]
 8006fa6:	695b      	ldr	r3, [r3, #20]
 8006fa8:	f003 0301 	and.w	r3, r3, #1
 8006fac:	431a      	orrs	r2, r3
 8006fae:	687b      	ldr	r3, [r7, #4]
 8006fb0:	699b      	ldr	r3, [r3, #24]
 8006fb2:	f403 7300 	and.w	r3, r3, #512	@ 0x200
 8006fb6:	431a      	orrs	r2, r3
 8006fb8:	687b      	ldr	r3, [r7, #4]
 8006fba:	69db      	ldr	r3, [r3, #28]
 8006fbc:	f003 0338 	and.w	r3, r3, #56	@ 0x38
 8006fc0:	431a      	orrs	r2, r3
 8006fc2:	687b      	ldr	r3, [r7, #4]
 8006fc4:	6a1b      	ldr	r3, [r3, #32]
 8006fc6:	f003 0380 	and.w	r3, r3, #128	@ 0x80
 8006fca:	ea42 0103 	orr.w	r1, r2, r3
 8006fce:	687b      	ldr	r3, [r7, #4]
 8006fd0:	6a9b      	ldr	r3, [r3, #40]	@ 0x28
 8006fd2:	f403 5200 	and.w	r2, r3, #8192	@ 0x2000
 8006fd6:	687b      	ldr	r3, [r7, #4]
 8006fd8:	681b      	ldr	r3, [r3, #0]
 8006fda:	430a      	orrs	r2, r1
 8006fdc:	601a      	str	r2, [r3, #0]
    }
  }
#endif /* USE_SPI_CRC */

  /* Configure : NSS management, TI Mode, NSS Pulse, Data size and Rx Fifo threshold */
  WRITE_REG(hspi->Instance->CR2, (((hspi->Init.NSS >> 16U) & SPI_CR2_SSOE) |
 8006fde:	687b      	ldr	r3, [r7, #4]
 8006fe0:	699b      	ldr	r3, [r3, #24]
 8006fe2:	0c1b      	lsrs	r3, r3, #16
 8006fe4:	f003 0204 	and.w	r2, r3, #4
 8006fe8:	687b      	ldr	r3, [r7, #4]
 8006fea:	6a5b      	ldr	r3, [r3, #36]	@ 0x24
 8006fec:	f003 0310 	and.w	r3, r3, #16
 8006ff0:	431a      	orrs	r2, r3
 8006ff2:	687b      	ldr	r3, [r7, #4]
 8006ff4:	6b5b      	ldr	r3, [r3, #52]	@ 0x34
 8006ff6:	f003 0308 	and.w	r3, r3, #8
 8006ffa:	431a      	orrs	r2, r3
 8006ffc:	687b      	ldr	r3, [r7, #4]
 8006ffe:	68db      	ldr	r3, [r3, #12]
 8007000:	f403 6370 	and.w	r3, r3, #3840	@ 0xf00
 8007004:	ea42 0103 	orr.w	r1, r2, r3
 8007008:	68fb      	ldr	r3, [r7, #12]
 800700a:	f403 5280 	and.w	r2, r3, #4096	@ 0x1000
 800700e:	687b      	ldr	r3, [r7, #4]
 8007010:	681b      	ldr	r3, [r3, #0]
 8007012:	430a      	orrs	r2, r1
 8007014:	605a      	str	r2, [r3, #4]
  }
#endif /* USE_SPI_CRC */

#if defined(SPI_I2SCFGR_I2SMOD)
  /* Activate the SPI mode (Make sure that I2SMOD bit in I2SCFGR register is reset) */
  CLEAR_BIT(hspi->Instance->I2SCFGR, SPI_I2SCFGR_I2SMOD);
 8007016:	687b      	ldr	r3, [r7, #4]
 8007018:	681b      	ldr	r3, [r3, #0]
 800701a:	69da      	ldr	r2, [r3, #28]
 800701c:	687b      	ldr	r3, [r7, #4]
 800701e:	681b      	ldr	r3, [r3, #0]
 8007020:	f422 6200 	bic.w	r2, r2, #2048	@ 0x800
 8007024:	61da      	str	r2, [r3, #28]
#endif /* SPI_I2SCFGR_I2SMOD */

  hspi->ErrorCode = HAL_SPI_ERROR_NONE;
 8007026:	687b      	ldr	r3, [r7, #4]
 8007028:	2200      	movs	r2, #0
 800702a:	661a      	str	r2, [r3, #96]	@ 0x60
  hspi->State     = HAL_SPI_STATE_READY;
 800702c:	687b      	ldr	r3, [r7, #4]
 800702e:	2201      	movs	r2, #1
 8007030:	f883 205d 	strb.w	r2, [r3, #93]	@ 0x5d

  return HAL_OK;
 8007034:	2300      	movs	r3, #0
}
 8007036:	4618      	mov	r0, r3
 8007038:	3710      	adds	r7, #16
 800703a:	46bd      	mov	sp, r7
 800703c:	bd80      	pop	{r7, pc}

0800703e <HAL_SPI_Transmit>:
  * @param  Size amount of data elements (u8 or u16) to be sent
  * @param  Timeout Timeout duration in ms
  * @retval HAL status
  */
HAL_StatusTypeDef HAL_SPI_Transmit(SPI_HandleTypeDef *hspi, const uint8_t *pData, uint16_t Size, uint32_t Timeout)
{
 800703e:	b580      	push	{r7, lr}
 8007040:	b088      	sub	sp, #32
 8007042:	af00      	add	r7, sp, #0
 8007044:	60f8      	str	r0, [r7, #12]
 8007046:	60b9      	str	r1, [r7, #8]
 8007048:	603b      	str	r3, [r7, #0]
 800704a:	4613      	mov	r3, r2
 800704c:	80fb      	strh	r3, [r7, #6]

  /* Check Direction parameter */
  assert_param(IS_SPI_DIRECTION_2LINES_OR_1LINE(hspi->Init.Direction));

  /* Init tickstart for timeout management*/
  tickstart = HAL_GetTick();
 800704e:	f7fc fa7f 	bl	8003550 <HAL_GetTick>
 8007052:	61f8      	str	r0, [r7, #28]
  initial_TxXferCount = Size;
 8007054:	88fb      	ldrh	r3, [r7, #6]
 8007056:	837b      	strh	r3, [r7, #26]

  if (hspi->State != HAL_SPI_STATE_READY)
 8007058:	68fb      	ldr	r3, [r7, #12]
 800705a:	f893 305d 	ldrb.w	r3, [r3, #93]	@ 0x5d
 800705e:	b2db      	uxtb	r3, r3
 8007060:	2b01      	cmp	r3, #1
 8007062:	d001      	beq.n	8007068 <HAL_SPI_Transmit+0x2a>
  {
    return HAL_BUSY;
 8007064:	2302      	movs	r3, #2
 8007066:	e15c      	b.n	8007322 <HAL_SPI_Transmit+0x2e4>
  }

  if ((pData == NULL) || (Size == 0U))
 8007068:	68bb      	ldr	r3, [r7, #8]
 800706a:	2b00      	cmp	r3, #0
 800706c:	d002      	beq.n	8007074 <HAL_SPI_Transmit+0x36>
 800706e:	88fb      	ldrh	r3, [r7, #6]
 8007070:	2b00      	cmp	r3, #0
 8007072:	d101      	bne.n	8007078 <HAL_SPI_Transmit+0x3a>
  {
    return HAL_ERROR;
 8007074:	2301      	movs	r3, #1
 8007076:	e154      	b.n	8007322 <HAL_SPI_Transmit+0x2e4>
  }

  /* Process Locked */
  __HAL_LOCK(hspi);
 8007078:	68fb      	ldr	r3, [r7, #12]
 800707a:	f893 305c 	ldrb.w	r3, [r3, #92]	@ 0x5c
 800707e:	2b01      	cmp	r3, #1
 8007080:	d101      	bne.n	8007086 <HAL_SPI_Transmit+0x48>
 8007082:	2302      	movs	r3, #2
 8007084:	e14d      	b.n	8007322 <HAL_SPI_Transmit+0x2e4>
 8007086:	68fb      	ldr	r3, [r7, #12]
 8007088:	2201      	movs	r2, #1
 800708a:	f883 205c 	strb.w	r2, [r3, #92]	@ 0x5c

  /* Set the transaction information */
  hspi->State       = HAL_SPI_STATE_BUSY_TX;
 800708e:	68fb      	ldr	r3, [r7, #12]
 8007090:	2203      	movs	r2, #3
 8007092:	f883 205d 	strb.w	r2, [r3, #93]	@ 0x5d
  hspi->ErrorCode   = HAL_SPI_ERROR_NONE;
 8007096:	68fb      	ldr	r3, [r7, #12]
 8007098:	2200      	movs	r2, #0
 800709a:	661a      	str	r2, [r3, #96]	@ 0x60
  hspi->pTxBuffPtr  = (const uint8_t *)pData;
 800709c:	68fb      	ldr	r3, [r7, #12]
 800709e:	68ba      	ldr	r2, [r7, #8]
 80070a0:	639a      	str	r2, [r3, #56]	@ 0x38
  hspi->TxXferSize  = Size;
 80070a2:	68fb      	ldr	r3, [r7, #12]
 80070a4:	88fa      	ldrh	r2, [r7, #6]
 80070a6:	879a      	strh	r2, [r3, #60]	@ 0x3c
  hspi->TxXferCount = Size;
 80070a8:	68fb      	ldr	r3, [r7, #12]
 80070aa:	88fa      	ldrh	r2, [r7, #6]
 80070ac:	87da      	strh	r2, [r3, #62]	@ 0x3e

  /*Init field not used in handle to zero */
  hspi->pRxBuffPtr  = (uint8_t *)NULL;
 80070ae:	68fb      	ldr	r3, [r7, #12]
 80070b0:	2200      	movs	r2, #0
 80070b2:	641a      	str	r2, [r3, #64]	@ 0x40
  hspi->RxXferSize  = 0U;
 80070b4:	68fb      	ldr	r3, [r7, #12]
 80070b6:	2200      	movs	r2, #0
 80070b8:	f8a3 2044 	strh.w	r2, [r3, #68]	@ 0x44
  hspi->RxXferCount = 0U;
 80070bc:	68fb      	ldr	r3, [r7, #12]
 80070be:	2200      	movs	r2, #0
 80070c0:	f8a3 2046 	strh.w	r2, [r3, #70]	@ 0x46
  hspi->TxISR       = NULL;
 80070c4:	68fb      	ldr	r3, [r7, #12]
 80070c6:	2200      	movs	r2, #0
 80070c8:	651a      	str	r2, [r3, #80]	@ 0x50
  hspi->RxISR       = NULL;
 80070ca:	68fb      	ldr	r3, [r7, #12]
 80070cc:	2200      	movs	r2, #0
 80070ce:	64da      	str	r2, [r3, #76]	@ 0x4c

  /* Configure communication direction : 1Line */
  if (hspi->Init.Direction == SPI_DIRECTION_1LINE)
 80070d0:	68fb      	ldr	r3, [r7, #12]
 80070d2:	689b      	ldr	r3, [r3, #8]
 80070d4:	f5b3 4f00 	cmp.w	r3, #32768	@ 0x8000
 80070d8:	d10f      	bne.n	80070fa <HAL_SPI_Transmit+0xbc>
  {
    /* Disable SPI Peripheral before set 1Line direction (BIDIOE bit) */
    __HAL_SPI_DISABLE(hspi);
 80070da:	68fb      	ldr	r3, [r7, #12]
 80070dc:	681b      	ldr	r3, [r3, #0]
 80070de:	681a      	ldr	r2, [r3, #0]
 80070e0:	68fb      	ldr	r3, [r7, #12]
 80070e2:	681b      	ldr	r3, [r3, #0]
 80070e4:	f022 0240 	bic.w	r2, r2, #64	@ 0x40
 80070e8:	601a      	str	r2, [r3, #0]
    SPI_1LINE_TX(hspi);
 80070ea:	68fb      	ldr	r3, [r7, #12]
 80070ec:	681b      	ldr	r3, [r3, #0]
 80070ee:	681a      	ldr	r2, [r3, #0]
 80070f0:	68fb      	ldr	r3, [r7, #12]
 80070f2:	681b      	ldr	r3, [r3, #0]
 80070f4:	f442 4280 	orr.w	r2, r2, #16384	@ 0x4000
 80070f8:	601a      	str	r2, [r3, #0]
    SPI_RESET_CRC(hspi);
  }
#endif /* USE_SPI_CRC */

  /* Check if the SPI is already enabled */
  if ((hspi->Instance->CR1 & SPI_CR1_SPE) != SPI_CR1_SPE)
 80070fa:	68fb      	ldr	r3, [r7, #12]
 80070fc:	681b      	ldr	r3, [r3, #0]
 80070fe:	681b      	ldr	r3, [r3, #0]
 8007100:	f003 0340 	and.w	r3, r3, #64	@ 0x40
 8007104:	2b40      	cmp	r3, #64	@ 0x40
 8007106:	d007      	beq.n	8007118 <HAL_SPI_Transmit+0xda>
  {
    /* Enable SPI peripheral */
    __HAL_SPI_ENABLE(hspi);
 8007108:	68fb      	ldr	r3, [r7, #12]
 800710a:	681b      	ldr	r3, [r3, #0]
 800710c:	681a      	ldr	r2, [r3, #0]
 800710e:	68fb      	ldr	r3, [r7, #12]
 8007110:	681b      	ldr	r3, [r3, #0]
 8007112:	f042 0240 	orr.w	r2, r2, #64	@ 0x40
 8007116:	601a      	str	r2, [r3, #0]
  }

  /* Transmit data in 16 Bit mode */
  if (hspi->Init.DataSize > SPI_DATASIZE_8BIT)
 8007118:	68fb      	ldr	r3, [r7, #12]
 800711a:	68db      	ldr	r3, [r3, #12]
 800711c:	f5b3 6fe0 	cmp.w	r3, #1792	@ 0x700
 8007120:	d952      	bls.n	80071c8 <HAL_SPI_Transmit+0x18a>
  {
    if ((hspi->Init.Mode == SPI_MODE_SLAVE) || (initial_TxXferCount == 0x01U))
 8007122:	68fb      	ldr	r3, [r7, #12]
 8007124:	685b      	ldr	r3, [r3, #4]
 8007126:	2b00      	cmp	r3, #0
 8007128:	d002      	beq.n	8007130 <HAL_SPI_Transmit+0xf2>
 800712a:	8b7b      	ldrh	r3, [r7, #26]
 800712c:	2b01      	cmp	r3, #1
 800712e:	d145      	bne.n	80071bc <HAL_SPI_Transmit+0x17e>
    {
      hspi->Instance->DR = *((const uint16_t *)hspi->pTxBuffPtr);
 8007130:	68fb      	ldr	r3, [r7, #12]
 8007132:	6b9b      	ldr	r3, [r3, #56]	@ 0x38
 8007134:	881a      	ldrh	r2, [r3, #0]
 8007136:	68fb      	ldr	r3, [r7, #12]
 8007138:	681b      	ldr	r3, [r3, #0]
 800713a:	60da      	str	r2, [r3, #12]
      hspi->pTxBuffPtr += sizeof(uint16_t);
 800713c:	68fb      	ldr	r3, [r7, #12]
 800713e:	6b9b      	ldr	r3, [r3, #56]	@ 0x38
 8007140:	1c9a      	adds	r2, r3, #2
 8007142:	68fb      	ldr	r3, [r7, #12]
 8007144:	639a      	str	r2, [r3, #56]	@ 0x38
      hspi->TxXferCount--;
 8007146:	68fb      	ldr	r3, [r7, #12]
 8007148:	8fdb      	ldrh	r3, [r3, #62]	@ 0x3e
 800714a:	b29b      	uxth	r3, r3
 800714c:	3b01      	subs	r3, #1
 800714e:	b29a      	uxth	r2, r3
 8007150:	68fb      	ldr	r3, [r7, #12]
 8007152:	87da      	strh	r2, [r3, #62]	@ 0x3e
    }
    /* Transmit data in 16 Bit mode */
    while (hspi->TxXferCount > 0U)
 8007154:	e032      	b.n	80071bc <HAL_SPI_Transmit+0x17e>
    {
      /* Wait until TXE flag is set to send data */
      if (__HAL_SPI_GET_FLAG(hspi, SPI_FLAG_TXE))
 8007156:	68fb      	ldr	r3, [r7, #12]
 8007158:	681b      	ldr	r3, [r3, #0]
 800715a:	689b      	ldr	r3, [r3, #8]
 800715c:	f003 0302 	and.w	r3, r3, #2
 8007160:	2b02      	cmp	r3, #2
 8007162:	d112      	bne.n	800718a <HAL_SPI_Transmit+0x14c>
      {
        hspi->Instance->DR = *((const uint16_t *)hspi->pTxBuffPtr);
 8007164:	68fb      	ldr	r3, [r7, #12]
 8007166:	6b9b      	ldr	r3, [r3, #56]	@ 0x38
 8007168:	881a      	ldrh	r2, [r3, #0]
 800716a:	68fb      	ldr	r3, [r7, #12]
 800716c:	681b      	ldr	r3, [r3, #0]
 800716e:	60da      	str	r2, [r3, #12]
        hspi->pTxBuffPtr += sizeof(uint16_t);
 8007170:	68fb      	ldr	r3, [r7, #12]
 8007172:	6b9b      	ldr	r3, [r3, #56]	@ 0x38
 8007174:	1c9a      	adds	r2, r3, #2
 8007176:	68fb      	ldr	r3, [r7, #12]
 8007178:	639a      	str	r2, [r3, #56]	@ 0x38
        hspi->TxXferCount--;
 800717a:	68fb      	ldr	r3, [r7, #12]
 800717c:	8fdb      	ldrh	r3, [r3, #62]	@ 0x3e
 800717e:	b29b      	uxth	r3, r3
 8007180:	3b01      	subs	r3, #1
 8007182:	b29a      	uxth	r2, r3
 8007184:	68fb      	ldr	r3, [r7, #12]
 8007186:	87da      	strh	r2, [r3, #62]	@ 0x3e
 8007188:	e018      	b.n	80071bc <HAL_SPI_Transmit+0x17e>
      }
      else
      {
        /* Timeout management */
        if ((((HAL_GetTick() - tickstart) >=  Timeout) && (Timeout != HAL_MAX_DELAY)) || (Timeout == 0U))
 800718a:	f7fc f9e1 	bl	8003550 <HAL_GetTick>
 800718e:	4602      	mov	r2, r0
 8007190:	69fb      	ldr	r3, [r7, #28]
 8007192:	1ad3      	subs	r3, r2, r3
 8007194:	683a      	ldr	r2, [r7, #0]
 8007196:	429a      	cmp	r2, r3
 8007198:	d803      	bhi.n	80071a2 <HAL_SPI_Transmit+0x164>
 800719a:	683b      	ldr	r3, [r7, #0]
 800719c:	f1b3 3fff 	cmp.w	r3, #4294967295
 80071a0:	d102      	bne.n	80071a8 <HAL_SPI_Transmit+0x16a>
 80071a2:	683b      	ldr	r3, [r7, #0]
 80071a4:	2b00      	cmp	r3, #0
 80071a6:	d109      	bne.n	80071bc <HAL_SPI_Transmit+0x17e>
        {
          hspi->State = HAL_SPI_STATE_READY;
 80071a8:	68fb      	ldr	r3, [r7, #12]
 80071aa:	2201      	movs	r2, #1
 80071ac:	f883 205d 	strb.w	r2, [r3, #93]	@ 0x5d
          __HAL_UNLOCK(hspi);
 80071b0:	68fb      	ldr	r3, [r7, #12]
 80071b2:	2200      	movs	r2, #0
 80071b4:	f883 205c 	strb.w	r2, [r3, #92]	@ 0x5c
          return HAL_TIMEOUT;
 80071b8:	2303      	movs	r3, #3
 80071ba:	e0b2      	b.n	8007322 <HAL_SPI_Transmit+0x2e4>
    while (hspi->TxXferCount > 0U)
 80071bc:	68fb      	ldr	r3, [r7, #12]
 80071be:	8fdb      	ldrh	r3, [r3, #62]	@ 0x3e
 80071c0:	b29b      	uxth	r3, r3
 80071c2:	2b00      	cmp	r3, #0
 80071c4:	d1c7      	bne.n	8007156 <HAL_SPI_Transmit+0x118>
 80071c6:	e083      	b.n	80072d0 <HAL_SPI_Transmit+0x292>
    }
  }
  /* Transmit data in 8 Bit mode */
  else
  {
    if ((hspi->Init.Mode == SPI_MODE_SLAVE) || (initial_TxXferCount == 0x01U))
 80071c8:	68fb      	ldr	r3, [r7, #12]
 80071ca:	685b      	ldr	r3, [r3, #4]
 80071cc:	2b00      	cmp	r3, #0
 80071ce:	d002      	beq.n	80071d6 <HAL_SPI_Transmit+0x198>
 80071d0:	8b7b      	ldrh	r3, [r7, #26]
 80071d2:	2b01      	cmp	r3, #1
 80071d4:	d177      	bne.n	80072c6 <HAL_SPI_Transmit+0x288>
    {
      if (hspi->TxXferCount > 1U)
 80071d6:	68fb      	ldr	r3, [r7, #12]
 80071d8:	8fdb      	ldrh	r3, [r3, #62]	@ 0x3e
 80071da:	b29b      	uxth	r3, r3
 80071dc:	2b01      	cmp	r3, #1
 80071de:	d912      	bls.n	8007206 <HAL_SPI_Transmit+0x1c8>
      {
        /* write on the data register in packing mode */
        hspi->Instance->DR = *((const uint16_t *)hspi->pTxBuffPtr);
 80071e0:	68fb      	ldr	r3, [r7, #12]
 80071e2:	6b9b      	ldr	r3, [r3, #56]	@ 0x38
 80071e4:	881a      	ldrh	r2, [r3, #0]
 80071e6:	68fb      	ldr	r3, [r7, #12]
 80071e8:	681b      	ldr	r3, [r3, #0]
 80071ea:	60da      	str	r2, [r3, #12]
        hspi->pTxBuffPtr += sizeof(uint16_t);
 80071ec:	68fb      	ldr	r3, [r7, #12]
 80071ee:	6b9b      	ldr	r3, [r3, #56]	@ 0x38
 80071f0:	1c9a      	adds	r2, r3, #2
 80071f2:	68fb      	ldr	r3, [r7, #12]
 80071f4:	639a      	str	r2, [r3, #56]	@ 0x38
        hspi->TxXferCount -= 2U;
 80071f6:	68fb      	ldr	r3, [r7, #12]
 80071f8:	8fdb      	ldrh	r3, [r3, #62]	@ 0x3e
 80071fa:	b29b      	uxth	r3, r3
 80071fc:	3b02      	subs	r3, #2
 80071fe:	b29a      	uxth	r2, r3
 8007200:	68fb      	ldr	r3, [r7, #12]
 8007202:	87da      	strh	r2, [r3, #62]	@ 0x3e
 8007204:	e05f      	b.n	80072c6 <HAL_SPI_Transmit+0x288>
      }
      else
      {
        *((__IO uint8_t *)&hspi->Instance->DR) = *((const uint8_t *)hspi->pTxBuffPtr);
 8007206:	68fb      	ldr	r3, [r7, #12]
 8007208:	6b9a      	ldr	r2, [r3, #56]	@ 0x38
 800720a:	68fb      	ldr	r3, [r7, #12]
 800720c:	681b      	ldr	r3, [r3, #0]
 800720e:	330c      	adds	r3, #12
 8007210:	7812      	ldrb	r2, [r2, #0]
 8007212:	701a      	strb	r2, [r3, #0]
        hspi->pTxBuffPtr ++;
 8007214:	68fb      	ldr	r3, [r7, #12]
 8007216:	6b9b      	ldr	r3, [r3, #56]	@ 0x38
 8007218:	1c5a      	adds	r2, r3, #1
 800721a:	68fb      	ldr	r3, [r7, #12]
 800721c:	639a      	str	r2, [r3, #56]	@ 0x38
        hspi->TxXferCount--;
 800721e:	68fb      	ldr	r3, [r7, #12]
 8007220:	8fdb      	ldrh	r3, [r3, #62]	@ 0x3e
 8007222:	b29b      	uxth	r3, r3
 8007224:	3b01      	subs	r3, #1
 8007226:	b29a      	uxth	r2, r3
 8007228:	68fb      	ldr	r3, [r7, #12]
 800722a:	87da      	strh	r2, [r3, #62]	@ 0x3e
      }
    }
    while (hspi->TxXferCount > 0U)
 800722c:	e04b      	b.n	80072c6 <HAL_SPI_Transmit+0x288>
    {
      /* Wait until TXE flag is set to send data */
      if (__HAL_SPI_GET_FLAG(hspi, SPI_FLAG_TXE))
 800722e:	68fb      	ldr	r3, [r7, #12]
 8007230:	681b      	ldr	r3, [r3, #0]
 8007232:	689b      	ldr	r3, [r3, #8]
 8007234:	f003 0302 	and.w	r3, r3, #2
 8007238:	2b02      	cmp	r3, #2
 800723a:	d12b      	bne.n	8007294 <HAL_SPI_Transmit+0x256>
      {
        if (hspi->TxXferCount > 1U)
 800723c:	68fb      	ldr	r3, [r7, #12]
 800723e:	8fdb      	ldrh	r3, [r3, #62]	@ 0x3e
 8007240:	b29b      	uxth	r3, r3
 8007242:	2b01      	cmp	r3, #1
 8007244:	d912      	bls.n	800726c <HAL_SPI_Transmit+0x22e>
        {
          /* write on the data register in packing mode */
          hspi->Instance->DR = *((const uint16_t *)hspi->pTxBuffPtr);
 8007246:	68fb      	ldr	r3, [r7, #12]
 8007248:	6b9b      	ldr	r3, [r3, #56]	@ 0x38
 800724a:	881a      	ldrh	r2, [r3, #0]
 800724c:	68fb      	ldr	r3, [r7, #12]
 800724e:	681b      	ldr	r3, [r3, #0]
 8007250:	60da      	str	r2, [r3, #12]
          hspi->pTxBuffPtr += sizeof(uint16_t);
 8007252:	68fb      	ldr	r3, [r7, #12]
 8007254:	6b9b      	ldr	r3, [r3, #56]	@ 0x38
 8007256:	1c9a      	adds	r2, r3, #2
 8007258:	68fb      	ldr	r3, [r7, #12]
 800725a:	639a      	str	r2, [r3, #56]	@ 0x38
          hspi->TxXferCount -= 2U;
 800725c:	68fb      	ldr	r3, [r7, #12]
 800725e:	8fdb      	ldrh	r3, [r3, #62]	@ 0x3e
 8007260:	b29b      	uxth	r3, r3
 8007262:	3b02      	subs	r3, #2
 8007264:	b29a      	uxth	r2, r3
 8007266:	68fb      	ldr	r3, [r7, #12]
 8007268:	87da      	strh	r2, [r3, #62]	@ 0x3e
 800726a:	e02c      	b.n	80072c6 <HAL_SPI_Transmit+0x288>
        }
        else
        {
          *((__IO uint8_t *)&hspi->Instance->DR) = *((const uint8_t *)hspi->pTxBuffPtr);
 800726c:	68fb      	ldr	r3, [r7, #12]
 800726e:	6b9a      	ldr	r2, [r3, #56]	@ 0x38
 8007270:	68fb      	ldr	r3, [r7, #12]
 8007272:	681b      	ldr	r3, [r3, #0]
 8007274:	330c      	adds	r3, #12
 8007276:	7812      	ldrb	r2, [r2, #0]
 8007278:	701a      	strb	r2, [r3, #0]
          hspi->pTxBuffPtr++;
 800727a:	68fb      	ldr	r3, [r7, #12]
 800727c:	6b9b      	ldr	r3, [r3, #56]	@ 0x38
 800727e:	1c5a      	adds	r2, r3, #1
 8007280:	68fb      	ldr	r3, [r7, #12]
 8007282:	639a      	str	r2, [r3, #56]	@ 0x38
          hspi->TxXferCount--;
 8007284:	68fb      	ldr	r3, [r7, #12]
 8007286:	8fdb      	ldrh	r3, [r3, #62]	@ 0x3e
 8007288:	b29b      	uxth	r3, r3
 800728a:	3b01      	subs	r3, #1
 800728c:	b29a      	uxth	r2, r3
 800728e:	68fb      	ldr	r3, [r7, #12]
 8007290:	87da      	strh	r2, [r3, #62]	@ 0x3e
 8007292:	e018      	b.n	80072c6 <HAL_SPI_Transmit+0x288>
        }
      }
      else
      {
        /* Timeout management */
        if ((((HAL_GetTick() - tickstart) >=  Timeout) && (Timeout != HAL_MAX_DELAY)) || (Timeout == 0U))
 8007294:	f7fc f95c 	bl	8003550 <HAL_GetTick>
 8007298:	4602      	mov	r2, r0
 800729a:	69fb      	ldr	r3, [r7, #28]
 800729c:	1ad3      	subs	r3, r2, r3
 800729e:	683a      	ldr	r2, [r7, #0]
 80072a0:	429a      	cmp	r2, r3
 80072a2:	d803      	bhi.n	80072ac <HAL_SPI_Transmit+0x26e>
 80072a4:	683b      	ldr	r3, [r7, #0]
 80072a6:	f1b3 3fff 	cmp.w	r3, #4294967295
 80072aa:	d102      	bne.n	80072b2 <HAL_SPI_Transmit+0x274>
 80072ac:	683b      	ldr	r3, [r7, #0]
 80072ae:	2b00      	cmp	r3, #0
 80072b0:	d109      	bne.n	80072c6 <HAL_SPI_Transmit+0x288>
        {
          hspi->State = HAL_SPI_STATE_READY;
 80072b2:	68fb      	ldr	r3, [r7, #12]
 80072b4:	2201      	movs	r2, #1
 80072b6:	f883 205d 	strb.w	r2, [r3, #93]	@ 0x5d
          __HAL_UNLOCK(hspi);
 80072ba:	68fb      	ldr	r3, [r7, #12]
 80072bc:	2200      	movs	r2, #0
 80072be:	f883 205c 	strb.w	r2, [r3, #92]	@ 0x5c
          return HAL_TIMEOUT;
 80072c2:	2303      	movs	r3, #3
 80072c4:	e02d      	b.n	8007322 <HAL_SPI_Transmit+0x2e4>
    while (hspi->TxXferCount > 0U)
 80072c6:	68fb      	ldr	r3, [r7, #12]
 80072c8:	8fdb      	ldrh	r3, [r3, #62]	@ 0x3e
 80072ca:	b29b      	uxth	r3, r3
 80072cc:	2b00      	cmp	r3, #0
 80072ce:	d1ae      	bne.n	800722e <HAL_SPI_Transmit+0x1f0>
    SET_BIT(hspi->Instance->CR1, SPI_CR1_CRCNEXT);
  }
#endif /* USE_SPI_CRC */

  /* Check the end of the transaction */
  if (SPI_EndRxTxTransaction(hspi, Timeout, tickstart) != HAL_OK)
 80072d0:	69fa      	ldr	r2, [r7, #28]
 80072d2:	6839      	ldr	r1, [r7, #0]
 80072d4:	68f8      	ldr	r0, [r7, #12]
 80072d6:	f000 ff63 	bl	80081a0 <SPI_EndRxTxTransaction>
 80072da:	4603      	mov	r3, r0
 80072dc:	2b00      	cmp	r3, #0
 80072de:	d002      	beq.n	80072e6 <HAL_SPI_Transmit+0x2a8>
  {
    hspi->ErrorCode = HAL_SPI_ERROR_FLAG;
 80072e0:	68fb      	ldr	r3, [r7, #12]
 80072e2:	2220      	movs	r2, #32
 80072e4:	661a      	str	r2, [r3, #96]	@ 0x60
  }

  /* Clear overrun flag in 2 Lines communication mode because received is not read */
  if (hspi->Init.Direction == SPI_DIRECTION_2LINES)
 80072e6:	68fb      	ldr	r3, [r7, #12]
 80072e8:	689b      	ldr	r3, [r3, #8]
 80072ea:	2b00      	cmp	r3, #0
 80072ec:	d10a      	bne.n	8007304 <HAL_SPI_Transmit+0x2c6>
  {
    __HAL_SPI_CLEAR_OVRFLAG(hspi);
 80072ee:	2300      	movs	r3, #0
 80072f0:	617b      	str	r3, [r7, #20]
 80072f2:	68fb      	ldr	r3, [r7, #12]
 80072f4:	681b      	ldr	r3, [r3, #0]
 80072f6:	68db      	ldr	r3, [r3, #12]
 80072f8:	617b      	str	r3, [r7, #20]
 80072fa:	68fb      	ldr	r3, [r7, #12]
 80072fc:	681b      	ldr	r3, [r3, #0]
 80072fe:	689b      	ldr	r3, [r3, #8]
 8007300:	617b      	str	r3, [r7, #20]
 8007302:	697b      	ldr	r3, [r7, #20]
  }

  hspi->State = HAL_SPI_STATE_READY;
 8007304:	68fb      	ldr	r3, [r7, #12]
 8007306:	2201      	movs	r2, #1
 8007308:	f883 205d 	strb.w	r2, [r3, #93]	@ 0x5d
  /* Process Unlocked */
  __HAL_UNLOCK(hspi);
 800730c:	68fb      	ldr	r3, [r7, #12]
 800730e:	2200      	movs	r2, #0
 8007310:	f883 205c 	strb.w	r2, [r3, #92]	@ 0x5c

  if (hspi->ErrorCode != HAL_SPI_ERROR_NONE)
 8007314:	68fb      	ldr	r3, [r7, #12]
 8007316:	6e1b      	ldr	r3, [r3, #96]	@ 0x60
 8007318:	2b00      	cmp	r3, #0
 800731a:	d001      	beq.n	8007320 <HAL_SPI_Transmit+0x2e2>
  {
    return HAL_ERROR;
 800731c:	2301      	movs	r3, #1
 800731e:	e000      	b.n	8007322 <HAL_SPI_Transmit+0x2e4>
  }
  else
  {
    return HAL_OK;
 8007320:	2300      	movs	r3, #0
  }
}
 8007322:	4618      	mov	r0, r3
 8007324:	3720      	adds	r7, #32
 8007326:	46bd      	mov	sp, r7
 8007328:	bd80      	pop	{r7, pc}

0800732a <HAL_SPI_TransmitReceive>:
  * @param  Timeout Timeout duration in ms
  * @retval HAL status
  */
HAL_StatusTypeDef HAL_SPI_TransmitReceive(SPI_HandleTypeDef *hspi, const uint8_t *pTxData, uint8_t *pRxData,
                                          uint16_t Size, uint32_t Timeout)
{
 800732a:	b580      	push	{r7, lr}
 800732c:	b08a      	sub	sp, #40	@ 0x28
 800732e:	af00      	add	r7, sp, #0
 8007330:	60f8      	str	r0, [r7, #12]
 8007332:	60b9      	str	r1, [r7, #8]
 8007334:	607a      	str	r2, [r7, #4]
 8007336:	807b      	strh	r3, [r7, #2]
  __IO uint8_t  *ptmpreg8;
  __IO uint8_t  tmpreg8 = 0;
#endif /* USE_SPI_CRC */

  /* Variable used to alternate Rx and Tx during transfer */
  uint32_t             txallowed = 1U;
 8007338:	2301      	movs	r3, #1
 800733a:	627b      	str	r3, [r7, #36]	@ 0x24

  /* Check Direction parameter */
  assert_param(IS_SPI_DIRECTION_2LINES(hspi->Init.Direction));

  /* Init tickstart for timeout management*/
  tickstart = HAL_GetTick();
 800733c:	f7fc f908 	bl	8003550 <HAL_GetTick>
 8007340:	6238      	str	r0, [r7, #32]

  /* Init temporary variables */
  tmp_state           = hspi->State;
 8007342:	68fb      	ldr	r3, [r7, #12]
 8007344:	f893 305d 	ldrb.w	r3, [r3, #93]	@ 0x5d
 8007348:	77fb      	strb	r3, [r7, #31]
  tmp_mode            = hspi->Init.Mode;
 800734a:	68fb      	ldr	r3, [r7, #12]
 800734c:	685b      	ldr	r3, [r3, #4]
 800734e:	61bb      	str	r3, [r7, #24]
  initial_TxXferCount = Size;
 8007350:	887b      	ldrh	r3, [r7, #2]
 8007352:	82fb      	strh	r3, [r7, #22]
  initial_RxXferCount = Size;
 8007354:	887b      	ldrh	r3, [r7, #2]
 8007356:	82bb      	strh	r3, [r7, #20]
#if (USE_SPI_CRC != 0U)
  spi_cr1             = READ_REG(hspi->Instance->CR1);
  spi_cr2             = READ_REG(hspi->Instance->CR2);
#endif /* USE_SPI_CRC */

  if (!((tmp_state == HAL_SPI_STATE_READY) || \
 8007358:	7ffb      	ldrb	r3, [r7, #31]
 800735a:	2b01      	cmp	r3, #1
 800735c:	d00c      	beq.n	8007378 <HAL_SPI_TransmitReceive+0x4e>
 800735e:	69bb      	ldr	r3, [r7, #24]
 8007360:	f5b3 7f82 	cmp.w	r3, #260	@ 0x104
 8007364:	d106      	bne.n	8007374 <HAL_SPI_TransmitReceive+0x4a>
        ((tmp_mode == SPI_MODE_MASTER) && (hspi->Init.Direction == SPI_DIRECTION_2LINES) &&
 8007366:	68fb      	ldr	r3, [r7, #12]
 8007368:	689b      	ldr	r3, [r3, #8]
 800736a:	2b00      	cmp	r3, #0
 800736c:	d102      	bne.n	8007374 <HAL_SPI_TransmitReceive+0x4a>
 800736e:	7ffb      	ldrb	r3, [r7, #31]
 8007370:	2b04      	cmp	r3, #4
 8007372:	d001      	beq.n	8007378 <HAL_SPI_TransmitReceive+0x4e>
         (tmp_state == HAL_SPI_STATE_BUSY_RX))))
  {
    return HAL_BUSY;
 8007374:	2302      	movs	r3, #2
 8007376:	e1f3      	b.n	8007760 <HAL_SPI_TransmitReceive+0x436>
  }

  if ((pTxData == NULL) || (pRxData == NULL) || (Size == 0U))
 8007378:	68bb      	ldr	r3, [r7, #8]
 800737a:	2b00      	cmp	r3, #0
 800737c:	d005      	beq.n	800738a <HAL_SPI_TransmitReceive+0x60>
 800737e:	687b      	ldr	r3, [r7, #4]
 8007380:	2b00      	cmp	r3, #0
 8007382:	d002      	beq.n	800738a <HAL_SPI_TransmitReceive+0x60>
 8007384:	887b      	ldrh	r3, [r7, #2]
 8007386:	2b00      	cmp	r3, #0
 8007388:	d101      	bne.n	800738e <HAL_SPI_TransmitReceive+0x64>
  {
    return HAL_ERROR;
 800738a:	2301      	movs	r3, #1
 800738c:	e1e8      	b.n	8007760 <HAL_SPI_TransmitReceive+0x436>
  }

  /* Process Locked */
  __HAL_LOCK(hspi);
 800738e:	68fb      	ldr	r3, [r7, #12]
 8007390:	f893 305c 	ldrb.w	r3, [r3, #92]	@ 0x5c
 8007394:	2b01      	cmp	r3, #1
 8007396:	d101      	bne.n	800739c <HAL_SPI_TransmitReceive+0x72>
 8007398:	2302      	movs	r3, #2
 800739a:	e1e1      	b.n	8007760 <HAL_SPI_TransmitReceive+0x436>
 800739c:	68fb      	ldr	r3, [r7, #12]
 800739e:	2201      	movs	r2, #1
 80073a0:	f883 205c 	strb.w	r2, [r3, #92]	@ 0x5c

  /* Don't overwrite in case of HAL_SPI_STATE_BUSY_RX */
  if (hspi->State != HAL_SPI_STATE_BUSY_RX)
 80073a4:	68fb      	ldr	r3, [r7, #12]
 80073a6:	f893 305d 	ldrb.w	r3, [r3, #93]	@ 0x5d
 80073aa:	b2db      	uxtb	r3, r3
 80073ac:	2b04      	cmp	r3, #4
 80073ae:	d003      	beq.n	80073b8 <HAL_SPI_TransmitReceive+0x8e>
  {
    hspi->State = HAL_SPI_STATE_BUSY_TX_RX;
 80073b0:	68fb      	ldr	r3, [r7, #12]
 80073b2:	2205      	movs	r2, #5
 80073b4:	f883 205d 	strb.w	r2, [r3, #93]	@ 0x5d
  }

  /* Set the transaction information */
  hspi->ErrorCode   = HAL_SPI_ERROR_NONE;
 80073b8:	68fb      	ldr	r3, [r7, #12]
 80073ba:	2200      	movs	r2, #0
 80073bc:	661a      	str	r2, [r3, #96]	@ 0x60
  hspi->pRxBuffPtr  = (uint8_t *)pRxData;
 80073be:	68fb      	ldr	r3, [r7, #12]
 80073c0:	687a      	ldr	r2, [r7, #4]
 80073c2:	641a      	str	r2, [r3, #64]	@ 0x40
  hspi->RxXferCount = Size;
 80073c4:	68fb      	ldr	r3, [r7, #12]
 80073c6:	887a      	ldrh	r2, [r7, #2]
 80073c8:	f8a3 2046 	strh.w	r2, [r3, #70]	@ 0x46
  hspi->RxXferSize  = Size;
 80073cc:	68fb      	ldr	r3, [r7, #12]
 80073ce:	887a      	ldrh	r2, [r7, #2]
 80073d0:	f8a3 2044 	strh.w	r2, [r3, #68]	@ 0x44
  hspi->pTxBuffPtr  = (const uint8_t *)pTxData;
 80073d4:	68fb      	ldr	r3, [r7, #12]
 80073d6:	68ba      	ldr	r2, [r7, #8]
 80073d8:	639a      	str	r2, [r3, #56]	@ 0x38
  hspi->TxXferCount = Size;
 80073da:	68fb      	ldr	r3, [r7, #12]
 80073dc:	887a      	ldrh	r2, [r7, #2]
 80073de:	87da      	strh	r2, [r3, #62]	@ 0x3e
  hspi->TxXferSize  = Size;
 80073e0:	68fb      	ldr	r3, [r7, #12]
 80073e2:	887a      	ldrh	r2, [r7, #2]
 80073e4:	879a      	strh	r2, [r3, #60]	@ 0x3c

  /*Init field not used in handle to zero */
  hspi->RxISR       = NULL;
 80073e6:	68fb      	ldr	r3, [r7, #12]
 80073e8:	2200      	movs	r2, #0
 80073ea:	64da      	str	r2, [r3, #76]	@ 0x4c
  hspi->TxISR       = NULL;
 80073ec:	68fb      	ldr	r3, [r7, #12]
 80073ee:	2200      	movs	r2, #0
 80073f0:	651a      	str	r2, [r3, #80]	@ 0x50
    SPI_RESET_CRC(hspi);
  }
#endif /* USE_SPI_CRC */

  /* Set the Rx Fifo threshold */
  if ((hspi->Init.DataSize > SPI_DATASIZE_8BIT) || (initial_RxXferCount > 1U))
 80073f2:	68fb      	ldr	r3, [r7, #12]
 80073f4:	68db      	ldr	r3, [r3, #12]
 80073f6:	f5b3 6fe0 	cmp.w	r3, #1792	@ 0x700
 80073fa:	d802      	bhi.n	8007402 <HAL_SPI_TransmitReceive+0xd8>
 80073fc:	8abb      	ldrh	r3, [r7, #20]
 80073fe:	2b01      	cmp	r3, #1
 8007400:	d908      	bls.n	8007414 <HAL_SPI_TransmitReceive+0xea>
  {
    /* Set fiforxthreshold according the reception data length: 16bit */
    CLEAR_BIT(hspi->Instance->CR2, SPI_RXFIFO_THRESHOLD);
 8007402:	68fb      	ldr	r3, [r7, #12]
 8007404:	681b      	ldr	r3, [r3, #0]
 8007406:	685a      	ldr	r2, [r3, #4]
 8007408:	68fb      	ldr	r3, [r7, #12]
 800740a:	681b      	ldr	r3, [r3, #0]
 800740c:	f422 5280 	bic.w	r2, r2, #4096	@ 0x1000
 8007410:	605a      	str	r2, [r3, #4]
 8007412:	e007      	b.n	8007424 <HAL_SPI_TransmitReceive+0xfa>
  }
  else
  {
    /* Set fiforxthreshold according the reception data length: 8bit */
    SET_BIT(hspi->Instance->CR2, SPI_RXFIFO_THRESHOLD);
 8007414:	68fb      	ldr	r3, [r7, #12]
 8007416:	681b      	ldr	r3, [r3, #0]
 8007418:	685a      	ldr	r2, [r3, #4]
 800741a:	68fb      	ldr	r3, [r7, #12]
 800741c:	681b      	ldr	r3, [r3, #0]
 800741e:	f442 5280 	orr.w	r2, r2, #4096	@ 0x1000
 8007422:	605a      	str	r2, [r3, #4]
  }

  /* Check if the SPI is already enabled */
  if ((hspi->Instance->CR1 & SPI_CR1_SPE) != SPI_CR1_SPE)
 8007424:	68fb      	ldr	r3, [r7, #12]
 8007426:	681b      	ldr	r3, [r3, #0]
 8007428:	681b      	ldr	r3, [r3, #0]
 800742a:	f003 0340 	and.w	r3, r3, #64	@ 0x40
 800742e:	2b40      	cmp	r3, #64	@ 0x40
 8007430:	d007      	beq.n	8007442 <HAL_SPI_TransmitReceive+0x118>
  {
    /* Enable SPI peripheral */
    __HAL_SPI_ENABLE(hspi);
 8007432:	68fb      	ldr	r3, [r7, #12]
 8007434:	681b      	ldr	r3, [r3, #0]
 8007436:	681a      	ldr	r2, [r3, #0]
 8007438:	68fb      	ldr	r3, [r7, #12]
 800743a:	681b      	ldr	r3, [r3, #0]
 800743c:	f042 0240 	orr.w	r2, r2, #64	@ 0x40
 8007440:	601a      	str	r2, [r3, #0]
  }

  /* Transmit and Receive data in 16 Bit mode */
  if (hspi->Init.DataSize > SPI_DATASIZE_8BIT)
 8007442:	68fb      	ldr	r3, [r7, #12]
 8007444:	68db      	ldr	r3, [r3, #12]
 8007446:	f5b3 6fe0 	cmp.w	r3, #1792	@ 0x700
 800744a:	f240 8083 	bls.w	8007554 <HAL_SPI_TransmitReceive+0x22a>
  {
    if ((hspi->Init.Mode == SPI_MODE_SLAVE) || (initial_TxXferCount == 0x01U))
 800744e:	68fb      	ldr	r3, [r7, #12]
 8007450:	685b      	ldr	r3, [r3, #4]
 8007452:	2b00      	cmp	r3, #0
 8007454:	d002      	beq.n	800745c <HAL_SPI_TransmitReceive+0x132>
 8007456:	8afb      	ldrh	r3, [r7, #22]
 8007458:	2b01      	cmp	r3, #1
 800745a:	d16f      	bne.n	800753c <HAL_SPI_TransmitReceive+0x212>
    {
      hspi->Instance->DR = *((const uint16_t *)hspi->pTxBuffPtr);
 800745c:	68fb      	ldr	r3, [r7, #12]
 800745e:	6b9b      	ldr	r3, [r3, #56]	@ 0x38
 8007460:	881a      	ldrh	r2, [r3, #0]
 8007462:	68fb      	ldr	r3, [r7, #12]
 8007464:	681b      	ldr	r3, [r3, #0]
 8007466:	60da      	str	r2, [r3, #12]
      hspi->pTxBuffPtr += sizeof(uint16_t);
 8007468:	68fb      	ldr	r3, [r7, #12]
 800746a:	6b9b      	ldr	r3, [r3, #56]	@ 0x38
 800746c:	1c9a      	adds	r2, r3, #2
 800746e:	68fb      	ldr	r3, [r7, #12]
 8007470:	639a      	str	r2, [r3, #56]	@ 0x38
      hspi->TxXferCount--;
 8007472:	68fb      	ldr	r3, [r7, #12]
 8007474:	8fdb      	ldrh	r3, [r3, #62]	@ 0x3e
 8007476:	b29b      	uxth	r3, r3
 8007478:	3b01      	subs	r3, #1
 800747a:	b29a      	uxth	r2, r3
 800747c:	68fb      	ldr	r3, [r7, #12]
 800747e:	87da      	strh	r2, [r3, #62]	@ 0x3e
        SET_BIT(hspi->Instance->CR1, SPI_CR1_CRCNEXT);
      }
#endif /* USE_SPI_CRC */

    }
    while ((hspi->TxXferCount > 0U) || (hspi->RxXferCount > 0U))
 8007480:	e05c      	b.n	800753c <HAL_SPI_TransmitReceive+0x212>
    {
      /* Check TXE flag */
      if ((__HAL_SPI_GET_FLAG(hspi, SPI_FLAG_TXE)) && (hspi->TxXferCount > 0U) && (txallowed == 1U))
 8007482:	68fb      	ldr	r3, [r7, #12]
 8007484:	681b      	ldr	r3, [r3, #0]
 8007486:	689b      	ldr	r3, [r3, #8]
 8007488:	f003 0302 	and.w	r3, r3, #2
 800748c:	2b02      	cmp	r3, #2
 800748e:	d11b      	bne.n	80074c8 <HAL_SPI_TransmitReceive+0x19e>
 8007490:	68fb      	ldr	r3, [r7, #12]
 8007492:	8fdb      	ldrh	r3, [r3, #62]	@ 0x3e
 8007494:	b29b      	uxth	r3, r3
 8007496:	2b00      	cmp	r3, #0
 8007498:	d016      	beq.n	80074c8 <HAL_SPI_TransmitReceive+0x19e>
 800749a:	6a7b      	ldr	r3, [r7, #36]	@ 0x24
 800749c:	2b01      	cmp	r3, #1
 800749e:	d113      	bne.n	80074c8 <HAL_SPI_TransmitReceive+0x19e>
      {
        hspi->Instance->DR = *((const uint16_t *)hspi->pTxBuffPtr);
 80074a0:	68fb      	ldr	r3, [r7, #12]
 80074a2:	6b9b      	ldr	r3, [r3, #56]	@ 0x38
 80074a4:	881a      	ldrh	r2, [r3, #0]
 80074a6:	68fb      	ldr	r3, [r7, #12]
 80074a8:	681b      	ldr	r3, [r3, #0]
 80074aa:	60da      	str	r2, [r3, #12]
        hspi->pTxBuffPtr += sizeof(uint16_t);
 80074ac:	68fb      	ldr	r3, [r7, #12]
 80074ae:	6b9b      	ldr	r3, [r3, #56]	@ 0x38
 80074b0:	1c9a      	adds	r2, r3, #2
 80074b2:	68fb      	ldr	r3, [r7, #12]
 80074b4:	639a      	str	r2, [r3, #56]	@ 0x38
        hspi->TxXferCount--;
 80074b6:	68fb      	ldr	r3, [r7, #12]
 80074b8:	8fdb      	ldrh	r3, [r3, #62]	@ 0x3e
 80074ba:	b29b      	uxth	r3, r3
 80074bc:	3b01      	subs	r3, #1
 80074be:	b29a      	uxth	r2, r3
 80074c0:	68fb      	ldr	r3, [r7, #12]
 80074c2:	87da      	strh	r2, [r3, #62]	@ 0x3e
        /* Next Data is a reception (Rx). Tx not allowed */
        txallowed = 0U;
 80074c4:	2300      	movs	r3, #0
 80074c6:	627b      	str	r3, [r7, #36]	@ 0x24
        }
#endif /* USE_SPI_CRC */
      }

      /* Check RXNE flag */
      if ((__HAL_SPI_GET_FLAG(hspi, SPI_FLAG_RXNE)) && (hspi->RxXferCount > 0U))
 80074c8:	68fb      	ldr	r3, [r7, #12]
 80074ca:	681b      	ldr	r3, [r3, #0]
 80074cc:	689b      	ldr	r3, [r3, #8]
 80074ce:	f003 0301 	and.w	r3, r3, #1
 80074d2:	2b01      	cmp	r3, #1
 80074d4:	d11c      	bne.n	8007510 <HAL_SPI_TransmitReceive+0x1e6>
 80074d6:	68fb      	ldr	r3, [r7, #12]
 80074d8:	f8b3 3046 	ldrh.w	r3, [r3, #70]	@ 0x46
 80074dc:	b29b      	uxth	r3, r3
 80074de:	2b00      	cmp	r3, #0
 80074e0:	d016      	beq.n	8007510 <HAL_SPI_TransmitReceive+0x1e6>
      {
        *((uint16_t *)hspi->pRxBuffPtr) = (uint16_t)hspi->Instance->DR;
 80074e2:	68fb      	ldr	r3, [r7, #12]
 80074e4:	681b      	ldr	r3, [r3, #0]
 80074e6:	68da      	ldr	r2, [r3, #12]
 80074e8:	68fb      	ldr	r3, [r7, #12]
 80074ea:	6c1b      	ldr	r3, [r3, #64]	@ 0x40
 80074ec:	b292      	uxth	r2, r2
 80074ee:	801a      	strh	r2, [r3, #0]
        hspi->pRxBuffPtr += sizeof(uint16_t);
 80074f0:	68fb      	ldr	r3, [r7, #12]
 80074f2:	6c1b      	ldr	r3, [r3, #64]	@ 0x40
 80074f4:	1c9a      	adds	r2, r3, #2
 80074f6:	68fb      	ldr	r3, [r7, #12]
 80074f8:	641a      	str	r2, [r3, #64]	@ 0x40
        hspi->RxXferCount--;
 80074fa:	68fb      	ldr	r3, [r7, #12]
 80074fc:	f8b3 3046 	ldrh.w	r3, [r3, #70]	@ 0x46
 8007500:	b29b      	uxth	r3, r3
 8007502:	3b01      	subs	r3, #1
 8007504:	b29a      	uxth	r2, r3
 8007506:	68fb      	ldr	r3, [r7, #12]
 8007508:	f8a3 2046 	strh.w	r2, [r3, #70]	@ 0x46
        /* Next Data is a Transmission (Tx). Tx is allowed */
        txallowed = 1U;
 800750c:	2301      	movs	r3, #1
 800750e:	627b      	str	r3, [r7, #36]	@ 0x24
      }
      if (((HAL_GetTick() - tickstart) >=  Timeout) && (Timeout != HAL_MAX_DELAY))
 8007510:	f7fc f81e 	bl	8003550 <HAL_GetTick>
 8007514:	4602      	mov	r2, r0
 8007516:	6a3b      	ldr	r3, [r7, #32]
 8007518:	1ad3      	subs	r3, r2, r3
 800751a:	6b3a      	ldr	r2, [r7, #48]	@ 0x30
 800751c:	429a      	cmp	r2, r3
 800751e:	d80d      	bhi.n	800753c <HAL_SPI_TransmitReceive+0x212>
 8007520:	6b3b      	ldr	r3, [r7, #48]	@ 0x30
 8007522:	f1b3 3fff 	cmp.w	r3, #4294967295
 8007526:	d009      	beq.n	800753c <HAL_SPI_TransmitReceive+0x212>
      {
        hspi->State = HAL_SPI_STATE_READY;
 8007528:	68fb      	ldr	r3, [r7, #12]
 800752a:	2201      	movs	r2, #1
 800752c:	f883 205d 	strb.w	r2, [r3, #93]	@ 0x5d
        __HAL_UNLOCK(hspi);
 8007530:	68fb      	ldr	r3, [r7, #12]
 8007532:	2200      	movs	r2, #0
 8007534:	f883 205c 	strb.w	r2, [r3, #92]	@ 0x5c
        return HAL_TIMEOUT;
 8007538:	2303      	movs	r3, #3
 800753a:	e111      	b.n	8007760 <HAL_SPI_TransmitReceive+0x436>
    while ((hspi->TxXferCount > 0U) || (hspi->RxXferCount > 0U))
 800753c:	68fb      	ldr	r3, [r7, #12]
 800753e:	8fdb      	ldrh	r3, [r3, #62]	@ 0x3e
 8007540:	b29b      	uxth	r3, r3
 8007542:	2b00      	cmp	r3, #0
 8007544:	d19d      	bne.n	8007482 <HAL_SPI_TransmitReceive+0x158>
 8007546:	68fb      	ldr	r3, [r7, #12]
 8007548:	f8b3 3046 	ldrh.w	r3, [r3, #70]	@ 0x46
 800754c:	b29b      	uxth	r3, r3
 800754e:	2b00      	cmp	r3, #0
 8007550:	d197      	bne.n	8007482 <HAL_SPI_TransmitReceive+0x158>
 8007552:	e0e5      	b.n	8007720 <HAL_SPI_TransmitReceive+0x3f6>
    }
  }
  /* Transmit and Receive data in 8 Bit mode */
  else
  {
    if ((hspi->Init.Mode == SPI_MODE_SLAVE) || (initial_TxXferCount == 0x01U))
 8007554:	68fb      	ldr	r3, [r7, #12]
 8007556:	685b      	ldr	r3, [r3, #4]
 8007558:	2b00      	cmp	r3, #0
 800755a:	d003      	beq.n	8007564 <HAL_SPI_TransmitReceive+0x23a>
 800755c:	8afb      	ldrh	r3, [r7, #22]
 800755e:	2b01      	cmp	r3, #1
 8007560:	f040 80d1 	bne.w	8007706 <HAL_SPI_TransmitReceive+0x3dc>
    {
      if (hspi->TxXferCount > 1U)
 8007564:	68fb      	ldr	r3, [r7, #12]
 8007566:	8fdb      	ldrh	r3, [r3, #62]	@ 0x3e
 8007568:	b29b      	uxth	r3, r3
 800756a:	2b01      	cmp	r3, #1
 800756c:	d912      	bls.n	8007594 <HAL_SPI_TransmitReceive+0x26a>
      {
        hspi->Instance->DR = *((const uint16_t *)hspi->pTxBuffPtr);
 800756e:	68fb      	ldr	r3, [r7, #12]
 8007570:	6b9b      	ldr	r3, [r3, #56]	@ 0x38
 8007572:	881a      	ldrh	r2, [r3, #0]
 8007574:	68fb      	ldr	r3, [r7, #12]
 8007576:	681b      	ldr	r3, [r3, #0]
 8007578:	60da      	str	r2, [r3, #12]
        hspi->pTxBuffPtr += sizeof(uint16_t);
 800757a:	68fb      	ldr	r3, [r7, #12]
 800757c:	6b9b      	ldr	r3, [r3, #56]	@ 0x38
 800757e:	1c9a      	adds	r2, r3, #2
 8007580:	68fb      	ldr	r3, [r7, #12]
 8007582:	639a      	str	r2, [r3, #56]	@ 0x38
        hspi->TxXferCount -= 2U;
 8007584:	68fb      	ldr	r3, [r7, #12]
 8007586:	8fdb      	ldrh	r3, [r3, #62]	@ 0x3e
 8007588:	b29b      	uxth	r3, r3
 800758a:	3b02      	subs	r3, #2
 800758c:	b29a      	uxth	r2, r3
 800758e:	68fb      	ldr	r3, [r7, #12]
 8007590:	87da      	strh	r2, [r3, #62]	@ 0x3e
 8007592:	e0b8      	b.n	8007706 <HAL_SPI_TransmitReceive+0x3dc>
      }
      else
      {
        *(__IO uint8_t *)&hspi->Instance->DR = *((const uint8_t *)hspi->pTxBuffPtr);
 8007594:	68fb      	ldr	r3, [r7, #12]
 8007596:	6b9a      	ldr	r2, [r3, #56]	@ 0x38
 8007598:	68fb      	ldr	r3, [r7, #12]
 800759a:	681b      	ldr	r3, [r3, #0]
 800759c:	330c      	adds	r3, #12
 800759e:	7812      	ldrb	r2, [r2, #0]
 80075a0:	701a      	strb	r2, [r3, #0]
        hspi->pTxBuffPtr++;
 80075a2:	68fb      	ldr	r3, [r7, #12]
 80075a4:	6b9b      	ldr	r3, [r3, #56]	@ 0x38
 80075a6:	1c5a      	adds	r2, r3, #1
 80075a8:	68fb      	ldr	r3, [r7, #12]
 80075aa:	639a      	str	r2, [r3, #56]	@ 0x38
        hspi->TxXferCount--;
 80075ac:	68fb      	ldr	r3, [r7, #12]
 80075ae:	8fdb      	ldrh	r3, [r3, #62]	@ 0x3e
 80075b0:	b29b      	uxth	r3, r3
 80075b2:	3b01      	subs	r3, #1
 80075b4:	b29a      	uxth	r2, r3
 80075b6:	68fb      	ldr	r3, [r7, #12]
 80075b8:	87da      	strh	r2, [r3, #62]	@ 0x3e
          SET_BIT(hspi->Instance->CR1, SPI_CR1_CRCNEXT);
        }
#endif /* USE_SPI_CRC */
      }
    }
    while ((hspi->TxXferCount > 0U) || (hspi->RxXferCount > 0U))
 80075ba:	e0a4      	b.n	8007706 <HAL_SPI_TransmitReceive+0x3dc>
    {
      /* Check TXE flag */
      if ((__HAL_SPI_GET_FLAG(hspi, SPI_FLAG_TXE)) && (hspi->TxXferCount > 0U) && (txallowed == 1U))
 80075bc:	68fb      	ldr	r3, [r7, #12]
 80075be:	681b      	ldr	r3, [r3, #0]
 80075c0:	689b      	ldr	r3, [r3, #8]
 80075c2:	f003 0302 	and.w	r3, r3, #2
 80075c6:	2b02      	cmp	r3, #2
 80075c8:	d134      	bne.n	8007634 <HAL_SPI_TransmitReceive+0x30a>
 80075ca:	68fb      	ldr	r3, [r7, #12]
 80075cc:	8fdb      	ldrh	r3, [r3, #62]	@ 0x3e
 80075ce:	b29b      	uxth	r3, r3
 80075d0:	2b00      	cmp	r3, #0
 80075d2:	d02f      	beq.n	8007634 <HAL_SPI_TransmitReceive+0x30a>
 80075d4:	6a7b      	ldr	r3, [r7, #36]	@ 0x24
 80075d6:	2b01      	cmp	r3, #1
 80075d8:	d12c      	bne.n	8007634 <HAL_SPI_TransmitReceive+0x30a>
      {
        if (hspi->TxXferCount > 1U)
 80075da:	68fb      	ldr	r3, [r7, #12]
 80075dc:	8fdb      	ldrh	r3, [r3, #62]	@ 0x3e
 80075de:	b29b      	uxth	r3, r3
 80075e0:	2b01      	cmp	r3, #1
 80075e2:	d912      	bls.n	800760a <HAL_SPI_TransmitReceive+0x2e0>
        {
          hspi->Instance->DR = *((const uint16_t *)hspi->pTxBuffPtr);
 80075e4:	68fb      	ldr	r3, [r7, #12]
 80075e6:	6b9b      	ldr	r3, [r3, #56]	@ 0x38
 80075e8:	881a      	ldrh	r2, [r3, #0]
 80075ea:	68fb      	ldr	r3, [r7, #12]
 80075ec:	681b      	ldr	r3, [r3, #0]
 80075ee:	60da      	str	r2, [r3, #12]
          hspi->pTxBuffPtr += sizeof(uint16_t);
 80075f0:	68fb      	ldr	r3, [r7, #12]
 80075f2:	6b9b      	ldr	r3, [r3, #56]	@ 0x38
 80075f4:	1c9a      	adds	r2, r3, #2
 80075f6:	68fb      	ldr	r3, [r7, #12]
 80075f8:	639a      	str	r2, [r3, #56]	@ 0x38
          hspi->TxXferCount -= 2U;
 80075fa:	68fb      	ldr	r3, [r7, #12]
 80075fc:	8fdb      	ldrh	r3, [r3, #62]	@ 0x3e
 80075fe:	b29b      	uxth	r3, r3
 8007600:	3b02      	subs	r3, #2
 8007602:	b29a      	uxth	r2, r3
 8007604:	68fb      	ldr	r3, [r7, #12]
 8007606:	87da      	strh	r2, [r3, #62]	@ 0x3e
 8007608:	e012      	b.n	8007630 <HAL_SPI_TransmitReceive+0x306>
        }
        else
        {
          *(__IO uint8_t *)&hspi->Instance->DR = *((const uint8_t *)hspi->pTxBuffPtr);
 800760a:	68fb      	ldr	r3, [r7, #12]
 800760c:	6b9a      	ldr	r2, [r3, #56]	@ 0x38
 800760e:	68fb      	ldr	r3, [r7, #12]
 8007610:	681b      	ldr	r3, [r3, #0]
 8007612:	330c      	adds	r3, #12
 8007614:	7812      	ldrb	r2, [r2, #0]
 8007616:	701a      	strb	r2, [r3, #0]
          hspi->pTxBuffPtr++;
 8007618:	68fb      	ldr	r3, [r7, #12]
 800761a:	6b9b      	ldr	r3, [r3, #56]	@ 0x38
 800761c:	1c5a      	adds	r2, r3, #1
 800761e:	68fb      	ldr	r3, [r7, #12]
 8007620:	639a      	str	r2, [r3, #56]	@ 0x38
          hspi->TxXferCount--;
 8007622:	68fb      	ldr	r3, [r7, #12]
 8007624:	8fdb      	ldrh	r3, [r3, #62]	@ 0x3e
 8007626:	b29b      	uxth	r3, r3
 8007628:	3b01      	subs	r3, #1
 800762a:	b29a      	uxth	r2, r3
 800762c:	68fb      	ldr	r3, [r7, #12]
 800762e:	87da      	strh	r2, [r3, #62]	@ 0x3e
        }
        /* Next Data is a reception (Rx). Tx not allowed */
        txallowed = 0U;
 8007630:	2300      	movs	r3, #0
 8007632:	627b      	str	r3, [r7, #36]	@ 0x24
        }
#endif /* USE_SPI_CRC */
      }

      /* Wait until RXNE flag is reset */
      if ((__HAL_SPI_GET_FLAG(hspi, SPI_FLAG_RXNE)) && (hspi->RxXferCount > 0U))
 8007634:	68fb      	ldr	r3, [r7, #12]
 8007636:	681b      	ldr	r3, [r3, #0]
 8007638:	689b      	ldr	r3, [r3, #8]
 800763a:	f003 0301 	and.w	r3, r3, #1
 800763e:	2b01      	cmp	r3, #1
 8007640:	d148      	bne.n	80076d4 <HAL_SPI_TransmitReceive+0x3aa>
 8007642:	68fb      	ldr	r3, [r7, #12]
 8007644:	f8b3 3046 	ldrh.w	r3, [r3, #70]	@ 0x46
 8007648:	b29b      	uxth	r3, r3
 800764a:	2b00      	cmp	r3, #0
 800764c:	d042      	beq.n	80076d4 <HAL_SPI_TransmitReceive+0x3aa>
      {
        if (hspi->RxXferCount > 1U)
 800764e:	68fb      	ldr	r3, [r7, #12]
 8007650:	f8b3 3046 	ldrh.w	r3, [r3, #70]	@ 0x46
 8007654:	b29b      	uxth	r3, r3
 8007656:	2b01      	cmp	r3, #1
 8007658:	d923      	bls.n	80076a2 <HAL_SPI_TransmitReceive+0x378>
        {
          *((uint16_t *)hspi->pRxBuffPtr) = (uint16_t)hspi->Instance->DR;
 800765a:	68fb      	ldr	r3, [r7, #12]
 800765c:	681b      	ldr	r3, [r3, #0]
 800765e:	68da      	ldr	r2, [r3, #12]
 8007660:	68fb      	ldr	r3, [r7, #12]
 8007662:	6c1b      	ldr	r3, [r3, #64]	@ 0x40
 8007664:	b292      	uxth	r2, r2
 8007666:	801a      	strh	r2, [r3, #0]
          hspi->pRxBuffPtr += sizeof(uint16_t);
 8007668:	68fb      	ldr	r3, [r7, #12]
 800766a:	6c1b      	ldr	r3, [r3, #64]	@ 0x40
 800766c:	1c9a      	adds	r2, r3, #2
 800766e:	68fb      	ldr	r3, [r7, #12]
 8007670:	641a      	str	r2, [r3, #64]	@ 0x40
          hspi->RxXferCount -= 2U;
 8007672:	68fb      	ldr	r3, [r7, #12]
 8007674:	f8b3 3046 	ldrh.w	r3, [r3, #70]	@ 0x46
 8007678:	b29b      	uxth	r3, r3
 800767a:	3b02      	subs	r3, #2
 800767c:	b29a      	uxth	r2, r3
 800767e:	68fb      	ldr	r3, [r7, #12]
 8007680:	f8a3 2046 	strh.w	r2, [r3, #70]	@ 0x46
          if (hspi->RxXferCount <= 1U)
 8007684:	68fb      	ldr	r3, [r7, #12]
 8007686:	f8b3 3046 	ldrh.w	r3, [r3, #70]	@ 0x46
 800768a:	b29b      	uxth	r3, r3
 800768c:	2b01      	cmp	r3, #1
 800768e:	d81f      	bhi.n	80076d0 <HAL_SPI_TransmitReceive+0x3a6>
          {
            /* Set RX Fifo threshold before to switch on 8 bit data size */
            SET_BIT(hspi->Instance->CR2, SPI_RXFIFO_THRESHOLD);
 8007690:	68fb      	ldr	r3, [r7, #12]
 8007692:	681b      	ldr	r3, [r3, #0]
 8007694:	685a      	ldr	r2, [r3, #4]
 8007696:	68fb      	ldr	r3, [r7, #12]
 8007698:	681b      	ldr	r3, [r3, #0]
 800769a:	f442 5280 	orr.w	r2, r2, #4096	@ 0x1000
 800769e:	605a      	str	r2, [r3, #4]
 80076a0:	e016      	b.n	80076d0 <HAL_SPI_TransmitReceive+0x3a6>
          }
        }
        else
        {
          (*(uint8_t *)hspi->pRxBuffPtr) = *(__IO uint8_t *)&hspi->Instance->DR;
 80076a2:	68fb      	ldr	r3, [r7, #12]
 80076a4:	681b      	ldr	r3, [r3, #0]
 80076a6:	f103 020c 	add.w	r2, r3, #12
 80076aa:	68fb      	ldr	r3, [r7, #12]
 80076ac:	6c1b      	ldr	r3, [r3, #64]	@ 0x40
 80076ae:	7812      	ldrb	r2, [r2, #0]
 80076b0:	b2d2      	uxtb	r2, r2
 80076b2:	701a      	strb	r2, [r3, #0]
          hspi->pRxBuffPtr++;
 80076b4:	68fb      	ldr	r3, [r7, #12]
 80076b6:	6c1b      	ldr	r3, [r3, #64]	@ 0x40
 80076b8:	1c5a      	adds	r2, r3, #1
 80076ba:	68fb      	ldr	r3, [r7, #12]
 80076bc:	641a      	str	r2, [r3, #64]	@ 0x40
          hspi->RxXferCount--;
 80076be:	68fb      	ldr	r3, [r7, #12]
 80076c0:	f8b3 3046 	ldrh.w	r3, [r3, #70]	@ 0x46
 80076c4:	b29b      	uxth	r3, r3
 80076c6:	3b01      	subs	r3, #1
 80076c8:	b29a      	uxth	r2, r3
 80076ca:	68fb      	ldr	r3, [r7, #12]
 80076cc:	f8a3 2046 	strh.w	r2, [r3, #70]	@ 0x46
        }
        /* Next Data is a Transmission (Tx). Tx is allowed */
        txallowed = 1U;
 80076d0:	2301      	movs	r3, #1
 80076d2:	627b      	str	r3, [r7, #36]	@ 0x24
      }
      if ((((HAL_GetTick() - tickstart) >=  Timeout) && ((Timeout != HAL_MAX_DELAY))) || (Timeout == 0U))
 80076d4:	f7fb ff3c 	bl	8003550 <HAL_GetTick>
 80076d8:	4602      	mov	r2, r0
 80076da:	6a3b      	ldr	r3, [r7, #32]
 80076dc:	1ad3      	subs	r3, r2, r3
 80076de:	6b3a      	ldr	r2, [r7, #48]	@ 0x30
 80076e0:	429a      	cmp	r2, r3
 80076e2:	d803      	bhi.n	80076ec <HAL_SPI_TransmitReceive+0x3c2>
 80076e4:	6b3b      	ldr	r3, [r7, #48]	@ 0x30
 80076e6:	f1b3 3fff 	cmp.w	r3, #4294967295
 80076ea:	d102      	bne.n	80076f2 <HAL_SPI_TransmitReceive+0x3c8>
 80076ec:	6b3b      	ldr	r3, [r7, #48]	@ 0x30
 80076ee:	2b00      	cmp	r3, #0
 80076f0:	d109      	bne.n	8007706 <HAL_SPI_TransmitReceive+0x3dc>
      {
        hspi->State = HAL_SPI_STATE_READY;
 80076f2:	68fb      	ldr	r3, [r7, #12]
 80076f4:	2201      	movs	r2, #1
 80076f6:	f883 205d 	strb.w	r2, [r3, #93]	@ 0x5d
        __HAL_UNLOCK(hspi);
 80076fa:	68fb      	ldr	r3, [r7, #12]
 80076fc:	2200      	movs	r2, #0
 80076fe:	f883 205c 	strb.w	r2, [r3, #92]	@ 0x5c
        return HAL_TIMEOUT;
 8007702:	2303      	movs	r3, #3
 8007704:	e02c      	b.n	8007760 <HAL_SPI_TransmitReceive+0x436>
    while ((hspi->TxXferCount > 0U) || (hspi->RxXferCount > 0U))
 8007706:	68fb      	ldr	r3, [r7, #12]
 8007708:	8fdb      	ldrh	r3, [r3, #62]	@ 0x3e
 800770a:	b29b      	uxth	r3, r3
 800770c:	2b00      	cmp	r3, #0
 800770e:	f47f af55 	bne.w	80075bc <HAL_SPI_TransmitReceive+0x292>
 8007712:	68fb      	ldr	r3, [r7, #12]
 8007714:	f8b3 3046 	ldrh.w	r3, [r3, #70]	@ 0x46
 8007718:	b29b      	uxth	r3, r3
 800771a:	2b00      	cmp	r3, #0
 800771c:	f47f af4e 	bne.w	80075bc <HAL_SPI_TransmitReceive+0x292>
    return HAL_ERROR;
  }
#endif /* USE_SPI_CRC */

  /* Check the end of the transaction */
  if (SPI_EndRxTxTransaction(hspi, Timeout, tickstart) != HAL_OK)
 8007720:	6a3a      	ldr	r2, [r7, #32]
 8007722:	6b39      	ldr	r1, [r7, #48]	@ 0x30
 8007724:	68f8      	ldr	r0, [r7, #12]
 8007726:	f000 fd3b 	bl	80081a0 <SPI_EndRxTxTransaction>
 800772a:	4603      	mov	r3, r0
 800772c:	2b00      	cmp	r3, #0
 800772e:	d008      	beq.n	8007742 <HAL_SPI_TransmitReceive+0x418>
  {
    hspi->ErrorCode = HAL_SPI_ERROR_FLAG;
 8007730:	68fb      	ldr	r3, [r7, #12]
 8007732:	2220      	movs	r2, #32
 8007734:	661a      	str	r2, [r3, #96]	@ 0x60
    __HAL_UNLOCK(hspi);
 8007736:	68fb      	ldr	r3, [r7, #12]
 8007738:	2200      	movs	r2, #0
 800773a:	f883 205c 	strb.w	r2, [r3, #92]	@ 0x5c
    return HAL_ERROR;
 800773e:	2301      	movs	r3, #1
 8007740:	e00e      	b.n	8007760 <HAL_SPI_TransmitReceive+0x436>
  }


  hspi->State = HAL_SPI_STATE_READY;
 8007742:	68fb      	ldr	r3, [r7, #12]
 8007744:	2201      	movs	r2, #1
 8007746:	f883 205d 	strb.w	r2, [r3, #93]	@ 0x5d
  /* Unlock the process */
  __HAL_UNLOCK(hspi);
 800774a:	68fb      	ldr	r3, [r7, #12]
 800774c:	2200      	movs	r2, #0
 800774e:	f883 205c 	strb.w	r2, [r3, #92]	@ 0x5c

  if (hspi->ErrorCode != HAL_SPI_ERROR_NONE)
 8007752:	68fb      	ldr	r3, [r7, #12]
 8007754:	6e1b      	ldr	r3, [r3, #96]	@ 0x60
 8007756:	2b00      	cmp	r3, #0
 8007758:	d001      	beq.n	800775e <HAL_SPI_TransmitReceive+0x434>
  {
    return HAL_ERROR;
 800775a:	2301      	movs	r3, #1
 800775c:	e000      	b.n	8007760 <HAL_SPI_TransmitReceive+0x436>
  }
  else
  {
    return HAL_OK;
 800775e:	2300      	movs	r3, #0
  }
}
 8007760:	4618      	mov	r0, r3
 8007762:	3728      	adds	r7, #40	@ 0x28
 8007764:	46bd      	mov	sp, r7
 8007766:	bd80      	pop	{r7, pc}

08007768 <HAL_SPI_Receive_DMA>:
  * @note   When the CRC feature is enabled the pData Length must be Size + 1.
  * @param  Size amount of data elements (u8 or u16) to be received
  * @retval HAL status
  */
HAL_StatusTypeDef HAL_SPI_Receive_DMA(SPI_HandleTypeDef *hspi, uint8_t *pData, uint16_t Size)
{
 8007768:	b580      	push	{r7, lr}
 800776a:	b084      	sub	sp, #16
 800776c:	af00      	add	r7, sp, #0
 800776e:	60f8      	str	r0, [r7, #12]
 8007770:	60b9      	str	r1, [r7, #8]
 8007772:	4613      	mov	r3, r2
 8007774:	80fb      	strh	r3, [r7, #6]
  /* Check rx dma handle */
  assert_param(IS_SPI_DMA_HANDLE(hspi->hdmarx));

  if (hspi->State != HAL_SPI_STATE_READY)
 8007776:	68fb      	ldr	r3, [r7, #12]
 8007778:	f893 305d 	ldrb.w	r3, [r3, #93]	@ 0x5d
 800777c:	b2db      	uxtb	r3, r3
 800777e:	2b01      	cmp	r3, #1
 8007780:	d001      	beq.n	8007786 <HAL_SPI_Receive_DMA+0x1e>
  {
    return HAL_BUSY;
 8007782:	2302      	movs	r3, #2
 8007784:	e105      	b.n	8007992 <HAL_SPI_Receive_DMA+0x22a>
  }

  if ((pData == NULL) || (Size == 0U))
 8007786:	68bb      	ldr	r3, [r7, #8]
 8007788:	2b00      	cmp	r3, #0
 800778a:	d002      	beq.n	8007792 <HAL_SPI_Receive_DMA+0x2a>
 800778c:	88fb      	ldrh	r3, [r7, #6]
 800778e:	2b00      	cmp	r3, #0
 8007790:	d101      	bne.n	8007796 <HAL_SPI_Receive_DMA+0x2e>
  {
    return HAL_ERROR;
 8007792:	2301      	movs	r3, #1
 8007794:	e0fd      	b.n	8007992 <HAL_SPI_Receive_DMA+0x22a>
  }

  if ((hspi->Init.Direction == SPI_DIRECTION_2LINES) && (hspi->Init.Mode == SPI_MODE_MASTER))
 8007796:	68fb      	ldr	r3, [r7, #12]
 8007798:	689b      	ldr	r3, [r3, #8]
 800779a:	2b00      	cmp	r3, #0
 800779c:	d110      	bne.n	80077c0 <HAL_SPI_Receive_DMA+0x58>
 800779e:	68fb      	ldr	r3, [r7, #12]
 80077a0:	685b      	ldr	r3, [r3, #4]
 80077a2:	f5b3 7f82 	cmp.w	r3, #260	@ 0x104
 80077a6:	d10b      	bne.n	80077c0 <HAL_SPI_Receive_DMA+0x58>
  {
    hspi->State = HAL_SPI_STATE_BUSY_RX;
 80077a8:	68fb      	ldr	r3, [r7, #12]
 80077aa:	2204      	movs	r2, #4
 80077ac:	f883 205d 	strb.w	r2, [r3, #93]	@ 0x5d

    /* Check tx dma handle */
    assert_param(IS_SPI_DMA_HANDLE(hspi->hdmatx));

    /* Call transmit-receive function to send Dummy data on Tx line and generate clock on CLK line */
    return HAL_SPI_TransmitReceive_DMA(hspi, pData, pData, Size);
 80077b0:	88fb      	ldrh	r3, [r7, #6]
 80077b2:	68ba      	ldr	r2, [r7, #8]
 80077b4:	68b9      	ldr	r1, [r7, #8]
 80077b6:	68f8      	ldr	r0, [r7, #12]
 80077b8:	f000 f8f6 	bl	80079a8 <HAL_SPI_TransmitReceive_DMA>
 80077bc:	4603      	mov	r3, r0
 80077be:	e0e8      	b.n	8007992 <HAL_SPI_Receive_DMA+0x22a>
  }

  /* Process Locked */
  __HAL_LOCK(hspi);
 80077c0:	68fb      	ldr	r3, [r7, #12]
 80077c2:	f893 305c 	ldrb.w	r3, [r3, #92]	@ 0x5c
 80077c6:	2b01      	cmp	r3, #1
 80077c8:	d101      	bne.n	80077ce <HAL_SPI_Receive_DMA+0x66>
 80077ca:	2302      	movs	r3, #2
 80077cc:	e0e1      	b.n	8007992 <HAL_SPI_Receive_DMA+0x22a>
 80077ce:	68fb      	ldr	r3, [r7, #12]
 80077d0:	2201      	movs	r2, #1
 80077d2:	f883 205c 	strb.w	r2, [r3, #92]	@ 0x5c

  /* Set the transaction information */
  hspi->State       = HAL_SPI_STATE_BUSY_RX;
 80077d6:	68fb      	ldr	r3, [r7, #12]
 80077d8:	2204      	movs	r2, #4
 80077da:	f883 205d 	strb.w	r2, [r3, #93]	@ 0x5d
  hspi->ErrorCode   = HAL_SPI_ERROR_NONE;
 80077de:	68fb      	ldr	r3, [r7, #12]
 80077e0:	2200      	movs	r2, #0
 80077e2:	661a      	str	r2, [r3, #96]	@ 0x60
  hspi->pRxBuffPtr  = (uint8_t *)pData;
 80077e4:	68fb      	ldr	r3, [r7, #12]
 80077e6:	68ba      	ldr	r2, [r7, #8]
 80077e8:	641a      	str	r2, [r3, #64]	@ 0x40
  hspi->RxXferSize  = Size;
 80077ea:	68fb      	ldr	r3, [r7, #12]
 80077ec:	88fa      	ldrh	r2, [r7, #6]
 80077ee:	f8a3 2044 	strh.w	r2, [r3, #68]	@ 0x44
  hspi->RxXferCount = Size;
 80077f2:	68fb      	ldr	r3, [r7, #12]
 80077f4:	88fa      	ldrh	r2, [r7, #6]
 80077f6:	f8a3 2046 	strh.w	r2, [r3, #70]	@ 0x46

  /*Init field not used in handle to zero */
  hspi->RxISR       = NULL;
 80077fa:	68fb      	ldr	r3, [r7, #12]
 80077fc:	2200      	movs	r2, #0
 80077fe:	64da      	str	r2, [r3, #76]	@ 0x4c
  hspi->TxISR       = NULL;
 8007800:	68fb      	ldr	r3, [r7, #12]
 8007802:	2200      	movs	r2, #0
 8007804:	651a      	str	r2, [r3, #80]	@ 0x50
  hspi->TxXferSize  = 0U;
 8007806:	68fb      	ldr	r3, [r7, #12]
 8007808:	2200      	movs	r2, #0
 800780a:	879a      	strh	r2, [r3, #60]	@ 0x3c
  hspi->TxXferCount = 0U;
 800780c:	68fb      	ldr	r3, [r7, #12]
 800780e:	2200      	movs	r2, #0
 8007810:	87da      	strh	r2, [r3, #62]	@ 0x3e

  /* Configure communication direction : 1Line */
  if (hspi->Init.Direction == SPI_DIRECTION_1LINE)
 8007812:	68fb      	ldr	r3, [r7, #12]
 8007814:	689b      	ldr	r3, [r3, #8]
 8007816:	f5b3 4f00 	cmp.w	r3, #32768	@ 0x8000
 800781a:	d10f      	bne.n	800783c <HAL_SPI_Receive_DMA+0xd4>
  {
    /* Disable SPI Peripheral before set 1Line direction (BIDIOE bit) */
    __HAL_SPI_DISABLE(hspi);
 800781c:	68fb      	ldr	r3, [r7, #12]
 800781e:	681b      	ldr	r3, [r3, #0]
 8007820:	681a      	ldr	r2, [r3, #0]
 8007822:	68fb      	ldr	r3, [r7, #12]
 8007824:	681b      	ldr	r3, [r3, #0]
 8007826:	f022 0240 	bic.w	r2, r2, #64	@ 0x40
 800782a:	601a      	str	r2, [r3, #0]
    SPI_1LINE_RX(hspi);
 800782c:	68fb      	ldr	r3, [r7, #12]
 800782e:	681b      	ldr	r3, [r3, #0]
 8007830:	681a      	ldr	r2, [r3, #0]
 8007832:	68fb      	ldr	r3, [r7, #12]
 8007834:	681b      	ldr	r3, [r3, #0]
 8007836:	f422 4280 	bic.w	r2, r2, #16384	@ 0x4000
 800783a:	601a      	str	r2, [r3, #0]
    SPI_RESET_CRC(hspi);
  }
#endif /* USE_SPI_CRC */


  CLEAR_BIT(hspi->Instance->CR2, SPI_CR2_LDMARX);
 800783c:	68fb      	ldr	r3, [r7, #12]
 800783e:	681b      	ldr	r3, [r3, #0]
 8007840:	685a      	ldr	r2, [r3, #4]
 8007842:	68fb      	ldr	r3, [r7, #12]
 8007844:	681b      	ldr	r3, [r3, #0]
 8007846:	f422 5200 	bic.w	r2, r2, #8192	@ 0x2000
 800784a:	605a      	str	r2, [r3, #4]
  if (hspi->Init.DataSize > SPI_DATASIZE_8BIT)
 800784c:	68fb      	ldr	r3, [r7, #12]
 800784e:	68db      	ldr	r3, [r3, #12]
 8007850:	f5b3 6fe0 	cmp.w	r3, #1792	@ 0x700
 8007854:	d908      	bls.n	8007868 <HAL_SPI_Receive_DMA+0x100>
  {
    /* Set RX Fifo threshold according the reception data length: 16bit */
    CLEAR_BIT(hspi->Instance->CR2, SPI_RXFIFO_THRESHOLD);
 8007856:	68fb      	ldr	r3, [r7, #12]
 8007858:	681b      	ldr	r3, [r3, #0]
 800785a:	685a      	ldr	r2, [r3, #4]
 800785c:	68fb      	ldr	r3, [r7, #12]
 800785e:	681b      	ldr	r3, [r3, #0]
 8007860:	f422 5280 	bic.w	r2, r2, #4096	@ 0x1000
 8007864:	605a      	str	r2, [r3, #4]
 8007866:	e042      	b.n	80078ee <HAL_SPI_Receive_DMA+0x186>
  }
  else
  {
    /* Set RX Fifo threshold according the reception data length: 8bit */
    SET_BIT(hspi->Instance->CR2, SPI_RXFIFO_THRESHOLD);
 8007868:	68fb      	ldr	r3, [r7, #12]
 800786a:	681b      	ldr	r3, [r3, #0]
 800786c:	685a      	ldr	r2, [r3, #4]
 800786e:	68fb      	ldr	r3, [r7, #12]
 8007870:	681b      	ldr	r3, [r3, #0]
 8007872:	f442 5280 	orr.w	r2, r2, #4096	@ 0x1000
 8007876:	605a      	str	r2, [r3, #4]

    if (hspi->hdmarx->Init.MemDataAlignment == DMA_MDATAALIGN_HALFWORD)
 8007878:	68fb      	ldr	r3, [r7, #12]
 800787a:	6d9b      	ldr	r3, [r3, #88]	@ 0x58
 800787c:	699b      	ldr	r3, [r3, #24]
 800787e:	f5b3 6f80 	cmp.w	r3, #1024	@ 0x400
 8007882:	d134      	bne.n	80078ee <HAL_SPI_Receive_DMA+0x186>
    {
      /* Set RX Fifo threshold according the reception data length: 16bit */
      CLEAR_BIT(hspi->Instance->CR2, SPI_RXFIFO_THRESHOLD);
 8007884:	68fb      	ldr	r3, [r7, #12]
 8007886:	681b      	ldr	r3, [r3, #0]
 8007888:	685a      	ldr	r2, [r3, #4]
 800788a:	68fb      	ldr	r3, [r7, #12]
 800788c:	681b      	ldr	r3, [r3, #0]
 800788e:	f422 5280 	bic.w	r2, r2, #4096	@ 0x1000
 8007892:	605a      	str	r2, [r3, #4]

      if ((hspi->RxXferCount & 0x1U) == 0x0U)
 8007894:	68fb      	ldr	r3, [r7, #12]
 8007896:	f8b3 3046 	ldrh.w	r3, [r3, #70]	@ 0x46
 800789a:	b29b      	uxth	r3, r3
 800789c:	f003 0301 	and.w	r3, r3, #1
 80078a0:	2b00      	cmp	r3, #0
 80078a2:	d111      	bne.n	80078c8 <HAL_SPI_Receive_DMA+0x160>
      {
        CLEAR_BIT(hspi->Instance->CR2, SPI_CR2_LDMARX);
 80078a4:	68fb      	ldr	r3, [r7, #12]
 80078a6:	681b      	ldr	r3, [r3, #0]
 80078a8:	685a      	ldr	r2, [r3, #4]
 80078aa:	68fb      	ldr	r3, [r7, #12]
 80078ac:	681b      	ldr	r3, [r3, #0]
 80078ae:	f422 5200 	bic.w	r2, r2, #8192	@ 0x2000
 80078b2:	605a      	str	r2, [r3, #4]
        hspi->RxXferCount = hspi->RxXferCount >> 1U;
 80078b4:	68fb      	ldr	r3, [r7, #12]
 80078b6:	f8b3 3046 	ldrh.w	r3, [r3, #70]	@ 0x46
 80078ba:	b29b      	uxth	r3, r3
 80078bc:	085b      	lsrs	r3, r3, #1
 80078be:	b29a      	uxth	r2, r3
 80078c0:	68fb      	ldr	r3, [r7, #12]
 80078c2:	f8a3 2046 	strh.w	r2, [r3, #70]	@ 0x46
 80078c6:	e012      	b.n	80078ee <HAL_SPI_Receive_DMA+0x186>
      }
      else
      {
        SET_BIT(hspi->Instance->CR2, SPI_CR2_LDMARX);
 80078c8:	68fb      	ldr	r3, [r7, #12]
 80078ca:	681b      	ldr	r3, [r3, #0]
 80078cc:	685a      	ldr	r2, [r3, #4]
 80078ce:	68fb      	ldr	r3, [r7, #12]
 80078d0:	681b      	ldr	r3, [r3, #0]
 80078d2:	f442 5200 	orr.w	r2, r2, #8192	@ 0x2000
 80078d6:	605a      	str	r2, [r3, #4]
        hspi->RxXferCount = (hspi->RxXferCount >> 1U) + 1U;
 80078d8:	68fb      	ldr	r3, [r7, #12]
 80078da:	f8b3 3046 	ldrh.w	r3, [r3, #70]	@ 0x46
 80078de:	b29b      	uxth	r3, r3
 80078e0:	085b      	lsrs	r3, r3, #1
 80078e2:	b29b      	uxth	r3, r3
 80078e4:	3301      	adds	r3, #1
 80078e6:	b29a      	uxth	r2, r3
 80078e8:	68fb      	ldr	r3, [r7, #12]
 80078ea:	f8a3 2046 	strh.w	r2, [r3, #70]	@ 0x46
      }
    }
  }

  /* Set the SPI RxDMA Half transfer complete callback */
  hspi->hdmarx->XferHalfCpltCallback = SPI_DMAHalfReceiveCplt;
 80078ee:	68fb      	ldr	r3, [r7, #12]
 80078f0:	6d9b      	ldr	r3, [r3, #88]	@ 0x58
 80078f2:	4a2a      	ldr	r2, [pc, #168]	@ (800799c <HAL_SPI_Receive_DMA+0x234>)
 80078f4:	631a      	str	r2, [r3, #48]	@ 0x30

  /* Set the SPI Rx DMA transfer complete callback */
  hspi->hdmarx->XferCpltCallback = SPI_DMAReceiveCplt;
 80078f6:	68fb      	ldr	r3, [r7, #12]
 80078f8:	6d9b      	ldr	r3, [r3, #88]	@ 0x58
 80078fa:	4a29      	ldr	r2, [pc, #164]	@ (80079a0 <HAL_SPI_Receive_DMA+0x238>)
 80078fc:	62da      	str	r2, [r3, #44]	@ 0x2c

  /* Set the DMA error callback */
  hspi->hdmarx->XferErrorCallback = SPI_DMAError;
 80078fe:	68fb      	ldr	r3, [r7, #12]
 8007900:	6d9b      	ldr	r3, [r3, #88]	@ 0x58
 8007902:	4a28      	ldr	r2, [pc, #160]	@ (80079a4 <HAL_SPI_Receive_DMA+0x23c>)
 8007904:	635a      	str	r2, [r3, #52]	@ 0x34

  /* Set the DMA AbortCpltCallback */
  hspi->hdmarx->XferAbortCallback = NULL;
 8007906:	68fb      	ldr	r3, [r7, #12]
 8007908:	6d9b      	ldr	r3, [r3, #88]	@ 0x58
 800790a:	2200      	movs	r2, #0
 800790c:	639a      	str	r2, [r3, #56]	@ 0x38

  /* Enable the Rx DMA Stream/Channel  */
  if (HAL_OK != HAL_DMA_Start_IT(hspi->hdmarx, (uint32_t)&hspi->Instance->DR, (uint32_t)hspi->pRxBuffPtr,
 800790e:	68fb      	ldr	r3, [r7, #12]
 8007910:	6d98      	ldr	r0, [r3, #88]	@ 0x58
 8007912:	68fb      	ldr	r3, [r7, #12]
 8007914:	681b      	ldr	r3, [r3, #0]
 8007916:	330c      	adds	r3, #12
 8007918:	4619      	mov	r1, r3
 800791a:	68fb      	ldr	r3, [r7, #12]
 800791c:	6c1b      	ldr	r3, [r3, #64]	@ 0x40
 800791e:	461a      	mov	r2, r3
                                 hspi->RxXferCount))
 8007920:	68fb      	ldr	r3, [r7, #12]
 8007922:	f8b3 3046 	ldrh.w	r3, [r3, #70]	@ 0x46
 8007926:	b29b      	uxth	r3, r3
  if (HAL_OK != HAL_DMA_Start_IT(hspi->hdmarx, (uint32_t)&hspi->Instance->DR, (uint32_t)hspi->pRxBuffPtr,
 8007928:	f7fd fb4a 	bl	8004fc0 <HAL_DMA_Start_IT>
 800792c:	4603      	mov	r3, r0
 800792e:	2b00      	cmp	r3, #0
 8007930:	d00b      	beq.n	800794a <HAL_SPI_Receive_DMA+0x1e2>
  {
    /* Update SPI error code */
    SET_BIT(hspi->ErrorCode, HAL_SPI_ERROR_DMA);
 8007932:	68fb      	ldr	r3, [r7, #12]
 8007934:	6e1b      	ldr	r3, [r3, #96]	@ 0x60
 8007936:	f043 0210 	orr.w	r2, r3, #16
 800793a:	68fb      	ldr	r3, [r7, #12]
 800793c:	661a      	str	r2, [r3, #96]	@ 0x60
    /* Process Unlocked */
    __HAL_UNLOCK(hspi);
 800793e:	68fb      	ldr	r3, [r7, #12]
 8007940:	2200      	movs	r2, #0
 8007942:	f883 205c 	strb.w	r2, [r3, #92]	@ 0x5c
    return HAL_ERROR;
 8007946:	2301      	movs	r3, #1
 8007948:	e023      	b.n	8007992 <HAL_SPI_Receive_DMA+0x22a>
  }

  /* Check if the SPI is already enabled */
  if ((hspi->Instance->CR1 & SPI_CR1_SPE) != SPI_CR1_SPE)
 800794a:	68fb      	ldr	r3, [r7, #12]
 800794c:	681b      	ldr	r3, [r3, #0]
 800794e:	681b      	ldr	r3, [r3, #0]
 8007950:	f003 0340 	and.w	r3, r3, #64	@ 0x40
 8007954:	2b40      	cmp	r3, #64	@ 0x40
 8007956:	d007      	beq.n	8007968 <HAL_SPI_Receive_DMA+0x200>
  {
    /* Enable SPI peripheral */
    __HAL_SPI_ENABLE(hspi);
 8007958:	68fb      	ldr	r3, [r7, #12]
 800795a:	681b      	ldr	r3, [r3, #0]
 800795c:	681a      	ldr	r2, [r3, #0]
 800795e:	68fb      	ldr	r3, [r7, #12]
 8007960:	681b      	ldr	r3, [r3, #0]
 8007962:	f042 0240 	orr.w	r2, r2, #64	@ 0x40
 8007966:	601a      	str	r2, [r3, #0]
  }

  /* Process Unlocked */
  __HAL_UNLOCK(hspi);
 8007968:	68fb      	ldr	r3, [r7, #12]
 800796a:	2200      	movs	r2, #0
 800796c:	f883 205c 	strb.w	r2, [r3, #92]	@ 0x5c

  /* Enable the SPI Error Interrupt Bit */
  __HAL_SPI_ENABLE_IT(hspi, (SPI_IT_ERR));
 8007970:	68fb      	ldr	r3, [r7, #12]
 8007972:	681b      	ldr	r3, [r3, #0]
 8007974:	685a      	ldr	r2, [r3, #4]
 8007976:	68fb      	ldr	r3, [r7, #12]
 8007978:	681b      	ldr	r3, [r3, #0]
 800797a:	f042 0220 	orr.w	r2, r2, #32
 800797e:	605a      	str	r2, [r3, #4]

  /* Enable Rx DMA Request */
  SET_BIT(hspi->Instance->CR2, SPI_CR2_RXDMAEN);
 8007980:	68fb      	ldr	r3, [r7, #12]
 8007982:	681b      	ldr	r3, [r3, #0]
 8007984:	685a      	ldr	r2, [r3, #4]
 8007986:	68fb      	ldr	r3, [r7, #12]
 8007988:	681b      	ldr	r3, [r3, #0]
 800798a:	f042 0201 	orr.w	r2, r2, #1
 800798e:	605a      	str	r2, [r3, #4]

  return HAL_OK;
 8007990:	2300      	movs	r3, #0
}
 8007992:	4618      	mov	r0, r3
 8007994:	3710      	adds	r7, #16
 8007996:	46bd      	mov	sp, r7
 8007998:	bd80      	pop	{r7, pc}
 800799a:	bf00      	nop
 800799c:	08007e3d 	.word	0x08007e3d
 80079a0:	08007d05 	.word	0x08007d05
 80079a4:	08007e75 	.word	0x08007e75

080079a8 <HAL_SPI_TransmitReceive_DMA>:
  * @param  Size amount of data elements (u8 or u16) to be sent and received
  * @retval HAL status
  */
HAL_StatusTypeDef HAL_SPI_TransmitReceive_DMA(SPI_HandleTypeDef *hspi, const uint8_t *pTxData, uint8_t *pRxData,
                                              uint16_t Size)
{
 80079a8:	b580      	push	{r7, lr}
 80079aa:	b086      	sub	sp, #24
 80079ac:	af00      	add	r7, sp, #0
 80079ae:	60f8      	str	r0, [r7, #12]
 80079b0:	60b9      	str	r1, [r7, #8]
 80079b2:	607a      	str	r2, [r7, #4]
 80079b4:	807b      	strh	r3, [r7, #2]

  /* Check Direction parameter */
  assert_param(IS_SPI_DIRECTION_2LINES(hspi->Init.Direction));

  /* Init temporary variables */
  tmp_state           = hspi->State;
 80079b6:	68fb      	ldr	r3, [r7, #12]
 80079b8:	f893 305d 	ldrb.w	r3, [r3, #93]	@ 0x5d
 80079bc:	75fb      	strb	r3, [r7, #23]
  tmp_mode            = hspi->Init.Mode;
 80079be:	68fb      	ldr	r3, [r7, #12]
 80079c0:	685b      	ldr	r3, [r3, #4]
 80079c2:	613b      	str	r3, [r7, #16]

  if (!((tmp_state == HAL_SPI_STATE_READY) ||
 80079c4:	7dfb      	ldrb	r3, [r7, #23]
 80079c6:	2b01      	cmp	r3, #1
 80079c8:	d00c      	beq.n	80079e4 <HAL_SPI_TransmitReceive_DMA+0x3c>
 80079ca:	693b      	ldr	r3, [r7, #16]
 80079cc:	f5b3 7f82 	cmp.w	r3, #260	@ 0x104
 80079d0:	d106      	bne.n	80079e0 <HAL_SPI_TransmitReceive_DMA+0x38>
        ((tmp_mode == SPI_MODE_MASTER) && (hspi->Init.Direction == SPI_DIRECTION_2LINES) &&
 80079d2:	68fb      	ldr	r3, [r7, #12]
 80079d4:	689b      	ldr	r3, [r3, #8]
 80079d6:	2b00      	cmp	r3, #0
 80079d8:	d102      	bne.n	80079e0 <HAL_SPI_TransmitReceive_DMA+0x38>
 80079da:	7dfb      	ldrb	r3, [r7, #23]
 80079dc:	2b04      	cmp	r3, #4
 80079de:	d001      	beq.n	80079e4 <HAL_SPI_TransmitReceive_DMA+0x3c>
         (tmp_state == HAL_SPI_STATE_BUSY_RX))))
  {
    return HAL_BUSY;
 80079e0:	2302      	movs	r3, #2
 80079e2:	e158      	b.n	8007c96 <HAL_SPI_TransmitReceive_DMA+0x2ee>
  }

  if ((pTxData == NULL) || (pRxData == NULL) || (Size == 0U))
 80079e4:	68bb      	ldr	r3, [r7, #8]
 80079e6:	2b00      	cmp	r3, #0
 80079e8:	d005      	beq.n	80079f6 <HAL_SPI_TransmitReceive_DMA+0x4e>
 80079ea:	687b      	ldr	r3, [r7, #4]
 80079ec:	2b00      	cmp	r3, #0
 80079ee:	d002      	beq.n	80079f6 <HAL_SPI_TransmitReceive_DMA+0x4e>
 80079f0:	887b      	ldrh	r3, [r7, #2]
 80079f2:	2b00      	cmp	r3, #0
 80079f4:	d101      	bne.n	80079fa <HAL_SPI_TransmitReceive_DMA+0x52>
  {
    return HAL_ERROR;
 80079f6:	2301      	movs	r3, #1
 80079f8:	e14d      	b.n	8007c96 <HAL_SPI_TransmitReceive_DMA+0x2ee>
  }

  /* Process locked */
  __HAL_LOCK(hspi);
 80079fa:	68fb      	ldr	r3, [r7, #12]
 80079fc:	f893 305c 	ldrb.w	r3, [r3, #92]	@ 0x5c
 8007a00:	2b01      	cmp	r3, #1
 8007a02:	d101      	bne.n	8007a08 <HAL_SPI_TransmitReceive_DMA+0x60>
 8007a04:	2302      	movs	r3, #2
 8007a06:	e146      	b.n	8007c96 <HAL_SPI_TransmitReceive_DMA+0x2ee>
 8007a08:	68fb      	ldr	r3, [r7, #12]
 8007a0a:	2201      	movs	r2, #1
 8007a0c:	f883 205c 	strb.w	r2, [r3, #92]	@ 0x5c

  /* Don't overwrite in case of HAL_SPI_STATE_BUSY_RX */
  if (hspi->State != HAL_SPI_STATE_BUSY_RX)
 8007a10:	68fb      	ldr	r3, [r7, #12]
 8007a12:	f893 305d 	ldrb.w	r3, [r3, #93]	@ 0x5d
 8007a16:	b2db      	uxtb	r3, r3
 8007a18:	2b04      	cmp	r3, #4
 8007a1a:	d003      	beq.n	8007a24 <HAL_SPI_TransmitReceive_DMA+0x7c>
  {
    hspi->State = HAL_SPI_STATE_BUSY_TX_RX;
 8007a1c:	68fb      	ldr	r3, [r7, #12]
 8007a1e:	2205      	movs	r2, #5
 8007a20:	f883 205d 	strb.w	r2, [r3, #93]	@ 0x5d
  }

  /* Set the transaction information */
  hspi->ErrorCode   = HAL_SPI_ERROR_NONE;
 8007a24:	68fb      	ldr	r3, [r7, #12]
 8007a26:	2200      	movs	r2, #0
 8007a28:	661a      	str	r2, [r3, #96]	@ 0x60
  hspi->pTxBuffPtr  = (const uint8_t *)pTxData;
 8007a2a:	68fb      	ldr	r3, [r7, #12]
 8007a2c:	68ba      	ldr	r2, [r7, #8]
 8007a2e:	639a      	str	r2, [r3, #56]	@ 0x38
  hspi->TxXferSize  = Size;
 8007a30:	68fb      	ldr	r3, [r7, #12]
 8007a32:	887a      	ldrh	r2, [r7, #2]
 8007a34:	879a      	strh	r2, [r3, #60]	@ 0x3c
  hspi->TxXferCount = Size;
 8007a36:	68fb      	ldr	r3, [r7, #12]
 8007a38:	887a      	ldrh	r2, [r7, #2]
 8007a3a:	87da      	strh	r2, [r3, #62]	@ 0x3e
  hspi->pRxBuffPtr  = (uint8_t *)pRxData;
 8007a3c:	68fb      	ldr	r3, [r7, #12]
 8007a3e:	687a      	ldr	r2, [r7, #4]
 8007a40:	641a      	str	r2, [r3, #64]	@ 0x40
  hspi->RxXferSize  = Size;
 8007a42:	68fb      	ldr	r3, [r7, #12]
 8007a44:	887a      	ldrh	r2, [r7, #2]
 8007a46:	f8a3 2044 	strh.w	r2, [r3, #68]	@ 0x44
  hspi->RxXferCount = Size;
 8007a4a:	68fb      	ldr	r3, [r7, #12]
 8007a4c:	887a      	ldrh	r2, [r7, #2]
 8007a4e:	f8a3 2046 	strh.w	r2, [r3, #70]	@ 0x46

  /* Init field not used in handle to zero */
  hspi->RxISR       = NULL;
 8007a52:	68fb      	ldr	r3, [r7, #12]
 8007a54:	2200      	movs	r2, #0
 8007a56:	64da      	str	r2, [r3, #76]	@ 0x4c
  hspi->TxISR       = NULL;
 8007a58:	68fb      	ldr	r3, [r7, #12]
 8007a5a:	2200      	movs	r2, #0
 8007a5c:	651a      	str	r2, [r3, #80]	@ 0x50
    SPI_RESET_CRC(hspi);
  }
#endif /* USE_SPI_CRC */

  /* Reset the threshold bit */
  CLEAR_BIT(hspi->Instance->CR2, SPI_CR2_LDMATX | SPI_CR2_LDMARX);
 8007a5e:	68fb      	ldr	r3, [r7, #12]
 8007a60:	681b      	ldr	r3, [r3, #0]
 8007a62:	685a      	ldr	r2, [r3, #4]
 8007a64:	68fb      	ldr	r3, [r7, #12]
 8007a66:	681b      	ldr	r3, [r3, #0]
 8007a68:	f422 42c0 	bic.w	r2, r2, #24576	@ 0x6000
 8007a6c:	605a      	str	r2, [r3, #4]

  /* The packing mode management is enabled by the DMA settings according the spi data size */
  if (hspi->Init.DataSize > SPI_DATASIZE_8BIT)
 8007a6e:	68fb      	ldr	r3, [r7, #12]
 8007a70:	68db      	ldr	r3, [r3, #12]
 8007a72:	f5b3 6fe0 	cmp.w	r3, #1792	@ 0x700
 8007a76:	d908      	bls.n	8007a8a <HAL_SPI_TransmitReceive_DMA+0xe2>
  {
    /* Set fiforxthreshold according the reception data length: 16bit */
    CLEAR_BIT(hspi->Instance->CR2, SPI_RXFIFO_THRESHOLD);
 8007a78:	68fb      	ldr	r3, [r7, #12]
 8007a7a:	681b      	ldr	r3, [r3, #0]
 8007a7c:	685a      	ldr	r2, [r3, #4]
 8007a7e:	68fb      	ldr	r3, [r7, #12]
 8007a80:	681b      	ldr	r3, [r3, #0]
 8007a82:	f422 5280 	bic.w	r2, r2, #4096	@ 0x1000
 8007a86:	605a      	str	r2, [r3, #4]
 8007a88:	e06f      	b.n	8007b6a <HAL_SPI_TransmitReceive_DMA+0x1c2>
  }
  else
  {
    /* Set RX Fifo threshold according the reception data length: 8bit */
    SET_BIT(hspi->Instance->CR2, SPI_RXFIFO_THRESHOLD);
 8007a8a:	68fb      	ldr	r3, [r7, #12]
 8007a8c:	681b      	ldr	r3, [r3, #0]
 8007a8e:	685a      	ldr	r2, [r3, #4]
 8007a90:	68fb      	ldr	r3, [r7, #12]
 8007a92:	681b      	ldr	r3, [r3, #0]
 8007a94:	f442 5280 	orr.w	r2, r2, #4096	@ 0x1000
 8007a98:	605a      	str	r2, [r3, #4]

    if (hspi->hdmatx->Init.MemDataAlignment == DMA_MDATAALIGN_HALFWORD)
 8007a9a:	68fb      	ldr	r3, [r7, #12]
 8007a9c:	6d5b      	ldr	r3, [r3, #84]	@ 0x54
 8007a9e:	699b      	ldr	r3, [r3, #24]
 8007aa0:	f5b3 6f80 	cmp.w	r3, #1024	@ 0x400
 8007aa4:	d126      	bne.n	8007af4 <HAL_SPI_TransmitReceive_DMA+0x14c>
    {
      if ((hspi->TxXferSize & 0x1U) == 0x0U)
 8007aa6:	68fb      	ldr	r3, [r7, #12]
 8007aa8:	8f9b      	ldrh	r3, [r3, #60]	@ 0x3c
 8007aaa:	f003 0301 	and.w	r3, r3, #1
 8007aae:	2b00      	cmp	r3, #0
 8007ab0:	d10f      	bne.n	8007ad2 <HAL_SPI_TransmitReceive_DMA+0x12a>
      {
        CLEAR_BIT(hspi->Instance->CR2, SPI_CR2_LDMATX);
 8007ab2:	68fb      	ldr	r3, [r7, #12]
 8007ab4:	681b      	ldr	r3, [r3, #0]
 8007ab6:	685a      	ldr	r2, [r3, #4]
 8007ab8:	68fb      	ldr	r3, [r7, #12]
 8007aba:	681b      	ldr	r3, [r3, #0]
 8007abc:	f422 4280 	bic.w	r2, r2, #16384	@ 0x4000
 8007ac0:	605a      	str	r2, [r3, #4]
        hspi->TxXferCount = hspi->TxXferCount >> 1U;
 8007ac2:	68fb      	ldr	r3, [r7, #12]
 8007ac4:	8fdb      	ldrh	r3, [r3, #62]	@ 0x3e
 8007ac6:	b29b      	uxth	r3, r3
 8007ac8:	085b      	lsrs	r3, r3, #1
 8007aca:	b29a      	uxth	r2, r3
 8007acc:	68fb      	ldr	r3, [r7, #12]
 8007ace:	87da      	strh	r2, [r3, #62]	@ 0x3e
 8007ad0:	e010      	b.n	8007af4 <HAL_SPI_TransmitReceive_DMA+0x14c>
      }
      else
      {
        SET_BIT(hspi->Instance->CR2, SPI_CR2_LDMATX);
 8007ad2:	68fb      	ldr	r3, [r7, #12]
 8007ad4:	681b      	ldr	r3, [r3, #0]
 8007ad6:	685a      	ldr	r2, [r3, #4]
 8007ad8:	68fb      	ldr	r3, [r7, #12]
 8007ada:	681b      	ldr	r3, [r3, #0]
 8007adc:	f442 4280 	orr.w	r2, r2, #16384	@ 0x4000
 8007ae0:	605a      	str	r2, [r3, #4]
        hspi->TxXferCount = (hspi->TxXferCount >> 1U) + 1U;
 8007ae2:	68fb      	ldr	r3, [r7, #12]
 8007ae4:	8fdb      	ldrh	r3, [r3, #62]	@ 0x3e
 8007ae6:	b29b      	uxth	r3, r3
 8007ae8:	085b      	lsrs	r3, r3, #1
 8007aea:	b29b      	uxth	r3, r3
 8007aec:	3301      	adds	r3, #1
 8007aee:	b29a      	uxth	r2, r3
 8007af0:	68fb      	ldr	r3, [r7, #12]
 8007af2:	87da      	strh	r2, [r3, #62]	@ 0x3e
      }
    }

    if (hspi->hdmarx->Init.MemDataAlignment == DMA_MDATAALIGN_HALFWORD)
 8007af4:	68fb      	ldr	r3, [r7, #12]
 8007af6:	6d9b      	ldr	r3, [r3, #88]	@ 0x58
 8007af8:	699b      	ldr	r3, [r3, #24]
 8007afa:	f5b3 6f80 	cmp.w	r3, #1024	@ 0x400
 8007afe:	d134      	bne.n	8007b6a <HAL_SPI_TransmitReceive_DMA+0x1c2>
    {
      /* Set RX Fifo threshold according the reception data length: 16bit */
      CLEAR_BIT(hspi->Instance->CR2, SPI_RXFIFO_THRESHOLD);
 8007b00:	68fb      	ldr	r3, [r7, #12]
 8007b02:	681b      	ldr	r3, [r3, #0]
 8007b04:	685a      	ldr	r2, [r3, #4]
 8007b06:	68fb      	ldr	r3, [r7, #12]
 8007b08:	681b      	ldr	r3, [r3, #0]
 8007b0a:	f422 5280 	bic.w	r2, r2, #4096	@ 0x1000
 8007b0e:	605a      	str	r2, [r3, #4]

      if ((hspi->RxXferCount & 0x1U) == 0x0U)
 8007b10:	68fb      	ldr	r3, [r7, #12]
 8007b12:	f8b3 3046 	ldrh.w	r3, [r3, #70]	@ 0x46
 8007b16:	b29b      	uxth	r3, r3
 8007b18:	f003 0301 	and.w	r3, r3, #1
 8007b1c:	2b00      	cmp	r3, #0
 8007b1e:	d111      	bne.n	8007b44 <HAL_SPI_TransmitReceive_DMA+0x19c>
      {
        CLEAR_BIT(hspi->Instance->CR2, SPI_CR2_LDMARX);
 8007b20:	68fb      	ldr	r3, [r7, #12]
 8007b22:	681b      	ldr	r3, [r3, #0]
 8007b24:	685a      	ldr	r2, [r3, #4]
 8007b26:	68fb      	ldr	r3, [r7, #12]
 8007b28:	681b      	ldr	r3, [r3, #0]
 8007b2a:	f422 5200 	bic.w	r2, r2, #8192	@ 0x2000
 8007b2e:	605a      	str	r2, [r3, #4]
        hspi->RxXferCount = hspi->RxXferCount >> 1U;
 8007b30:	68fb      	ldr	r3, [r7, #12]
 8007b32:	f8b3 3046 	ldrh.w	r3, [r3, #70]	@ 0x46
 8007b36:	b29b      	uxth	r3, r3
 8007b38:	085b      	lsrs	r3, r3, #1
 8007b3a:	b29a      	uxth	r2, r3
 8007b3c:	68fb      	ldr	r3, [r7, #12]
 8007b3e:	f8a3 2046 	strh.w	r2, [r3, #70]	@ 0x46
 8007b42:	e012      	b.n	8007b6a <HAL_SPI_TransmitReceive_DMA+0x1c2>
      }
      else
      {
        SET_BIT(hspi->Instance->CR2, SPI_CR2_LDMARX);
 8007b44:	68fb      	ldr	r3, [r7, #12]
 8007b46:	681b      	ldr	r3, [r3, #0]
 8007b48:	685a      	ldr	r2, [r3, #4]
 8007b4a:	68fb      	ldr	r3, [r7, #12]
 8007b4c:	681b      	ldr	r3, [r3, #0]
 8007b4e:	f442 5200 	orr.w	r2, r2, #8192	@ 0x2000
 8007b52:	605a      	str	r2, [r3, #4]
        hspi->RxXferCount = (hspi->RxXferCount >> 1U) + 1U;
 8007b54:	68fb      	ldr	r3, [r7, #12]
 8007b56:	f8b3 3046 	ldrh.w	r3, [r3, #70]	@ 0x46
 8007b5a:	b29b      	uxth	r3, r3
 8007b5c:	085b      	lsrs	r3, r3, #1
 8007b5e:	b29b      	uxth	r3, r3
 8007b60:	3301      	adds	r3, #1
 8007b62:	b29a      	uxth	r2, r3
 8007b64:	68fb      	ldr	r3, [r7, #12]
 8007b66:	f8a3 2046 	strh.w	r2, [r3, #70]	@ 0x46
      }
    }
  }

  /* Check if we are in Rx only or in Rx/Tx Mode and configure the DMA transfer complete callback */
  if (hspi->State == HAL_SPI_STATE_BUSY_RX)
 8007b6a:	68fb      	ldr	r3, [r7, #12]
 8007b6c:	f893 305d 	ldrb.w	r3, [r3, #93]	@ 0x5d
 8007b70:	b2db      	uxtb	r3, r3
 8007b72:	2b04      	cmp	r3, #4
 8007b74:	d108      	bne.n	8007b88 <HAL_SPI_TransmitReceive_DMA+0x1e0>
  {
    /* Set the SPI Rx DMA Half transfer complete callback */
    hspi->hdmarx->XferHalfCpltCallback = SPI_DMAHalfReceiveCplt;
 8007b76:	68fb      	ldr	r3, [r7, #12]
 8007b78:	6d9b      	ldr	r3, [r3, #88]	@ 0x58
 8007b7a:	4a49      	ldr	r2, [pc, #292]	@ (8007ca0 <HAL_SPI_TransmitReceive_DMA+0x2f8>)
 8007b7c:	631a      	str	r2, [r3, #48]	@ 0x30
    hspi->hdmarx->XferCpltCallback     = SPI_DMAReceiveCplt;
 8007b7e:	68fb      	ldr	r3, [r7, #12]
 8007b80:	6d9b      	ldr	r3, [r3, #88]	@ 0x58
 8007b82:	4a48      	ldr	r2, [pc, #288]	@ (8007ca4 <HAL_SPI_TransmitReceive_DMA+0x2fc>)
 8007b84:	62da      	str	r2, [r3, #44]	@ 0x2c
 8007b86:	e007      	b.n	8007b98 <HAL_SPI_TransmitReceive_DMA+0x1f0>
  }
  else
  {
    /* Set the SPI Tx/Rx DMA Half transfer complete callback */
    hspi->hdmarx->XferHalfCpltCallback = SPI_DMAHalfTransmitReceiveCplt;
 8007b88:	68fb      	ldr	r3, [r7, #12]
 8007b8a:	6d9b      	ldr	r3, [r3, #88]	@ 0x58
 8007b8c:	4a46      	ldr	r2, [pc, #280]	@ (8007ca8 <HAL_SPI_TransmitReceive_DMA+0x300>)
 8007b8e:	631a      	str	r2, [r3, #48]	@ 0x30
    hspi->hdmarx->XferCpltCallback     = SPI_DMATransmitReceiveCplt;
 8007b90:	68fb      	ldr	r3, [r7, #12]
 8007b92:	6d9b      	ldr	r3, [r3, #88]	@ 0x58
 8007b94:	4a45      	ldr	r2, [pc, #276]	@ (8007cac <HAL_SPI_TransmitReceive_DMA+0x304>)
 8007b96:	62da      	str	r2, [r3, #44]	@ 0x2c
  }

  /* Set the DMA error callback */
  hspi->hdmarx->XferErrorCallback = SPI_DMAError;
 8007b98:	68fb      	ldr	r3, [r7, #12]
 8007b9a:	6d9b      	ldr	r3, [r3, #88]	@ 0x58
 8007b9c:	4a44      	ldr	r2, [pc, #272]	@ (8007cb0 <HAL_SPI_TransmitReceive_DMA+0x308>)
 8007b9e:	635a      	str	r2, [r3, #52]	@ 0x34

  /* Set the DMA AbortCpltCallback */
  hspi->hdmarx->XferAbortCallback = NULL;
 8007ba0:	68fb      	ldr	r3, [r7, #12]
 8007ba2:	6d9b      	ldr	r3, [r3, #88]	@ 0x58
 8007ba4:	2200      	movs	r2, #0
 8007ba6:	639a      	str	r2, [r3, #56]	@ 0x38

  /* Enable the Rx DMA Stream/Channel  */
  if (HAL_OK != HAL_DMA_Start_IT(hspi->hdmarx, (uint32_t)&hspi->Instance->DR, (uint32_t)hspi->pRxBuffPtr,
 8007ba8:	68fb      	ldr	r3, [r7, #12]
 8007baa:	6d98      	ldr	r0, [r3, #88]	@ 0x58
 8007bac:	68fb      	ldr	r3, [r7, #12]
 8007bae:	681b      	ldr	r3, [r3, #0]
 8007bb0:	330c      	adds	r3, #12
 8007bb2:	4619      	mov	r1, r3
 8007bb4:	68fb      	ldr	r3, [r7, #12]
 8007bb6:	6c1b      	ldr	r3, [r3, #64]	@ 0x40
 8007bb8:	461a      	mov	r2, r3
                                 hspi->RxXferCount))
 8007bba:	68fb      	ldr	r3, [r7, #12]
 8007bbc:	f8b3 3046 	ldrh.w	r3, [r3, #70]	@ 0x46
 8007bc0:	b29b      	uxth	r3, r3
  if (HAL_OK != HAL_DMA_Start_IT(hspi->hdmarx, (uint32_t)&hspi->Instance->DR, (uint32_t)hspi->pRxBuffPtr,
 8007bc2:	f7fd f9fd 	bl	8004fc0 <HAL_DMA_Start_IT>
 8007bc6:	4603      	mov	r3, r0
 8007bc8:	2b00      	cmp	r3, #0
 8007bca:	d00b      	beq.n	8007be4 <HAL_SPI_TransmitReceive_DMA+0x23c>
  {
    /* Update SPI error code */
    SET_BIT(hspi->ErrorCode, HAL_SPI_ERROR_DMA);
 8007bcc:	68fb      	ldr	r3, [r7, #12]
 8007bce:	6e1b      	ldr	r3, [r3, #96]	@ 0x60
 8007bd0:	f043 0210 	orr.w	r2, r3, #16
 8007bd4:	68fb      	ldr	r3, [r7, #12]
 8007bd6:	661a      	str	r2, [r3, #96]	@ 0x60
    /* Process Unlocked */
    __HAL_UNLOCK(hspi);
 8007bd8:	68fb      	ldr	r3, [r7, #12]
 8007bda:	2200      	movs	r2, #0
 8007bdc:	f883 205c 	strb.w	r2, [r3, #92]	@ 0x5c
    return HAL_ERROR;
 8007be0:	2301      	movs	r3, #1
 8007be2:	e058      	b.n	8007c96 <HAL_SPI_TransmitReceive_DMA+0x2ee>
  }

  /* Enable Rx DMA Request */
  SET_BIT(hspi->Instance->CR2, SPI_CR2_RXDMAEN);
 8007be4:	68fb      	ldr	r3, [r7, #12]
 8007be6:	681b      	ldr	r3, [r3, #0]
 8007be8:	685a      	ldr	r2, [r3, #4]
 8007bea:	68fb      	ldr	r3, [r7, #12]
 8007bec:	681b      	ldr	r3, [r3, #0]
 8007bee:	f042 0201 	orr.w	r2, r2, #1
 8007bf2:	605a      	str	r2, [r3, #4]

  /* Set the SPI Tx DMA transfer complete callback as NULL because the communication closing
  is performed in DMA reception complete callback  */
  hspi->hdmatx->XferHalfCpltCallback = NULL;
 8007bf4:	68fb      	ldr	r3, [r7, #12]
 8007bf6:	6d5b      	ldr	r3, [r3, #84]	@ 0x54
 8007bf8:	2200      	movs	r2, #0
 8007bfa:	631a      	str	r2, [r3, #48]	@ 0x30
  hspi->hdmatx->XferCpltCallback     = NULL;
 8007bfc:	68fb      	ldr	r3, [r7, #12]
 8007bfe:	6d5b      	ldr	r3, [r3, #84]	@ 0x54
 8007c00:	2200      	movs	r2, #0
 8007c02:	62da      	str	r2, [r3, #44]	@ 0x2c
  hspi->hdmatx->XferErrorCallback    = NULL;
 8007c04:	68fb      	ldr	r3, [r7, #12]
 8007c06:	6d5b      	ldr	r3, [r3, #84]	@ 0x54
 8007c08:	2200      	movs	r2, #0
 8007c0a:	635a      	str	r2, [r3, #52]	@ 0x34
  hspi->hdmatx->XferAbortCallback    = NULL;
 8007c0c:	68fb      	ldr	r3, [r7, #12]
 8007c0e:	6d5b      	ldr	r3, [r3, #84]	@ 0x54
 8007c10:	2200      	movs	r2, #0
 8007c12:	639a      	str	r2, [r3, #56]	@ 0x38

  /* Enable the Tx DMA Stream/Channel  */
  if (HAL_OK != HAL_DMA_Start_IT(hspi->hdmatx, (uint32_t)hspi->pTxBuffPtr, (uint32_t)&hspi->Instance->DR,
 8007c14:	68fb      	ldr	r3, [r7, #12]
 8007c16:	6d58      	ldr	r0, [r3, #84]	@ 0x54
 8007c18:	68fb      	ldr	r3, [r7, #12]
 8007c1a:	6b9b      	ldr	r3, [r3, #56]	@ 0x38
 8007c1c:	4619      	mov	r1, r3
 8007c1e:	68fb      	ldr	r3, [r7, #12]
 8007c20:	681b      	ldr	r3, [r3, #0]
 8007c22:	330c      	adds	r3, #12
 8007c24:	461a      	mov	r2, r3
                                 hspi->TxXferCount))
 8007c26:	68fb      	ldr	r3, [r7, #12]
 8007c28:	8fdb      	ldrh	r3, [r3, #62]	@ 0x3e
 8007c2a:	b29b      	uxth	r3, r3
  if (HAL_OK != HAL_DMA_Start_IT(hspi->hdmatx, (uint32_t)hspi->pTxBuffPtr, (uint32_t)&hspi->Instance->DR,
 8007c2c:	f7fd f9c8 	bl	8004fc0 <HAL_DMA_Start_IT>
 8007c30:	4603      	mov	r3, r0
 8007c32:	2b00      	cmp	r3, #0
 8007c34:	d00b      	beq.n	8007c4e <HAL_SPI_TransmitReceive_DMA+0x2a6>
  {
    /* Update SPI error code */
    SET_BIT(hspi->ErrorCode, HAL_SPI_ERROR_DMA);
 8007c36:	68fb      	ldr	r3, [r7, #12]
 8007c38:	6e1b      	ldr	r3, [r3, #96]	@ 0x60
 8007c3a:	f043 0210 	orr.w	r2, r3, #16
 8007c3e:	68fb      	ldr	r3, [r7, #12]
 8007c40:	661a      	str	r2, [r3, #96]	@ 0x60
    /* Process Unlocked */
    __HAL_UNLOCK(hspi);
 8007c42:	68fb      	ldr	r3, [r7, #12]
 8007c44:	2200      	movs	r2, #0
 8007c46:	f883 205c 	strb.w	r2, [r3, #92]	@ 0x5c
    return HAL_ERROR;
 8007c4a:	2301      	movs	r3, #1
 8007c4c:	e023      	b.n	8007c96 <HAL_SPI_TransmitReceive_DMA+0x2ee>
  }

  /* Check if the SPI is already enabled */
  if ((hspi->Instance->CR1 & SPI_CR1_SPE) != SPI_CR1_SPE)
 8007c4e:	68fb      	ldr	r3, [r7, #12]
 8007c50:	681b      	ldr	r3, [r3, #0]
 8007c52:	681b      	ldr	r3, [r3, #0]
 8007c54:	f003 0340 	and.w	r3, r3, #64	@ 0x40
 8007c58:	2b40      	cmp	r3, #64	@ 0x40
 8007c5a:	d007      	beq.n	8007c6c <HAL_SPI_TransmitReceive_DMA+0x2c4>
  {
    /* Enable SPI peripheral */
    __HAL_SPI_ENABLE(hspi);
 8007c5c:	68fb      	ldr	r3, [r7, #12]
 8007c5e:	681b      	ldr	r3, [r3, #0]
 8007c60:	681a      	ldr	r2, [r3, #0]
 8007c62:	68fb      	ldr	r3, [r7, #12]
 8007c64:	681b      	ldr	r3, [r3, #0]
 8007c66:	f042 0240 	orr.w	r2, r2, #64	@ 0x40
 8007c6a:	601a      	str	r2, [r3, #0]
  }

  /* Process Unlocked */
  __HAL_UNLOCK(hspi);
 8007c6c:	68fb      	ldr	r3, [r7, #12]
 8007c6e:	2200      	movs	r2, #0
 8007c70:	f883 205c 	strb.w	r2, [r3, #92]	@ 0x5c

  /* Enable the SPI Error Interrupt Bit */
  __HAL_SPI_ENABLE_IT(hspi, (SPI_IT_ERR));
 8007c74:	68fb      	ldr	r3, [r7, #12]
 8007c76:	681b      	ldr	r3, [r3, #0]
 8007c78:	685a      	ldr	r2, [r3, #4]
 8007c7a:	68fb      	ldr	r3, [r7, #12]
 8007c7c:	681b      	ldr	r3, [r3, #0]
 8007c7e:	f042 0220 	orr.w	r2, r2, #32
 8007c82:	605a      	str	r2, [r3, #4]

  /* Enable Tx DMA Request */
  SET_BIT(hspi->Instance->CR2, SPI_CR2_TXDMAEN);
 8007c84:	68fb      	ldr	r3, [r7, #12]
 8007c86:	681b      	ldr	r3, [r3, #0]
 8007c88:	685a      	ldr	r2, [r3, #4]
 8007c8a:	68fb      	ldr	r3, [r7, #12]
 8007c8c:	681b      	ldr	r3, [r3, #0]
 8007c8e:	f042 0202 	orr.w	r2, r2, #2
 8007c92:	605a      	str	r2, [r3, #4]

  return HAL_OK;
 8007c94:	2300      	movs	r3, #0
}
 8007c96:	4618      	mov	r0, r3
 8007c98:	3718      	adds	r7, #24
 8007c9a:	46bd      	mov	sp, r7
 8007c9c:	bd80      	pop	{r7, pc}
 8007c9e:	bf00      	nop
 8007ca0:	08007e3d 	.word	0x08007e3d
 8007ca4:	08007d05 	.word	0x08007d05
 8007ca8:	08007e59 	.word	0x08007e59
 8007cac:	08007dad 	.word	0x08007dad
 8007cb0:	08007e75 	.word	0x08007e75

08007cb4 <HAL_SPI_TxRxCpltCallback>:
  * @param  hspi pointer to a SPI_HandleTypeDef structure that contains
  *               the configuration information for SPI module.
  * @retval None
  */
__weak void HAL_SPI_TxRxCpltCallback(SPI_HandleTypeDef *hspi)
{
 8007cb4:	b480      	push	{r7}
 8007cb6:	b083      	sub	sp, #12
 8007cb8:	af00      	add	r7, sp, #0
 8007cba:	6078      	str	r0, [r7, #4]
  UNUSED(hspi);

  /* NOTE : This function should not be modified, when the callback is needed,
            the HAL_SPI_TxRxCpltCallback should be implemented in the user file
   */
}
 8007cbc:	bf00      	nop
 8007cbe:	370c      	adds	r7, #12
 8007cc0:	46bd      	mov	sp, r7
 8007cc2:	f85d 7b04 	ldr.w	r7, [sp], #4
 8007cc6:	4770      	bx	lr

08007cc8 <HAL_SPI_RxHalfCpltCallback>:
  * @param  hspi pointer to a SPI_HandleTypeDef structure that contains
  *               the configuration information for SPI module.
  * @retval None
  */
__weak void HAL_SPI_RxHalfCpltCallback(SPI_HandleTypeDef *hspi)
{
 8007cc8:	b480      	push	{r7}
 8007cca:	b083      	sub	sp, #12
 8007ccc:	af00      	add	r7, sp, #0
 8007cce:	6078      	str	r0, [r7, #4]
  UNUSED(hspi);

  /* NOTE : This function should not be modified, when the callback is needed,
            the HAL_SPI_RxHalfCpltCallback() should be implemented in the user file
   */
}
 8007cd0:	bf00      	nop
 8007cd2:	370c      	adds	r7, #12
 8007cd4:	46bd      	mov	sp, r7
 8007cd6:	f85d 7b04 	ldr.w	r7, [sp], #4
 8007cda:	4770      	bx	lr

08007cdc <HAL_SPI_TxRxHalfCpltCallback>:
  * @param  hspi pointer to a SPI_HandleTypeDef structure that contains
  *               the configuration information for SPI module.
  * @retval None
  */
__weak void HAL_SPI_TxRxHalfCpltCallback(SPI_HandleTypeDef *hspi)
{
 8007cdc:	b480      	push	{r7}
 8007cde:	b083      	sub	sp, #12
 8007ce0:	af00      	add	r7, sp, #0
 8007ce2:	6078      	str	r0, [r7, #4]
  UNUSED(hspi);

  /* NOTE : This function should not be modified, when the callback is needed,
            the HAL_SPI_TxRxHalfCpltCallback() should be implemented in the user file
   */
}
 8007ce4:	bf00      	nop
 8007ce6:	370c      	adds	r7, #12
 8007ce8:	46bd      	mov	sp, r7
 8007cea:	f85d 7b04 	ldr.w	r7, [sp], #4
 8007cee:	4770      	bx	lr

08007cf0 <HAL_SPI_ErrorCallback>:
  * @param  hspi pointer to a SPI_HandleTypeDef structure that contains
  *               the configuration information for SPI module.
  * @retval None
  */
__weak void HAL_SPI_ErrorCallback(SPI_HandleTypeDef *hspi)
{
 8007cf0:	b480      	push	{r7}
 8007cf2:	b083      	sub	sp, #12
 8007cf4:	af00      	add	r7, sp, #0
 8007cf6:	6078      	str	r0, [r7, #4]
            the HAL_SPI_ErrorCallback should be implemented in the user file
   */
  /* NOTE : The ErrorCode parameter in the hspi handle is updated by the SPI processes
            and user can use HAL_SPI_GetError() API to check the latest error occurred
   */
}
 8007cf8:	bf00      	nop
 8007cfa:	370c      	adds	r7, #12
 8007cfc:	46bd      	mov	sp, r7
 8007cfe:	f85d 7b04 	ldr.w	r7, [sp], #4
 8007d02:	4770      	bx	lr

08007d04 <SPI_DMAReceiveCplt>:
  * @param  hdma pointer to a DMA_HandleTypeDef structure that contains
  *               the configuration information for the specified DMA module.
  * @retval None
  */
static void SPI_DMAReceiveCplt(DMA_HandleTypeDef *hdma)
{
 8007d04:	b580      	push	{r7, lr}
 8007d06:	b084      	sub	sp, #16
 8007d08:	af00      	add	r7, sp, #0
 8007d0a:	6078      	str	r0, [r7, #4]
  SPI_HandleTypeDef *hspi = (SPI_HandleTypeDef *)(((DMA_HandleTypeDef *)hdma)->Parent);
 8007d0c:	687b      	ldr	r3, [r7, #4]
 8007d0e:	6a9b      	ldr	r3, [r3, #40]	@ 0x28
 8007d10:	60fb      	str	r3, [r7, #12]
  __IO uint8_t  *ptmpreg8;
  __IO uint8_t  tmpreg8 = 0;
#endif /* USE_SPI_CRC */

  /* Init tickstart for timeout management*/
  tickstart = HAL_GetTick();
 8007d12:	f7fb fc1d 	bl	8003550 <HAL_GetTick>
 8007d16:	60b8      	str	r0, [r7, #8]

  /* DMA Normal Mode */
  if ((hdma->Instance->CCR & DMA_CCR_CIRC) != DMA_CCR_CIRC)
 8007d18:	687b      	ldr	r3, [r7, #4]
 8007d1a:	681b      	ldr	r3, [r3, #0]
 8007d1c:	681b      	ldr	r3, [r3, #0]
 8007d1e:	f003 0320 	and.w	r3, r3, #32
 8007d22:	2b20      	cmp	r3, #32
 8007d24:	d03c      	beq.n	8007da0 <SPI_DMAReceiveCplt+0x9c>
  {
    /* Disable ERR interrupt */
    __HAL_SPI_DISABLE_IT(hspi, SPI_IT_ERR);
 8007d26:	68fb      	ldr	r3, [r7, #12]
 8007d28:	681b      	ldr	r3, [r3, #0]
 8007d2a:	685a      	ldr	r2, [r3, #4]
 8007d2c:	68fb      	ldr	r3, [r7, #12]
 8007d2e:	681b      	ldr	r3, [r3, #0]
 8007d30:	f022 0220 	bic.w	r2, r2, #32
 8007d34:	605a      	str	r2, [r3, #4]
      }
    }
#endif /* USE_SPI_CRC */

    /* Check if we are in Master RX 2 line mode */
    if ((hspi->Init.Direction == SPI_DIRECTION_2LINES) && (hspi->Init.Mode == SPI_MODE_MASTER))
 8007d36:	68fb      	ldr	r3, [r7, #12]
 8007d38:	689b      	ldr	r3, [r3, #8]
 8007d3a:	2b00      	cmp	r3, #0
 8007d3c:	d10d      	bne.n	8007d5a <SPI_DMAReceiveCplt+0x56>
 8007d3e:	68fb      	ldr	r3, [r7, #12]
 8007d40:	685b      	ldr	r3, [r3, #4]
 8007d42:	f5b3 7f82 	cmp.w	r3, #260	@ 0x104
 8007d46:	d108      	bne.n	8007d5a <SPI_DMAReceiveCplt+0x56>
    {
      /* Disable Rx/Tx DMA Request (done by default to handle the case master rx direction 2 lines) */
      CLEAR_BIT(hspi->Instance->CR2, SPI_CR2_TXDMAEN | SPI_CR2_RXDMAEN);
 8007d48:	68fb      	ldr	r3, [r7, #12]
 8007d4a:	681b      	ldr	r3, [r3, #0]
 8007d4c:	685a      	ldr	r2, [r3, #4]
 8007d4e:	68fb      	ldr	r3, [r7, #12]
 8007d50:	681b      	ldr	r3, [r3, #0]
 8007d52:	f022 0203 	bic.w	r2, r2, #3
 8007d56:	605a      	str	r2, [r3, #4]
 8007d58:	e007      	b.n	8007d6a <SPI_DMAReceiveCplt+0x66>
    }
    else
    {
      /* Normal case */
      CLEAR_BIT(hspi->Instance->CR2, SPI_CR2_RXDMAEN);
 8007d5a:	68fb      	ldr	r3, [r7, #12]
 8007d5c:	681b      	ldr	r3, [r3, #0]
 8007d5e:	685a      	ldr	r2, [r3, #4]
 8007d60:	68fb      	ldr	r3, [r7, #12]
 8007d62:	681b      	ldr	r3, [r3, #0]
 8007d64:	f022 0201 	bic.w	r2, r2, #1
 8007d68:	605a      	str	r2, [r3, #4]
    }

    /* Check the end of the transaction */
    if (SPI_EndRxTransaction(hspi, SPI_DEFAULT_TIMEOUT, tickstart) != HAL_OK)
 8007d6a:	68ba      	ldr	r2, [r7, #8]
 8007d6c:	2164      	movs	r1, #100	@ 0x64
 8007d6e:	68f8      	ldr	r0, [r7, #12]
 8007d70:	f000 f9be 	bl	80080f0 <SPI_EndRxTransaction>
 8007d74:	4603      	mov	r3, r0
 8007d76:	2b00      	cmp	r3, #0
 8007d78:	d002      	beq.n	8007d80 <SPI_DMAReceiveCplt+0x7c>
    {
      hspi->ErrorCode = HAL_SPI_ERROR_FLAG;
 8007d7a:	68fb      	ldr	r3, [r7, #12]
 8007d7c:	2220      	movs	r2, #32
 8007d7e:	661a      	str	r2, [r3, #96]	@ 0x60
    }

    hspi->RxXferCount = 0U;
 8007d80:	68fb      	ldr	r3, [r7, #12]
 8007d82:	2200      	movs	r2, #0
 8007d84:	f8a3 2046 	strh.w	r2, [r3, #70]	@ 0x46
    hspi->State = HAL_SPI_STATE_READY;
 8007d88:	68fb      	ldr	r3, [r7, #12]
 8007d8a:	2201      	movs	r2, #1
 8007d8c:	f883 205d 	strb.w	r2, [r3, #93]	@ 0x5d
      SET_BIT(hspi->ErrorCode, HAL_SPI_ERROR_CRC);
      __HAL_SPI_CLEAR_CRCERRFLAG(hspi);
    }
#endif /* USE_SPI_CRC */

    if (hspi->ErrorCode != HAL_SPI_ERROR_NONE)
 8007d90:	68fb      	ldr	r3, [r7, #12]
 8007d92:	6e1b      	ldr	r3, [r3, #96]	@ 0x60
 8007d94:	2b00      	cmp	r3, #0
 8007d96:	d003      	beq.n	8007da0 <SPI_DMAReceiveCplt+0x9c>
    {
      /* Call user error callback */
#if (USE_HAL_SPI_REGISTER_CALLBACKS == 1U)
      hspi->ErrorCallback(hspi);
#else
      HAL_SPI_ErrorCallback(hspi);
 8007d98:	68f8      	ldr	r0, [r7, #12]
 8007d9a:	f7ff ffa9 	bl	8007cf0 <HAL_SPI_ErrorCallback>
#endif /* USE_HAL_SPI_REGISTER_CALLBACKS */
      return;
 8007d9e:	e002      	b.n	8007da6 <SPI_DMAReceiveCplt+0xa2>
  }
  /* Call user Rx complete callback */
#if (USE_HAL_SPI_REGISTER_CALLBACKS == 1U)
  hspi->RxCpltCallback(hspi);
#else
  HAL_SPI_RxCpltCallback(hspi);
 8007da0:	68f8      	ldr	r0, [r7, #12]
 8007da2:	f7f9 ff35 	bl	8001c10 <HAL_SPI_RxCpltCallback>
#endif /* USE_HAL_SPI_REGISTER_CALLBACKS */
}
 8007da6:	3710      	adds	r7, #16
 8007da8:	46bd      	mov	sp, r7
 8007daa:	bd80      	pop	{r7, pc}

08007dac <SPI_DMATransmitReceiveCplt>:
  * @param  hdma pointer to a DMA_HandleTypeDef structure that contains
  *               the configuration information for the specified DMA module.
  * @retval None
  */
static void SPI_DMATransmitReceiveCplt(DMA_HandleTypeDef *hdma)
{
 8007dac:	b580      	push	{r7, lr}
 8007dae:	b084      	sub	sp, #16
 8007db0:	af00      	add	r7, sp, #0
 8007db2:	6078      	str	r0, [r7, #4]
  SPI_HandleTypeDef *hspi = (SPI_HandleTypeDef *)(((DMA_HandleTypeDef *)hdma)->Parent);
 8007db4:	687b      	ldr	r3, [r7, #4]
 8007db6:	6a9b      	ldr	r3, [r3, #40]	@ 0x28
 8007db8:	60fb      	str	r3, [r7, #12]
  __IO uint8_t  *ptmpreg8;
  __IO uint8_t  tmpreg8 = 0;
#endif /* USE_SPI_CRC */

  /* Init tickstart for timeout management*/
  tickstart = HAL_GetTick();
 8007dba:	f7fb fbc9 	bl	8003550 <HAL_GetTick>
 8007dbe:	60b8      	str	r0, [r7, #8]

  /* DMA Normal Mode */
  if ((hdma->Instance->CCR & DMA_CCR_CIRC) != DMA_CCR_CIRC)
 8007dc0:	687b      	ldr	r3, [r7, #4]
 8007dc2:	681b      	ldr	r3, [r3, #0]
 8007dc4:	681b      	ldr	r3, [r3, #0]
 8007dc6:	f003 0320 	and.w	r3, r3, #32
 8007dca:	2b20      	cmp	r3, #32
 8007dcc:	d030      	beq.n	8007e30 <SPI_DMATransmitReceiveCplt+0x84>
  {
    /* Disable ERR interrupt */
    __HAL_SPI_DISABLE_IT(hspi, SPI_IT_ERR);
 8007dce:	68fb      	ldr	r3, [r7, #12]
 8007dd0:	681b      	ldr	r3, [r3, #0]
 8007dd2:	685a      	ldr	r2, [r3, #4]
 8007dd4:	68fb      	ldr	r3, [r7, #12]
 8007dd6:	681b      	ldr	r3, [r3, #0]
 8007dd8:	f022 0220 	bic.w	r2, r2, #32
 8007ddc:	605a      	str	r2, [r3, #4]
      }
    }
#endif /* USE_SPI_CRC */

    /* Check the end of the transaction */
    if (SPI_EndRxTxTransaction(hspi, SPI_DEFAULT_TIMEOUT, tickstart) != HAL_OK)
 8007dde:	68ba      	ldr	r2, [r7, #8]
 8007de0:	2164      	movs	r1, #100	@ 0x64
 8007de2:	68f8      	ldr	r0, [r7, #12]
 8007de4:	f000 f9dc 	bl	80081a0 <SPI_EndRxTxTransaction>
 8007de8:	4603      	mov	r3, r0
 8007dea:	2b00      	cmp	r3, #0
 8007dec:	d005      	beq.n	8007dfa <SPI_DMATransmitReceiveCplt+0x4e>
    {
      SET_BIT(hspi->ErrorCode, HAL_SPI_ERROR_FLAG);
 8007dee:	68fb      	ldr	r3, [r7, #12]
 8007df0:	6e1b      	ldr	r3, [r3, #96]	@ 0x60
 8007df2:	f043 0220 	orr.w	r2, r3, #32
 8007df6:	68fb      	ldr	r3, [r7, #12]
 8007df8:	661a      	str	r2, [r3, #96]	@ 0x60
    }

    /* Disable Rx/Tx DMA Request */
    CLEAR_BIT(hspi->Instance->CR2, SPI_CR2_TXDMAEN | SPI_CR2_RXDMAEN);
 8007dfa:	68fb      	ldr	r3, [r7, #12]
 8007dfc:	681b      	ldr	r3, [r3, #0]
 8007dfe:	685a      	ldr	r2, [r3, #4]
 8007e00:	68fb      	ldr	r3, [r7, #12]
 8007e02:	681b      	ldr	r3, [r3, #0]
 8007e04:	f022 0203 	bic.w	r2, r2, #3
 8007e08:	605a      	str	r2, [r3, #4]

    hspi->TxXferCount = 0U;
 8007e0a:	68fb      	ldr	r3, [r7, #12]
 8007e0c:	2200      	movs	r2, #0
 8007e0e:	87da      	strh	r2, [r3, #62]	@ 0x3e
    hspi->RxXferCount = 0U;
 8007e10:	68fb      	ldr	r3, [r7, #12]
 8007e12:	2200      	movs	r2, #0
 8007e14:	f8a3 2046 	strh.w	r2, [r3, #70]	@ 0x46
    hspi->State = HAL_SPI_STATE_READY;
 8007e18:	68fb      	ldr	r3, [r7, #12]
 8007e1a:	2201      	movs	r2, #1
 8007e1c:	f883 205d 	strb.w	r2, [r3, #93]	@ 0x5d
      SET_BIT(hspi->ErrorCode, HAL_SPI_ERROR_CRC);
      __HAL_SPI_CLEAR_CRCERRFLAG(hspi);
    }
#endif /* USE_SPI_CRC */

    if (hspi->ErrorCode != HAL_SPI_ERROR_NONE)
 8007e20:	68fb      	ldr	r3, [r7, #12]
 8007e22:	6e1b      	ldr	r3, [r3, #96]	@ 0x60
 8007e24:	2b00      	cmp	r3, #0
 8007e26:	d003      	beq.n	8007e30 <SPI_DMATransmitReceiveCplt+0x84>
    {
      /* Call user error callback */
#if (USE_HAL_SPI_REGISTER_CALLBACKS == 1U)
      hspi->ErrorCallback(hspi);
#else
      HAL_SPI_ErrorCallback(hspi);
 8007e28:	68f8      	ldr	r0, [r7, #12]
 8007e2a:	f7ff ff61 	bl	8007cf0 <HAL_SPI_ErrorCallback>
#endif /* USE_HAL_SPI_REGISTER_CALLBACKS */
      return;
 8007e2e:	e002      	b.n	8007e36 <SPI_DMATransmitReceiveCplt+0x8a>
  }
  /* Call user TxRx complete callback */
#if (USE_HAL_SPI_REGISTER_CALLBACKS == 1U)
  hspi->TxRxCpltCallback(hspi);
#else
  HAL_SPI_TxRxCpltCallback(hspi);
 8007e30:	68f8      	ldr	r0, [r7, #12]
 8007e32:	f7ff ff3f 	bl	8007cb4 <HAL_SPI_TxRxCpltCallback>
#endif /* USE_HAL_SPI_REGISTER_CALLBACKS */
}
 8007e36:	3710      	adds	r7, #16
 8007e38:	46bd      	mov	sp, r7
 8007e3a:	bd80      	pop	{r7, pc}

08007e3c <SPI_DMAHalfReceiveCplt>:
  * @param  hdma pointer to a DMA_HandleTypeDef structure that contains
  *               the configuration information for the specified DMA module.
  * @retval None
  */
static void SPI_DMAHalfReceiveCplt(DMA_HandleTypeDef *hdma)
{
 8007e3c:	b580      	push	{r7, lr}
 8007e3e:	b084      	sub	sp, #16
 8007e40:	af00      	add	r7, sp, #0
 8007e42:	6078      	str	r0, [r7, #4]
  SPI_HandleTypeDef *hspi = (SPI_HandleTypeDef *)(((DMA_HandleTypeDef *)hdma)->Parent);
 8007e44:	687b      	ldr	r3, [r7, #4]
 8007e46:	6a9b      	ldr	r3, [r3, #40]	@ 0x28
 8007e48:	60fb      	str	r3, [r7, #12]

  /* Call user Rx half complete callback */
#if (USE_HAL_SPI_REGISTER_CALLBACKS == 1U)
  hspi->RxHalfCpltCallback(hspi);
#else
  HAL_SPI_RxHalfCpltCallback(hspi);
 8007e4a:	68f8      	ldr	r0, [r7, #12]
 8007e4c:	f7ff ff3c 	bl	8007cc8 <HAL_SPI_RxHalfCpltCallback>
#endif /* USE_HAL_SPI_REGISTER_CALLBACKS */
}
 8007e50:	bf00      	nop
 8007e52:	3710      	adds	r7, #16
 8007e54:	46bd      	mov	sp, r7
 8007e56:	bd80      	pop	{r7, pc}

08007e58 <SPI_DMAHalfTransmitReceiveCplt>:
  * @param  hdma pointer to a DMA_HandleTypeDef structure that contains
  *               the configuration information for the specified DMA module.
  * @retval None
  */
static void SPI_DMAHalfTransmitReceiveCplt(DMA_HandleTypeDef *hdma)
{
 8007e58:	b580      	push	{r7, lr}
 8007e5a:	b084      	sub	sp, #16
 8007e5c:	af00      	add	r7, sp, #0
 8007e5e:	6078      	str	r0, [r7, #4]
  SPI_HandleTypeDef *hspi = (SPI_HandleTypeDef *)(((DMA_HandleTypeDef *)hdma)->Parent);
 8007e60:	687b      	ldr	r3, [r7, #4]
 8007e62:	6a9b      	ldr	r3, [r3, #40]	@ 0x28
 8007e64:	60fb      	str	r3, [r7, #12]

  /* Call user TxRx half complete callback */
#if (USE_HAL_SPI_REGISTER_CALLBACKS == 1U)
  hspi->TxRxHalfCpltCallback(hspi);
#else
  HAL_SPI_TxRxHalfCpltCallback(hspi);
 8007e66:	68f8      	ldr	r0, [r7, #12]
 8007e68:	f7ff ff38 	bl	8007cdc <HAL_SPI_TxRxHalfCpltCallback>
#endif /* USE_HAL_SPI_REGISTER_CALLBACKS */
}
 8007e6c:	bf00      	nop
 8007e6e:	3710      	adds	r7, #16
 8007e70:	46bd      	mov	sp, r7
 8007e72:	bd80      	pop	{r7, pc}

08007e74 <SPI_DMAError>:
  * @param  hdma pointer to a DMA_HandleTypeDef structure that contains
  *               the configuration information for the specified DMA module.
  * @retval None
  */
static void SPI_DMAError(DMA_HandleTypeDef *hdma)
{
 8007e74:	b580      	push	{r7, lr}
 8007e76:	b084      	sub	sp, #16
 8007e78:	af00      	add	r7, sp, #0
 8007e7a:	6078      	str	r0, [r7, #4]
  SPI_HandleTypeDef *hspi = (SPI_HandleTypeDef *)(((DMA_HandleTypeDef *)hdma)->Parent);
 8007e7c:	687b      	ldr	r3, [r7, #4]
 8007e7e:	6a9b      	ldr	r3, [r3, #40]	@ 0x28
 8007e80:	60fb      	str	r3, [r7, #12]

  /* Stop the disable DMA transfer on SPI side */
  CLEAR_BIT(hspi->Instance->CR2, SPI_CR2_TXDMAEN | SPI_CR2_RXDMAEN);
 8007e82:	68fb      	ldr	r3, [r7, #12]
 8007e84:	681b      	ldr	r3, [r3, #0]
 8007e86:	685a      	ldr	r2, [r3, #4]
 8007e88:	68fb      	ldr	r3, [r7, #12]
 8007e8a:	681b      	ldr	r3, [r3, #0]
 8007e8c:	f022 0203 	bic.w	r2, r2, #3
 8007e90:	605a      	str	r2, [r3, #4]

  SET_BIT(hspi->ErrorCode, HAL_SPI_ERROR_DMA);
 8007e92:	68fb      	ldr	r3, [r7, #12]
 8007e94:	6e1b      	ldr	r3, [r3, #96]	@ 0x60
 8007e96:	f043 0210 	orr.w	r2, r3, #16
 8007e9a:	68fb      	ldr	r3, [r7, #12]
 8007e9c:	661a      	str	r2, [r3, #96]	@ 0x60
  hspi->State = HAL_SPI_STATE_READY;
 8007e9e:	68fb      	ldr	r3, [r7, #12]
 8007ea0:	2201      	movs	r2, #1
 8007ea2:	f883 205d 	strb.w	r2, [r3, #93]	@ 0x5d
  /* Call user error callback */
#if (USE_HAL_SPI_REGISTER_CALLBACKS == 1U)
  hspi->ErrorCallback(hspi);
#else
  HAL_SPI_ErrorCallback(hspi);
 8007ea6:	68f8      	ldr	r0, [r7, #12]
 8007ea8:	f7ff ff22 	bl	8007cf0 <HAL_SPI_ErrorCallback>
#endif /* USE_HAL_SPI_REGISTER_CALLBACKS */
}
 8007eac:	bf00      	nop
 8007eae:	3710      	adds	r7, #16
 8007eb0:	46bd      	mov	sp, r7
 8007eb2:	bd80      	pop	{r7, pc}

08007eb4 <SPI_WaitFlagStateUntilTimeout>:
  * @param  Tickstart tick start value
  * @retval HAL status
  */
static HAL_StatusTypeDef SPI_WaitFlagStateUntilTimeout(SPI_HandleTypeDef *hspi, uint32_t Flag, FlagStatus State,
                                                       uint32_t Timeout, uint32_t Tickstart)
{
 8007eb4:	b580      	push	{r7, lr}
 8007eb6:	b088      	sub	sp, #32
 8007eb8:	af00      	add	r7, sp, #0
 8007eba:	60f8      	str	r0, [r7, #12]
 8007ebc:	60b9      	str	r1, [r7, #8]
 8007ebe:	603b      	str	r3, [r7, #0]
 8007ec0:	4613      	mov	r3, r2
 8007ec2:	71fb      	strb	r3, [r7, #7]
  __IO uint32_t count;
  uint32_t tmp_timeout;
  uint32_t tmp_tickstart;

  /* Adjust Timeout value  in case of end of transfer */
  tmp_timeout   = Timeout - (HAL_GetTick() - Tickstart);
 8007ec4:	f7fb fb44 	bl	8003550 <HAL_GetTick>
 8007ec8:	4602      	mov	r2, r0
 8007eca:	6abb      	ldr	r3, [r7, #40]	@ 0x28
 8007ecc:	1a9b      	subs	r3, r3, r2
 8007ece:	683a      	ldr	r2, [r7, #0]
 8007ed0:	4413      	add	r3, r2
 8007ed2:	61fb      	str	r3, [r7, #28]
  tmp_tickstart = HAL_GetTick();
 8007ed4:	f7fb fb3c 	bl	8003550 <HAL_GetTick>
 8007ed8:	61b8      	str	r0, [r7, #24]

  /* Calculate Timeout based on a software loop to avoid blocking issue if Systick is disabled */
  count = tmp_timeout * ((SystemCoreClock * 32U) >> 20U);
 8007eda:	4b39      	ldr	r3, [pc, #228]	@ (8007fc0 <SPI_WaitFlagStateUntilTimeout+0x10c>)
 8007edc:	681b      	ldr	r3, [r3, #0]
 8007ede:	015b      	lsls	r3, r3, #5
 8007ee0:	0d1b      	lsrs	r3, r3, #20
 8007ee2:	69fa      	ldr	r2, [r7, #28]
 8007ee4:	fb02 f303 	mul.w	r3, r2, r3
 8007ee8:	617b      	str	r3, [r7, #20]

  while ((__HAL_SPI_GET_FLAG(hspi, Flag) ? SET : RESET) != State)
 8007eea:	e055      	b.n	8007f98 <SPI_WaitFlagStateUntilTimeout+0xe4>
  {
    if (Timeout != HAL_MAX_DELAY)
 8007eec:	683b      	ldr	r3, [r7, #0]
 8007eee:	f1b3 3fff 	cmp.w	r3, #4294967295
 8007ef2:	d051      	beq.n	8007f98 <SPI_WaitFlagStateUntilTimeout+0xe4>
    {
      if (((HAL_GetTick() - tmp_tickstart) >= tmp_timeout) || (tmp_timeout == 0U))
 8007ef4:	f7fb fb2c 	bl	8003550 <HAL_GetTick>
 8007ef8:	4602      	mov	r2, r0
 8007efa:	69bb      	ldr	r3, [r7, #24]
 8007efc:	1ad3      	subs	r3, r2, r3
 8007efe:	69fa      	ldr	r2, [r7, #28]
 8007f00:	429a      	cmp	r2, r3
 8007f02:	d902      	bls.n	8007f0a <SPI_WaitFlagStateUntilTimeout+0x56>
 8007f04:	69fb      	ldr	r3, [r7, #28]
 8007f06:	2b00      	cmp	r3, #0
 8007f08:	d13d      	bne.n	8007f86 <SPI_WaitFlagStateUntilTimeout+0xd2>
        /* Disable the SPI and reset the CRC: the CRC value should be cleared
           on both master and slave sides in order to resynchronize the master
           and slave for their respective CRC calculation */

        /* Disable TXE, RXNE and ERR interrupts for the interrupt process */
        __HAL_SPI_DISABLE_IT(hspi, (SPI_IT_TXE | SPI_IT_RXNE | SPI_IT_ERR));
 8007f0a:	68fb      	ldr	r3, [r7, #12]
 8007f0c:	681b      	ldr	r3, [r3, #0]
 8007f0e:	685a      	ldr	r2, [r3, #4]
 8007f10:	68fb      	ldr	r3, [r7, #12]
 8007f12:	681b      	ldr	r3, [r3, #0]
 8007f14:	f022 02e0 	bic.w	r2, r2, #224	@ 0xe0
 8007f18:	605a      	str	r2, [r3, #4]

        if ((hspi->Init.Mode == SPI_MODE_MASTER) && ((hspi->Init.Direction == SPI_DIRECTION_1LINE)
 8007f1a:	68fb      	ldr	r3, [r7, #12]
 8007f1c:	685b      	ldr	r3, [r3, #4]
 8007f1e:	f5b3 7f82 	cmp.w	r3, #260	@ 0x104
 8007f22:	d111      	bne.n	8007f48 <SPI_WaitFlagStateUntilTimeout+0x94>
 8007f24:	68fb      	ldr	r3, [r7, #12]
 8007f26:	689b      	ldr	r3, [r3, #8]
 8007f28:	f5b3 4f00 	cmp.w	r3, #32768	@ 0x8000
 8007f2c:	d004      	beq.n	8007f38 <SPI_WaitFlagStateUntilTimeout+0x84>
                                                     || (hspi->Init.Direction == SPI_DIRECTION_2LINES_RXONLY)))
 8007f2e:	68fb      	ldr	r3, [r7, #12]
 8007f30:	689b      	ldr	r3, [r3, #8]
 8007f32:	f5b3 6f80 	cmp.w	r3, #1024	@ 0x400
 8007f36:	d107      	bne.n	8007f48 <SPI_WaitFlagStateUntilTimeout+0x94>
        {
          /* Disable SPI peripheral */
          __HAL_SPI_DISABLE(hspi);
 8007f38:	68fb      	ldr	r3, [r7, #12]
 8007f3a:	681b      	ldr	r3, [r3, #0]
 8007f3c:	681a      	ldr	r2, [r3, #0]
 8007f3e:	68fb      	ldr	r3, [r7, #12]
 8007f40:	681b      	ldr	r3, [r3, #0]
 8007f42:	f022 0240 	bic.w	r2, r2, #64	@ 0x40
 8007f46:	601a      	str	r2, [r3, #0]
        }

        /* Reset CRC Calculation */
        if (hspi->Init.CRCCalculation == SPI_CRCCALCULATION_ENABLE)
 8007f48:	68fb      	ldr	r3, [r7, #12]
 8007f4a:	6a9b      	ldr	r3, [r3, #40]	@ 0x28
 8007f4c:	f5b3 5f00 	cmp.w	r3, #8192	@ 0x2000
 8007f50:	d10f      	bne.n	8007f72 <SPI_WaitFlagStateUntilTimeout+0xbe>
        {
          SPI_RESET_CRC(hspi);
 8007f52:	68fb      	ldr	r3, [r7, #12]
 8007f54:	681b      	ldr	r3, [r3, #0]
 8007f56:	681a      	ldr	r2, [r3, #0]
 8007f58:	68fb      	ldr	r3, [r7, #12]
 8007f5a:	681b      	ldr	r3, [r3, #0]
 8007f5c:	f422 5200 	bic.w	r2, r2, #8192	@ 0x2000
 8007f60:	601a      	str	r2, [r3, #0]
 8007f62:	68fb      	ldr	r3, [r7, #12]
 8007f64:	681b      	ldr	r3, [r3, #0]
 8007f66:	681a      	ldr	r2, [r3, #0]
 8007f68:	68fb      	ldr	r3, [r7, #12]
 8007f6a:	681b      	ldr	r3, [r3, #0]
 8007f6c:	f442 5200 	orr.w	r2, r2, #8192	@ 0x2000
 8007f70:	601a      	str	r2, [r3, #0]
        }

        hspi->State = HAL_SPI_STATE_READY;
 8007f72:	68fb      	ldr	r3, [r7, #12]
 8007f74:	2201      	movs	r2, #1
 8007f76:	f883 205d 	strb.w	r2, [r3, #93]	@ 0x5d

        /* Process Unlocked */
        __HAL_UNLOCK(hspi);
 8007f7a:	68fb      	ldr	r3, [r7, #12]
 8007f7c:	2200      	movs	r2, #0
 8007f7e:	f883 205c 	strb.w	r2, [r3, #92]	@ 0x5c

        return HAL_TIMEOUT;
 8007f82:	2303      	movs	r3, #3
 8007f84:	e018      	b.n	8007fb8 <SPI_WaitFlagStateUntilTimeout+0x104>
      }
      /* If Systick is disabled or not incremented, deactivate timeout to go in disable loop procedure */
      if (count == 0U)
 8007f86:	697b      	ldr	r3, [r7, #20]
 8007f88:	2b00      	cmp	r3, #0
 8007f8a:	d102      	bne.n	8007f92 <SPI_WaitFlagStateUntilTimeout+0xde>
      {
        tmp_timeout = 0U;
 8007f8c:	2300      	movs	r3, #0
 8007f8e:	61fb      	str	r3, [r7, #28]
 8007f90:	e002      	b.n	8007f98 <SPI_WaitFlagStateUntilTimeout+0xe4>
      }
      else
      {
        count--;
 8007f92:	697b      	ldr	r3, [r7, #20]
 8007f94:	3b01      	subs	r3, #1
 8007f96:	617b      	str	r3, [r7, #20]
  while ((__HAL_SPI_GET_FLAG(hspi, Flag) ? SET : RESET) != State)
 8007f98:	68fb      	ldr	r3, [r7, #12]
 8007f9a:	681b      	ldr	r3, [r3, #0]
 8007f9c:	689a      	ldr	r2, [r3, #8]
 8007f9e:	68bb      	ldr	r3, [r7, #8]
 8007fa0:	4013      	ands	r3, r2
 8007fa2:	68ba      	ldr	r2, [r7, #8]
 8007fa4:	429a      	cmp	r2, r3
 8007fa6:	bf0c      	ite	eq
 8007fa8:	2301      	moveq	r3, #1
 8007faa:	2300      	movne	r3, #0
 8007fac:	b2db      	uxtb	r3, r3
 8007fae:	461a      	mov	r2, r3
 8007fb0:	79fb      	ldrb	r3, [r7, #7]
 8007fb2:	429a      	cmp	r2, r3
 8007fb4:	d19a      	bne.n	8007eec <SPI_WaitFlagStateUntilTimeout+0x38>
      }
    }
  }

  return HAL_OK;
 8007fb6:	2300      	movs	r3, #0
}
 8007fb8:	4618      	mov	r0, r3
 8007fba:	3720      	adds	r7, #32
 8007fbc:	46bd      	mov	sp, r7
 8007fbe:	bd80      	pop	{r7, pc}
 8007fc0:	20000004 	.word	0x20000004

08007fc4 <SPI_WaitFifoStateUntilTimeout>:
  * @param  Tickstart tick start value
  * @retval HAL status
  */
static HAL_StatusTypeDef SPI_WaitFifoStateUntilTimeout(SPI_HandleTypeDef *hspi, uint32_t Fifo, uint32_t State,
                                                       uint32_t Timeout, uint32_t Tickstart)
{
 8007fc4:	b580      	push	{r7, lr}
 8007fc6:	b08a      	sub	sp, #40	@ 0x28
 8007fc8:	af00      	add	r7, sp, #0
 8007fca:	60f8      	str	r0, [r7, #12]
 8007fcc:	60b9      	str	r1, [r7, #8]
 8007fce:	607a      	str	r2, [r7, #4]
 8007fd0:	603b      	str	r3, [r7, #0]
  __IO uint32_t count;
  uint32_t tmp_timeout;
  uint32_t tmp_tickstart;
  __IO const uint8_t  *ptmpreg8;
  __IO uint8_t  tmpreg8 = 0;
 8007fd2:	2300      	movs	r3, #0
 8007fd4:	75fb      	strb	r3, [r7, #23]

  /* Adjust Timeout value  in case of end of transfer */
  tmp_timeout = Timeout - (HAL_GetTick() - Tickstart);
 8007fd6:	f7fb fabb 	bl	8003550 <HAL_GetTick>
 8007fda:	4602      	mov	r2, r0
 8007fdc:	6b3b      	ldr	r3, [r7, #48]	@ 0x30
 8007fde:	1a9b      	subs	r3, r3, r2
 8007fe0:	683a      	ldr	r2, [r7, #0]
 8007fe2:	4413      	add	r3, r2
 8007fe4:	627b      	str	r3, [r7, #36]	@ 0x24
  tmp_tickstart = HAL_GetTick();
 8007fe6:	f7fb fab3 	bl	8003550 <HAL_GetTick>
 8007fea:	6238      	str	r0, [r7, #32]

  /* Initialize the 8bit temporary pointer */
  ptmpreg8 = (__IO uint8_t *)&hspi->Instance->DR;
 8007fec:	68fb      	ldr	r3, [r7, #12]
 8007fee:	681b      	ldr	r3, [r3, #0]
 8007ff0:	330c      	adds	r3, #12
 8007ff2:	61fb      	str	r3, [r7, #28]

  /* Calculate Timeout based on a software loop to avoid blocking issue if Systick is disabled */
  count = tmp_timeout * ((SystemCoreClock * 35U) >> 20U);
 8007ff4:	4b3d      	ldr	r3, [pc, #244]	@ (80080ec <SPI_WaitFifoStateUntilTimeout+0x128>)
 8007ff6:	681a      	ldr	r2, [r3, #0]
 8007ff8:	4613      	mov	r3, r2
 8007ffa:	009b      	lsls	r3, r3, #2
 8007ffc:	4413      	add	r3, r2
 8007ffe:	00da      	lsls	r2, r3, #3
 8008000:	1ad3      	subs	r3, r2, r3
 8008002:	0d1b      	lsrs	r3, r3, #20
 8008004:	6a7a      	ldr	r2, [r7, #36]	@ 0x24
 8008006:	fb02 f303 	mul.w	r3, r2, r3
 800800a:	61bb      	str	r3, [r7, #24]

  while ((hspi->Instance->SR & Fifo) != State)
 800800c:	e061      	b.n	80080d2 <SPI_WaitFifoStateUntilTimeout+0x10e>
  {
    if ((Fifo == SPI_SR_FRLVL) && (State == SPI_FRLVL_EMPTY))
 800800e:	68bb      	ldr	r3, [r7, #8]
 8008010:	f5b3 6fc0 	cmp.w	r3, #1536	@ 0x600
 8008014:	d107      	bne.n	8008026 <SPI_WaitFifoStateUntilTimeout+0x62>
 8008016:	687b      	ldr	r3, [r7, #4]
 8008018:	2b00      	cmp	r3, #0
 800801a:	d104      	bne.n	8008026 <SPI_WaitFifoStateUntilTimeout+0x62>
    {
      /* Flush Data Register by a blank read */
      tmpreg8 = *ptmpreg8;
 800801c:	69fb      	ldr	r3, [r7, #28]
 800801e:	781b      	ldrb	r3, [r3, #0]
 8008020:	b2db      	uxtb	r3, r3
 8008022:	75fb      	strb	r3, [r7, #23]
      /* To avoid GCC warning */
      UNUSED(tmpreg8);
 8008024:	7dfb      	ldrb	r3, [r7, #23]
    }

    if (Timeout != HAL_MAX_DELAY)
 8008026:	683b      	ldr	r3, [r7, #0]
 8008028:	f1b3 3fff 	cmp.w	r3, #4294967295
 800802c:	d051      	beq.n	80080d2 <SPI_WaitFifoStateUntilTimeout+0x10e>
    {
      if (((HAL_GetTick() - tmp_tickstart) >= tmp_timeout) || (tmp_timeout == 0U))
 800802e:	f7fb fa8f 	bl	8003550 <HAL_GetTick>
 8008032:	4602      	mov	r2, r0
 8008034:	6a3b      	ldr	r3, [r7, #32]
 8008036:	1ad3      	subs	r3, r2, r3
 8008038:	6a7a      	ldr	r2, [r7, #36]	@ 0x24
 800803a:	429a      	cmp	r2, r3
 800803c:	d902      	bls.n	8008044 <SPI_WaitFifoStateUntilTimeout+0x80>
 800803e:	6a7b      	ldr	r3, [r7, #36]	@ 0x24
 8008040:	2b00      	cmp	r3, #0
 8008042:	d13d      	bne.n	80080c0 <SPI_WaitFifoStateUntilTimeout+0xfc>
        /* Disable the SPI and reset the CRC: the CRC value should be cleared
           on both master and slave sides in order to resynchronize the master
           and slave for their respective CRC calculation */

        /* Disable TXE, RXNE and ERR interrupts for the interrupt process */
        __HAL_SPI_DISABLE_IT(hspi, (SPI_IT_TXE | SPI_IT_RXNE | SPI_IT_ERR));
 8008044:	68fb      	ldr	r3, [r7, #12]
 8008046:	681b      	ldr	r3, [r3, #0]
 8008048:	685a      	ldr	r2, [r3, #4]
 800804a:	68fb      	ldr	r3, [r7, #12]
 800804c:	681b      	ldr	r3, [r3, #0]
 800804e:	f022 02e0 	bic.w	r2, r2, #224	@ 0xe0
 8008052:	605a      	str	r2, [r3, #4]

        if ((hspi->Init.Mode == SPI_MODE_MASTER) && ((hspi->Init.Direction == SPI_DIRECTION_1LINE)
 8008054:	68fb      	ldr	r3, [r7, #12]
 8008056:	685b      	ldr	r3, [r3, #4]
 8008058:	f5b3 7f82 	cmp.w	r3, #260	@ 0x104
 800805c:	d111      	bne.n	8008082 <SPI_WaitFifoStateUntilTimeout+0xbe>
 800805e:	68fb      	ldr	r3, [r7, #12]
 8008060:	689b      	ldr	r3, [r3, #8]
 8008062:	f5b3 4f00 	cmp.w	r3, #32768	@ 0x8000
 8008066:	d004      	beq.n	8008072 <SPI_WaitFifoStateUntilTimeout+0xae>
                                                     || (hspi->Init.Direction == SPI_DIRECTION_2LINES_RXONLY)))
 8008068:	68fb      	ldr	r3, [r7, #12]
 800806a:	689b      	ldr	r3, [r3, #8]
 800806c:	f5b3 6f80 	cmp.w	r3, #1024	@ 0x400
 8008070:	d107      	bne.n	8008082 <SPI_WaitFifoStateUntilTimeout+0xbe>
        {
          /* Disable SPI peripheral */
          __HAL_SPI_DISABLE(hspi);
 8008072:	68fb      	ldr	r3, [r7, #12]
 8008074:	681b      	ldr	r3, [r3, #0]
 8008076:	681a      	ldr	r2, [r3, #0]
 8008078:	68fb      	ldr	r3, [r7, #12]
 800807a:	681b      	ldr	r3, [r3, #0]
 800807c:	f022 0240 	bic.w	r2, r2, #64	@ 0x40
 8008080:	601a      	str	r2, [r3, #0]
        }

        /* Reset CRC Calculation */
        if (hspi->Init.CRCCalculation == SPI_CRCCALCULATION_ENABLE)
 8008082:	68fb      	ldr	r3, [r7, #12]
 8008084:	6a9b      	ldr	r3, [r3, #40]	@ 0x28
 8008086:	f5b3 5f00 	cmp.w	r3, #8192	@ 0x2000
 800808a:	d10f      	bne.n	80080ac <SPI_WaitFifoStateUntilTimeout+0xe8>
        {
          SPI_RESET_CRC(hspi);
 800808c:	68fb      	ldr	r3, [r7, #12]
 800808e:	681b      	ldr	r3, [r3, #0]
 8008090:	681a      	ldr	r2, [r3, #0]
 8008092:	68fb      	ldr	r3, [r7, #12]
 8008094:	681b      	ldr	r3, [r3, #0]
 8008096:	f422 5200 	bic.w	r2, r2, #8192	@ 0x2000
 800809a:	601a      	str	r2, [r3, #0]
 800809c:	68fb      	ldr	r3, [r7, #12]
 800809e:	681b      	ldr	r3, [r3, #0]
 80080a0:	681a      	ldr	r2, [r3, #0]
 80080a2:	68fb      	ldr	r3, [r7, #12]
 80080a4:	681b      	ldr	r3, [r3, #0]
 80080a6:	f442 5200 	orr.w	r2, r2, #8192	@ 0x2000
 80080aa:	601a      	str	r2, [r3, #0]
        }

        hspi->State = HAL_SPI_STATE_READY;
 80080ac:	68fb      	ldr	r3, [r7, #12]
 80080ae:	2201      	movs	r2, #1
 80080b0:	f883 205d 	strb.w	r2, [r3, #93]	@ 0x5d

        /* Process Unlocked */
        __HAL_UNLOCK(hspi);
 80080b4:	68fb      	ldr	r3, [r7, #12]
 80080b6:	2200      	movs	r2, #0
 80080b8:	f883 205c 	strb.w	r2, [r3, #92]	@ 0x5c

        return HAL_TIMEOUT;
 80080bc:	2303      	movs	r3, #3
 80080be:	e011      	b.n	80080e4 <SPI_WaitFifoStateUntilTimeout+0x120>
      }
      /* If Systick is disabled or not incremented, deactivate timeout to go in disable loop procedure */
      if (count == 0U)
 80080c0:	69bb      	ldr	r3, [r7, #24]
 80080c2:	2b00      	cmp	r3, #0
 80080c4:	d102      	bne.n	80080cc <SPI_WaitFifoStateUntilTimeout+0x108>
      {
        tmp_timeout = 0U;
 80080c6:	2300      	movs	r3, #0
 80080c8:	627b      	str	r3, [r7, #36]	@ 0x24
 80080ca:	e002      	b.n	80080d2 <SPI_WaitFifoStateUntilTimeout+0x10e>
      }
      else
      {
        count--;
 80080cc:	69bb      	ldr	r3, [r7, #24]
 80080ce:	3b01      	subs	r3, #1
 80080d0:	61bb      	str	r3, [r7, #24]
  while ((hspi->Instance->SR & Fifo) != State)
 80080d2:	68fb      	ldr	r3, [r7, #12]
 80080d4:	681b      	ldr	r3, [r3, #0]
 80080d6:	689a      	ldr	r2, [r3, #8]
 80080d8:	68bb      	ldr	r3, [r7, #8]
 80080da:	4013      	ands	r3, r2
 80080dc:	687a      	ldr	r2, [r7, #4]
 80080de:	429a      	cmp	r2, r3
 80080e0:	d195      	bne.n	800800e <SPI_WaitFifoStateUntilTimeout+0x4a>
      }
    }
  }

  return HAL_OK;
 80080e2:	2300      	movs	r3, #0
}
 80080e4:	4618      	mov	r0, r3
 80080e6:	3728      	adds	r7, #40	@ 0x28
 80080e8:	46bd      	mov	sp, r7
 80080ea:	bd80      	pop	{r7, pc}
 80080ec:	20000004 	.word	0x20000004

080080f0 <SPI_EndRxTransaction>:
  * @param  Timeout Timeout duration
  * @param  Tickstart tick start value
  * @retval HAL status
  */
static HAL_StatusTypeDef SPI_EndRxTransaction(SPI_HandleTypeDef *hspi,  uint32_t Timeout, uint32_t Tickstart)
{
 80080f0:	b580      	push	{r7, lr}
 80080f2:	b086      	sub	sp, #24
 80080f4:	af02      	add	r7, sp, #8
 80080f6:	60f8      	str	r0, [r7, #12]
 80080f8:	60b9      	str	r1, [r7, #8]
 80080fa:	607a      	str	r2, [r7, #4]
  if ((hspi->Init.Mode == SPI_MODE_MASTER) && ((hspi->Init.Direction == SPI_DIRECTION_1LINE)
 80080fc:	68fb      	ldr	r3, [r7, #12]
 80080fe:	685b      	ldr	r3, [r3, #4]
 8008100:	f5b3 7f82 	cmp.w	r3, #260	@ 0x104
 8008104:	d111      	bne.n	800812a <SPI_EndRxTransaction+0x3a>
 8008106:	68fb      	ldr	r3, [r7, #12]
 8008108:	689b      	ldr	r3, [r3, #8]
 800810a:	f5b3 4f00 	cmp.w	r3, #32768	@ 0x8000
 800810e:	d004      	beq.n	800811a <SPI_EndRxTransaction+0x2a>
                                               || (hspi->Init.Direction == SPI_DIRECTION_2LINES_RXONLY)))
 8008110:	68fb      	ldr	r3, [r7, #12]
 8008112:	689b      	ldr	r3, [r3, #8]
 8008114:	f5b3 6f80 	cmp.w	r3, #1024	@ 0x400
 8008118:	d107      	bne.n	800812a <SPI_EndRxTransaction+0x3a>
  {
    /* Disable SPI peripheral */
    __HAL_SPI_DISABLE(hspi);
 800811a:	68fb      	ldr	r3, [r7, #12]
 800811c:	681b      	ldr	r3, [r3, #0]
 800811e:	681a      	ldr	r2, [r3, #0]
 8008120:	68fb      	ldr	r3, [r7, #12]
 8008122:	681b      	ldr	r3, [r3, #0]
 8008124:	f022 0240 	bic.w	r2, r2, #64	@ 0x40
 8008128:	601a      	str	r2, [r3, #0]
  }

  /* Control the BSY flag */
  if (SPI_WaitFlagStateUntilTimeout(hspi, SPI_FLAG_BSY, RESET, Timeout, Tickstart) != HAL_OK)
 800812a:	687b      	ldr	r3, [r7, #4]
 800812c:	9300      	str	r3, [sp, #0]
 800812e:	68bb      	ldr	r3, [r7, #8]
 8008130:	2200      	movs	r2, #0
 8008132:	2180      	movs	r1, #128	@ 0x80
 8008134:	68f8      	ldr	r0, [r7, #12]
 8008136:	f7ff febd 	bl	8007eb4 <SPI_WaitFlagStateUntilTimeout>
 800813a:	4603      	mov	r3, r0
 800813c:	2b00      	cmp	r3, #0
 800813e:	d007      	beq.n	8008150 <SPI_EndRxTransaction+0x60>
  {
    SET_BIT(hspi->ErrorCode, HAL_SPI_ERROR_FLAG);
 8008140:	68fb      	ldr	r3, [r7, #12]
 8008142:	6e1b      	ldr	r3, [r3, #96]	@ 0x60
 8008144:	f043 0220 	orr.w	r2, r3, #32
 8008148:	68fb      	ldr	r3, [r7, #12]
 800814a:	661a      	str	r2, [r3, #96]	@ 0x60
    return HAL_TIMEOUT;
 800814c:	2303      	movs	r3, #3
 800814e:	e023      	b.n	8008198 <SPI_EndRxTransaction+0xa8>
  }

  if ((hspi->Init.Mode == SPI_MODE_MASTER) && ((hspi->Init.Direction == SPI_DIRECTION_1LINE)
 8008150:	68fb      	ldr	r3, [r7, #12]
 8008152:	685b      	ldr	r3, [r3, #4]
 8008154:	f5b3 7f82 	cmp.w	r3, #260	@ 0x104
 8008158:	d11d      	bne.n	8008196 <SPI_EndRxTransaction+0xa6>
 800815a:	68fb      	ldr	r3, [r7, #12]
 800815c:	689b      	ldr	r3, [r3, #8]
 800815e:	f5b3 4f00 	cmp.w	r3, #32768	@ 0x8000
 8008162:	d004      	beq.n	800816e <SPI_EndRxTransaction+0x7e>
                                               || (hspi->Init.Direction == SPI_DIRECTION_2LINES_RXONLY)))
 8008164:	68fb      	ldr	r3, [r7, #12]
 8008166:	689b      	ldr	r3, [r3, #8]
 8008168:	f5b3 6f80 	cmp.w	r3, #1024	@ 0x400
 800816c:	d113      	bne.n	8008196 <SPI_EndRxTransaction+0xa6>
  {
    /* Empty the FRLVL fifo */
    if (SPI_WaitFifoStateUntilTimeout(hspi, SPI_FLAG_FRLVL, SPI_FRLVL_EMPTY, Timeout, Tickstart) != HAL_OK)
 800816e:	687b      	ldr	r3, [r7, #4]
 8008170:	9300      	str	r3, [sp, #0]
 8008172:	68bb      	ldr	r3, [r7, #8]
 8008174:	2200      	movs	r2, #0
 8008176:	f44f 61c0 	mov.w	r1, #1536	@ 0x600
 800817a:	68f8      	ldr	r0, [r7, #12]
 800817c:	f7ff ff22 	bl	8007fc4 <SPI_WaitFifoStateUntilTimeout>
 8008180:	4603      	mov	r3, r0
 8008182:	2b00      	cmp	r3, #0
 8008184:	d007      	beq.n	8008196 <SPI_EndRxTransaction+0xa6>
    {
      SET_BIT(hspi->ErrorCode, HAL_SPI_ERROR_FLAG);
 8008186:	68fb      	ldr	r3, [r7, #12]
 8008188:	6e1b      	ldr	r3, [r3, #96]	@ 0x60
 800818a:	f043 0220 	orr.w	r2, r3, #32
 800818e:	68fb      	ldr	r3, [r7, #12]
 8008190:	661a      	str	r2, [r3, #96]	@ 0x60
      return HAL_TIMEOUT;
 8008192:	2303      	movs	r3, #3
 8008194:	e000      	b.n	8008198 <SPI_EndRxTransaction+0xa8>
    }
  }
  return HAL_OK;
 8008196:	2300      	movs	r3, #0
}
 8008198:	4618      	mov	r0, r3
 800819a:	3710      	adds	r7, #16
 800819c:	46bd      	mov	sp, r7
 800819e:	bd80      	pop	{r7, pc}

080081a0 <SPI_EndRxTxTransaction>:
  * @param  Timeout Timeout duration
  * @param  Tickstart tick start value
  * @retval HAL status
  */
static HAL_StatusTypeDef SPI_EndRxTxTransaction(SPI_HandleTypeDef *hspi, uint32_t Timeout, uint32_t Tickstart)
{
 80081a0:	b580      	push	{r7, lr}
 80081a2:	b086      	sub	sp, #24
 80081a4:	af02      	add	r7, sp, #8
 80081a6:	60f8      	str	r0, [r7, #12]
 80081a8:	60b9      	str	r1, [r7, #8]
 80081aa:	607a      	str	r2, [r7, #4]
  /* Control if the TX fifo is empty */
  if (SPI_WaitFifoStateUntilTimeout(hspi, SPI_FLAG_FTLVL, SPI_FTLVL_EMPTY, Timeout, Tickstart) != HAL_OK)
 80081ac:	687b      	ldr	r3, [r7, #4]
 80081ae:	9300      	str	r3, [sp, #0]
 80081b0:	68bb      	ldr	r3, [r7, #8]
 80081b2:	2200      	movs	r2, #0
 80081b4:	f44f 51c0 	mov.w	r1, #6144	@ 0x1800
 80081b8:	68f8      	ldr	r0, [r7, #12]
 80081ba:	f7ff ff03 	bl	8007fc4 <SPI_WaitFifoStateUntilTimeout>
 80081be:	4603      	mov	r3, r0
 80081c0:	2b00      	cmp	r3, #0
 80081c2:	d007      	beq.n	80081d4 <SPI_EndRxTxTransaction+0x34>
  {
    SET_BIT(hspi->ErrorCode, HAL_SPI_ERROR_FLAG);
 80081c4:	68fb      	ldr	r3, [r7, #12]
 80081c6:	6e1b      	ldr	r3, [r3, #96]	@ 0x60
 80081c8:	f043 0220 	orr.w	r2, r3, #32
 80081cc:	68fb      	ldr	r3, [r7, #12]
 80081ce:	661a      	str	r2, [r3, #96]	@ 0x60
    return HAL_TIMEOUT;
 80081d0:	2303      	movs	r3, #3
 80081d2:	e027      	b.n	8008224 <SPI_EndRxTxTransaction+0x84>
  }

  /* Control the BSY flag */
  if (SPI_WaitFlagStateUntilTimeout(hspi, SPI_FLAG_BSY, RESET, Timeout, Tickstart) != HAL_OK)
 80081d4:	687b      	ldr	r3, [r7, #4]
 80081d6:	9300      	str	r3, [sp, #0]
 80081d8:	68bb      	ldr	r3, [r7, #8]
 80081da:	2200      	movs	r2, #0
 80081dc:	2180      	movs	r1, #128	@ 0x80
 80081de:	68f8      	ldr	r0, [r7, #12]
 80081e0:	f7ff fe68 	bl	8007eb4 <SPI_WaitFlagStateUntilTimeout>
 80081e4:	4603      	mov	r3, r0
 80081e6:	2b00      	cmp	r3, #0
 80081e8:	d007      	beq.n	80081fa <SPI_EndRxTxTransaction+0x5a>
  {
    SET_BIT(hspi->ErrorCode, HAL_SPI_ERROR_FLAG);
 80081ea:	68fb      	ldr	r3, [r7, #12]
 80081ec:	6e1b      	ldr	r3, [r3, #96]	@ 0x60
 80081ee:	f043 0220 	orr.w	r2, r3, #32
 80081f2:	68fb      	ldr	r3, [r7, #12]
 80081f4:	661a      	str	r2, [r3, #96]	@ 0x60
    return HAL_TIMEOUT;
 80081f6:	2303      	movs	r3, #3
 80081f8:	e014      	b.n	8008224 <SPI_EndRxTxTransaction+0x84>
  }

  /* Control if the RX fifo is empty */
  if (SPI_WaitFifoStateUntilTimeout(hspi, SPI_FLAG_FRLVL, SPI_FRLVL_EMPTY, Timeout, Tickstart) != HAL_OK)
 80081fa:	687b      	ldr	r3, [r7, #4]
 80081fc:	9300      	str	r3, [sp, #0]
 80081fe:	68bb      	ldr	r3, [r7, #8]
 8008200:	2200      	movs	r2, #0
 8008202:	f44f 61c0 	mov.w	r1, #1536	@ 0x600
 8008206:	68f8      	ldr	r0, [r7, #12]
 8008208:	f7ff fedc 	bl	8007fc4 <SPI_WaitFifoStateUntilTimeout>
 800820c:	4603      	mov	r3, r0
 800820e:	2b00      	cmp	r3, #0
 8008210:	d007      	beq.n	8008222 <SPI_EndRxTxTransaction+0x82>
  {
    SET_BIT(hspi->ErrorCode, HAL_SPI_ERROR_FLAG);
 8008212:	68fb      	ldr	r3, [r7, #12]
 8008214:	6e1b      	ldr	r3, [r3, #96]	@ 0x60
 8008216:	f043 0220 	orr.w	r2, r3, #32
 800821a:	68fb      	ldr	r3, [r7, #12]
 800821c:	661a      	str	r2, [r3, #96]	@ 0x60
    return HAL_TIMEOUT;
 800821e:	2303      	movs	r3, #3
 8008220:	e000      	b.n	8008224 <SPI_EndRxTxTransaction+0x84>
  }

  return HAL_OK;
 8008222:	2300      	movs	r3, #0
}
 8008224:	4618      	mov	r0, r3
 8008226:	3710      	adds	r7, #16
 8008228:	46bd      	mov	sp, r7
 800822a:	bd80      	pop	{r7, pc}

0800822c <HAL_TIM_Base_Init>:
  *         Ex: call @ref HAL_TIM_Base_DeInit() before HAL_TIM_Base_Init()
  * @param  htim TIM Base handle
  * @retval HAL status
  */
HAL_StatusTypeDef HAL_TIM_Base_Init(TIM_HandleTypeDef *htim)
{
 800822c:	b580      	push	{r7, lr}
 800822e:	b082      	sub	sp, #8
 8008230:	af00      	add	r7, sp, #0
 8008232:	6078      	str	r0, [r7, #4]
  /* Check the TIM handle allocation */
  if (htim == NULL)
 8008234:	687b      	ldr	r3, [r7, #4]
 8008236:	2b00      	cmp	r3, #0
 8008238:	d101      	bne.n	800823e <HAL_TIM_Base_Init+0x12>
  {
    return HAL_ERROR;
 800823a:	2301      	movs	r3, #1
 800823c:	e049      	b.n	80082d2 <HAL_TIM_Base_Init+0xa6>
  assert_param(IS_TIM_COUNTER_MODE(htim->Init.CounterMode));
  assert_param(IS_TIM_CLOCKDIVISION_DIV(htim->Init.ClockDivision));
  assert_param(IS_TIM_PERIOD(htim, htim->Init.Period));
  assert_param(IS_TIM_AUTORELOAD_PRELOAD(htim->Init.AutoReloadPreload));

  if (htim->State == HAL_TIM_STATE_RESET)
 800823e:	687b      	ldr	r3, [r7, #4]
 8008240:	f893 303d 	ldrb.w	r3, [r3, #61]	@ 0x3d
 8008244:	b2db      	uxtb	r3, r3
 8008246:	2b00      	cmp	r3, #0
 8008248:	d106      	bne.n	8008258 <HAL_TIM_Base_Init+0x2c>
  {
    /* Allocate lock resource and initialize it */
    htim->Lock = HAL_UNLOCKED;
 800824a:	687b      	ldr	r3, [r7, #4]
 800824c:	2200      	movs	r2, #0
 800824e:	f883 203c 	strb.w	r2, [r3, #60]	@ 0x3c
    }
    /* Init the low level hardware : GPIO, CLOCK, NVIC */
    htim->Base_MspInitCallback(htim);
#else
    /* Init the low level hardware : GPIO, CLOCK, NVIC */
    HAL_TIM_Base_MspInit(htim);
 8008252:	6878      	ldr	r0, [r7, #4]
 8008254:	f7fa fff2 	bl	800323c <HAL_TIM_Base_MspInit>
#endif /* USE_HAL_TIM_REGISTER_CALLBACKS */
  }

  /* Set the TIM state */
  htim->State = HAL_TIM_STATE_BUSY;
 8008258:	687b      	ldr	r3, [r7, #4]
 800825a:	2202      	movs	r2, #2
 800825c:	f883 203d 	strb.w	r2, [r3, #61]	@ 0x3d

  /* Set the Time Base configuration */
  TIM_Base_SetConfig(htim->Instance, &htim->Init);
 8008260:	687b      	ldr	r3, [r7, #4]
 8008262:	681a      	ldr	r2, [r3, #0]
 8008264:	687b      	ldr	r3, [r7, #4]
 8008266:	3304      	adds	r3, #4
 8008268:	4619      	mov	r1, r3
 800826a:	4610      	mov	r0, r2
 800826c:	f000 fa18 	bl	80086a0 <TIM_Base_SetConfig>

  /* Initialize the DMA burst operation state */
  htim->DMABurstState = HAL_DMA_BURST_STATE_READY;
 8008270:	687b      	ldr	r3, [r7, #4]
 8008272:	2201      	movs	r2, #1
 8008274:	f883 2048 	strb.w	r2, [r3, #72]	@ 0x48

  /* Initialize the TIM channels state */
  TIM_CHANNEL_STATE_SET_ALL(htim, HAL_TIM_CHANNEL_STATE_READY);
 8008278:	687b      	ldr	r3, [r7, #4]
 800827a:	2201      	movs	r2, #1
 800827c:	f883 203e 	strb.w	r2, [r3, #62]	@ 0x3e
 8008280:	687b      	ldr	r3, [r7, #4]
 8008282:	2201      	movs	r2, #1
 8008284:	f883 203f 	strb.w	r2, [r3, #63]	@ 0x3f
 8008288:	687b      	ldr	r3, [r7, #4]
 800828a:	2201      	movs	r2, #1
 800828c:	f883 2040 	strb.w	r2, [r3, #64]	@ 0x40
 8008290:	687b      	ldr	r3, [r7, #4]
 8008292:	2201      	movs	r2, #1
 8008294:	f883 2041 	strb.w	r2, [r3, #65]	@ 0x41
 8008298:	687b      	ldr	r3, [r7, #4]
 800829a:	2201      	movs	r2, #1
 800829c:	f883 2042 	strb.w	r2, [r3, #66]	@ 0x42
 80082a0:	687b      	ldr	r3, [r7, #4]
 80082a2:	2201      	movs	r2, #1
 80082a4:	f883 2043 	strb.w	r2, [r3, #67]	@ 0x43
  TIM_CHANNEL_N_STATE_SET_ALL(htim, HAL_TIM_CHANNEL_STATE_READY);
 80082a8:	687b      	ldr	r3, [r7, #4]
 80082aa:	2201      	movs	r2, #1
 80082ac:	f883 2044 	strb.w	r2, [r3, #68]	@ 0x44
 80082b0:	687b      	ldr	r3, [r7, #4]
 80082b2:	2201      	movs	r2, #1
 80082b4:	f883 2045 	strb.w	r2, [r3, #69]	@ 0x45
 80082b8:	687b      	ldr	r3, [r7, #4]
 80082ba:	2201      	movs	r2, #1
 80082bc:	f883 2046 	strb.w	r2, [r3, #70]	@ 0x46
 80082c0:	687b      	ldr	r3, [r7, #4]
 80082c2:	2201      	movs	r2, #1
 80082c4:	f883 2047 	strb.w	r2, [r3, #71]	@ 0x47

  /* Initialize the TIM state*/
  htim->State = HAL_TIM_STATE_READY;
 80082c8:	687b      	ldr	r3, [r7, #4]
 80082ca:	2201      	movs	r2, #1
 80082cc:	f883 203d 	strb.w	r2, [r3, #61]	@ 0x3d

  return HAL_OK;
 80082d0:	2300      	movs	r3, #0
}
 80082d2:	4618      	mov	r0, r3
 80082d4:	3708      	adds	r7, #8
 80082d6:	46bd      	mov	sp, r7
 80082d8:	bd80      	pop	{r7, pc}
	...

080082dc <HAL_TIM_Base_Start_IT>:
  * @brief  Starts the TIM Base generation in interrupt mode.
  * @param  htim TIM Base handle
  * @retval HAL status
  */
HAL_StatusTypeDef HAL_TIM_Base_Start_IT(TIM_HandleTypeDef *htim)
{
 80082dc:	b480      	push	{r7}
 80082de:	b085      	sub	sp, #20
 80082e0:	af00      	add	r7, sp, #0
 80082e2:	6078      	str	r0, [r7, #4]

  /* Check the parameters */
  assert_param(IS_TIM_INSTANCE(htim->Instance));

  /* Check the TIM state */
  if (htim->State != HAL_TIM_STATE_READY)
 80082e4:	687b      	ldr	r3, [r7, #4]
 80082e6:	f893 303d 	ldrb.w	r3, [r3, #61]	@ 0x3d
 80082ea:	b2db      	uxtb	r3, r3
 80082ec:	2b01      	cmp	r3, #1
 80082ee:	d001      	beq.n	80082f4 <HAL_TIM_Base_Start_IT+0x18>
  {
    return HAL_ERROR;
 80082f0:	2301      	movs	r3, #1
 80082f2:	e04a      	b.n	800838a <HAL_TIM_Base_Start_IT+0xae>
  }

  /* Set the TIM state */
  htim->State = HAL_TIM_STATE_BUSY;
 80082f4:	687b      	ldr	r3, [r7, #4]
 80082f6:	2202      	movs	r2, #2
 80082f8:	f883 203d 	strb.w	r2, [r3, #61]	@ 0x3d

  /* Enable the TIM Update interrupt */
  __HAL_TIM_ENABLE_IT(htim, TIM_IT_UPDATE);
 80082fc:	687b      	ldr	r3, [r7, #4]
 80082fe:	681b      	ldr	r3, [r3, #0]
 8008300:	68da      	ldr	r2, [r3, #12]
 8008302:	687b      	ldr	r3, [r7, #4]
 8008304:	681b      	ldr	r3, [r3, #0]
 8008306:	f042 0201 	orr.w	r2, r2, #1
 800830a:	60da      	str	r2, [r3, #12]

  /* Enable the Peripheral, except in trigger mode where enable is automatically done with trigger */
  if (IS_TIM_SLAVE_INSTANCE(htim->Instance))
 800830c:	687b      	ldr	r3, [r7, #4]
 800830e:	681b      	ldr	r3, [r3, #0]
 8008310:	4a21      	ldr	r2, [pc, #132]	@ (8008398 <HAL_TIM_Base_Start_IT+0xbc>)
 8008312:	4293      	cmp	r3, r2
 8008314:	d018      	beq.n	8008348 <HAL_TIM_Base_Start_IT+0x6c>
 8008316:	687b      	ldr	r3, [r7, #4]
 8008318:	681b      	ldr	r3, [r3, #0]
 800831a:	f1b3 4f80 	cmp.w	r3, #1073741824	@ 0x40000000
 800831e:	d013      	beq.n	8008348 <HAL_TIM_Base_Start_IT+0x6c>
 8008320:	687b      	ldr	r3, [r7, #4]
 8008322:	681b      	ldr	r3, [r3, #0]
 8008324:	4a1d      	ldr	r2, [pc, #116]	@ (800839c <HAL_TIM_Base_Start_IT+0xc0>)
 8008326:	4293      	cmp	r3, r2
 8008328:	d00e      	beq.n	8008348 <HAL_TIM_Base_Start_IT+0x6c>
 800832a:	687b      	ldr	r3, [r7, #4]
 800832c:	681b      	ldr	r3, [r3, #0]
 800832e:	4a1c      	ldr	r2, [pc, #112]	@ (80083a0 <HAL_TIM_Base_Start_IT+0xc4>)
 8008330:	4293      	cmp	r3, r2
 8008332:	d009      	beq.n	8008348 <HAL_TIM_Base_Start_IT+0x6c>
 8008334:	687b      	ldr	r3, [r7, #4]
 8008336:	681b      	ldr	r3, [r3, #0]
 8008338:	4a1a      	ldr	r2, [pc, #104]	@ (80083a4 <HAL_TIM_Base_Start_IT+0xc8>)
 800833a:	4293      	cmp	r3, r2
 800833c:	d004      	beq.n	8008348 <HAL_TIM_Base_Start_IT+0x6c>
 800833e:	687b      	ldr	r3, [r7, #4]
 8008340:	681b      	ldr	r3, [r3, #0]
 8008342:	4a19      	ldr	r2, [pc, #100]	@ (80083a8 <HAL_TIM_Base_Start_IT+0xcc>)
 8008344:	4293      	cmp	r3, r2
 8008346:	d115      	bne.n	8008374 <HAL_TIM_Base_Start_IT+0x98>
  {
    tmpsmcr = htim->Instance->SMCR & TIM_SMCR_SMS;
 8008348:	687b      	ldr	r3, [r7, #4]
 800834a:	681b      	ldr	r3, [r3, #0]
 800834c:	689a      	ldr	r2, [r3, #8]
 800834e:	4b17      	ldr	r3, [pc, #92]	@ (80083ac <HAL_TIM_Base_Start_IT+0xd0>)
 8008350:	4013      	ands	r3, r2
 8008352:	60fb      	str	r3, [r7, #12]
    if (!IS_TIM_SLAVEMODE_TRIGGER_ENABLED(tmpsmcr))
 8008354:	68fb      	ldr	r3, [r7, #12]
 8008356:	2b06      	cmp	r3, #6
 8008358:	d015      	beq.n	8008386 <HAL_TIM_Base_Start_IT+0xaa>
 800835a:	68fb      	ldr	r3, [r7, #12]
 800835c:	f5b3 3f80 	cmp.w	r3, #65536	@ 0x10000
 8008360:	d011      	beq.n	8008386 <HAL_TIM_Base_Start_IT+0xaa>
    {
      __HAL_TIM_ENABLE(htim);
 8008362:	687b      	ldr	r3, [r7, #4]
 8008364:	681b      	ldr	r3, [r3, #0]
 8008366:	681a      	ldr	r2, [r3, #0]
 8008368:	687b      	ldr	r3, [r7, #4]
 800836a:	681b      	ldr	r3, [r3, #0]
 800836c:	f042 0201 	orr.w	r2, r2, #1
 8008370:	601a      	str	r2, [r3, #0]
    if (!IS_TIM_SLAVEMODE_TRIGGER_ENABLED(tmpsmcr))
 8008372:	e008      	b.n	8008386 <HAL_TIM_Base_Start_IT+0xaa>
    }
  }
  else
  {
    __HAL_TIM_ENABLE(htim);
 8008374:	687b      	ldr	r3, [r7, #4]
 8008376:	681b      	ldr	r3, [r3, #0]
 8008378:	681a      	ldr	r2, [r3, #0]
 800837a:	687b      	ldr	r3, [r7, #4]
 800837c:	681b      	ldr	r3, [r3, #0]
 800837e:	f042 0201 	orr.w	r2, r2, #1
 8008382:	601a      	str	r2, [r3, #0]
 8008384:	e000      	b.n	8008388 <HAL_TIM_Base_Start_IT+0xac>
    if (!IS_TIM_SLAVEMODE_TRIGGER_ENABLED(tmpsmcr))
 8008386:	bf00      	nop
  }

  /* Return function status */
  return HAL_OK;
 8008388:	2300      	movs	r3, #0
}
 800838a:	4618      	mov	r0, r3
 800838c:	3714      	adds	r7, #20
 800838e:	46bd      	mov	sp, r7
 8008390:	f85d 7b04 	ldr.w	r7, [sp], #4
 8008394:	4770      	bx	lr
 8008396:	bf00      	nop
 8008398:	40012c00 	.word	0x40012c00
 800839c:	40000400 	.word	0x40000400
 80083a0:	40000800 	.word	0x40000800
 80083a4:	40013400 	.word	0x40013400
 80083a8:	40014000 	.word	0x40014000
 80083ac:	00010007 	.word	0x00010007

080083b0 <HAL_TIM_IRQHandler>:
  * @brief  This function handles TIM interrupts requests.
  * @param  htim TIM  handle
  * @retval None
  */
void HAL_TIM_IRQHandler(TIM_HandleTypeDef *htim)
{
 80083b0:	b580      	push	{r7, lr}
 80083b2:	b084      	sub	sp, #16
 80083b4:	af00      	add	r7, sp, #0
 80083b6:	6078      	str	r0, [r7, #4]
  uint32_t itsource = htim->Instance->DIER;
 80083b8:	687b      	ldr	r3, [r7, #4]
 80083ba:	681b      	ldr	r3, [r3, #0]
 80083bc:	68db      	ldr	r3, [r3, #12]
 80083be:	60fb      	str	r3, [r7, #12]
  uint32_t itflag   = htim->Instance->SR;
 80083c0:	687b      	ldr	r3, [r7, #4]
 80083c2:	681b      	ldr	r3, [r3, #0]
 80083c4:	691b      	ldr	r3, [r3, #16]
 80083c6:	60bb      	str	r3, [r7, #8]

  /* Capture compare 1 event */
  if ((itflag & (TIM_FLAG_CC1)) == (TIM_FLAG_CC1))
 80083c8:	68bb      	ldr	r3, [r7, #8]
 80083ca:	f003 0302 	and.w	r3, r3, #2
 80083ce:	2b00      	cmp	r3, #0
 80083d0:	d020      	beq.n	8008414 <HAL_TIM_IRQHandler+0x64>
  {
    if ((itsource & (TIM_IT_CC1)) == (TIM_IT_CC1))
 80083d2:	68fb      	ldr	r3, [r7, #12]
 80083d4:	f003 0302 	and.w	r3, r3, #2
 80083d8:	2b00      	cmp	r3, #0
 80083da:	d01b      	beq.n	8008414 <HAL_TIM_IRQHandler+0x64>
    {
      {
        __HAL_TIM_CLEAR_FLAG(htim, TIM_FLAG_CC1);
 80083dc:	687b      	ldr	r3, [r7, #4]
 80083de:	681b      	ldr	r3, [r3, #0]
 80083e0:	f06f 0202 	mvn.w	r2, #2
 80083e4:	611a      	str	r2, [r3, #16]
        htim->Channel = HAL_TIM_ACTIVE_CHANNEL_1;
 80083e6:	687b      	ldr	r3, [r7, #4]
 80083e8:	2201      	movs	r2, #1
 80083ea:	771a      	strb	r2, [r3, #28]

        /* Input capture event */
        if ((htim->Instance->CCMR1 & TIM_CCMR1_CC1S) != 0x00U)
 80083ec:	687b      	ldr	r3, [r7, #4]
 80083ee:	681b      	ldr	r3, [r3, #0]
 80083f0:	699b      	ldr	r3, [r3, #24]
 80083f2:	f003 0303 	and.w	r3, r3, #3
 80083f6:	2b00      	cmp	r3, #0
 80083f8:	d003      	beq.n	8008402 <HAL_TIM_IRQHandler+0x52>
        {
#if (USE_HAL_TIM_REGISTER_CALLBACKS == 1)
          htim->IC_CaptureCallback(htim);
#else
          HAL_TIM_IC_CaptureCallback(htim);
 80083fa:	6878      	ldr	r0, [r7, #4]
 80083fc:	f000 f931 	bl	8008662 <HAL_TIM_IC_CaptureCallback>
 8008400:	e005      	b.n	800840e <HAL_TIM_IRQHandler+0x5e>
        {
#if (USE_HAL_TIM_REGISTER_CALLBACKS == 1)
          htim->OC_DelayElapsedCallback(htim);
          htim->PWM_PulseFinishedCallback(htim);
#else
          HAL_TIM_OC_DelayElapsedCallback(htim);
 8008402:	6878      	ldr	r0, [r7, #4]
 8008404:	f000 f923 	bl	800864e <HAL_TIM_OC_DelayElapsedCallback>
          HAL_TIM_PWM_PulseFinishedCallback(htim);
 8008408:	6878      	ldr	r0, [r7, #4]
 800840a:	f000 f934 	bl	8008676 <HAL_TIM_PWM_PulseFinishedCallback>
#endif /* USE_HAL_TIM_REGISTER_CALLBACKS */
        }
        htim->Channel = HAL_TIM_ACTIVE_CHANNEL_CLEARED;
 800840e:	687b      	ldr	r3, [r7, #4]
 8008410:	2200      	movs	r2, #0
 8008412:	771a      	strb	r2, [r3, #28]
      }
    }
  }
  /* Capture compare 2 event */
  if ((itflag & (TIM_FLAG_CC2)) == (TIM_FLAG_CC2))
 8008414:	68bb      	ldr	r3, [r7, #8]
 8008416:	f003 0304 	and.w	r3, r3, #4
 800841a:	2b00      	cmp	r3, #0
 800841c:	d020      	beq.n	8008460 <HAL_TIM_IRQHandler+0xb0>
  {
    if ((itsource & (TIM_IT_CC2)) == (TIM_IT_CC2))
 800841e:	68fb      	ldr	r3, [r7, #12]
 8008420:	f003 0304 	and.w	r3, r3, #4
 8008424:	2b00      	cmp	r3, #0
 8008426:	d01b      	beq.n	8008460 <HAL_TIM_IRQHandler+0xb0>
    {
      __HAL_TIM_CLEAR_FLAG(htim, TIM_FLAG_CC2);
 8008428:	687b      	ldr	r3, [r7, #4]
 800842a:	681b      	ldr	r3, [r3, #0]
 800842c:	f06f 0204 	mvn.w	r2, #4
 8008430:	611a      	str	r2, [r3, #16]
      htim->Channel = HAL_TIM_ACTIVE_CHANNEL_2;
 8008432:	687b      	ldr	r3, [r7, #4]
 8008434:	2202      	movs	r2, #2
 8008436:	771a      	strb	r2, [r3, #28]
      /* Input capture event */
      if ((htim->Instance->CCMR1 & TIM_CCMR1_CC2S) != 0x00U)
 8008438:	687b      	ldr	r3, [r7, #4]
 800843a:	681b      	ldr	r3, [r3, #0]
 800843c:	699b      	ldr	r3, [r3, #24]
 800843e:	f403 7340 	and.w	r3, r3, #768	@ 0x300
 8008442:	2b00      	cmp	r3, #0
 8008444:	d003      	beq.n	800844e <HAL_TIM_IRQHandler+0x9e>
      {
#if (USE_HAL_TIM_REGISTER_CALLBACKS == 1)
        htim->IC_CaptureCallback(htim);
#else
        HAL_TIM_IC_CaptureCallback(htim);
 8008446:	6878      	ldr	r0, [r7, #4]
 8008448:	f000 f90b 	bl	8008662 <HAL_TIM_IC_CaptureCallback>
 800844c:	e005      	b.n	800845a <HAL_TIM_IRQHandler+0xaa>
      {
#if (USE_HAL_TIM_REGISTER_CALLBACKS == 1)
        htim->OC_DelayElapsedCallback(htim);
        htim->PWM_PulseFinishedCallback(htim);
#else
        HAL_TIM_OC_DelayElapsedCallback(htim);
 800844e:	6878      	ldr	r0, [r7, #4]
 8008450:	f000 f8fd 	bl	800864e <HAL_TIM_OC_DelayElapsedCallback>
        HAL_TIM_PWM_PulseFinishedCallback(htim);
 8008454:	6878      	ldr	r0, [r7, #4]
 8008456:	f000 f90e 	bl	8008676 <HAL_TIM_PWM_PulseFinishedCallback>
#endif /* USE_HAL_TIM_REGISTER_CALLBACKS */
      }
      htim->Channel = HAL_TIM_ACTIVE_CHANNEL_CLEARED;
 800845a:	687b      	ldr	r3, [r7, #4]
 800845c:	2200      	movs	r2, #0
 800845e:	771a      	strb	r2, [r3, #28]
    }
  }
  /* Capture compare 3 event */
  if ((itflag & (TIM_FLAG_CC3)) == (TIM_FLAG_CC3))
 8008460:	68bb      	ldr	r3, [r7, #8]
 8008462:	f003 0308 	and.w	r3, r3, #8
 8008466:	2b00      	cmp	r3, #0
 8008468:	d020      	beq.n	80084ac <HAL_TIM_IRQHandler+0xfc>
  {
    if ((itsource & (TIM_IT_CC3)) == (TIM_IT_CC3))
 800846a:	68fb      	ldr	r3, [r7, #12]
 800846c:	f003 0308 	and.w	r3, r3, #8
 8008470:	2b00      	cmp	r3, #0
 8008472:	d01b      	beq.n	80084ac <HAL_TIM_IRQHandler+0xfc>
    {
      __HAL_TIM_CLEAR_FLAG(htim, TIM_FLAG_CC3);
 8008474:	687b      	ldr	r3, [r7, #4]
 8008476:	681b      	ldr	r3, [r3, #0]
 8008478:	f06f 0208 	mvn.w	r2, #8
 800847c:	611a      	str	r2, [r3, #16]
      htim->Channel = HAL_TIM_ACTIVE_CHANNEL_3;
 800847e:	687b      	ldr	r3, [r7, #4]
 8008480:	2204      	movs	r2, #4
 8008482:	771a      	strb	r2, [r3, #28]
      /* Input capture event */
      if ((htim->Instance->CCMR2 & TIM_CCMR2_CC3S) != 0x00U)
 8008484:	687b      	ldr	r3, [r7, #4]
 8008486:	681b      	ldr	r3, [r3, #0]
 8008488:	69db      	ldr	r3, [r3, #28]
 800848a:	f003 0303 	and.w	r3, r3, #3
 800848e:	2b00      	cmp	r3, #0
 8008490:	d003      	beq.n	800849a <HAL_TIM_IRQHandler+0xea>
      {
#if (USE_HAL_TIM_REGISTER_CALLBACKS == 1)
        htim->IC_CaptureCallback(htim);
#else
        HAL_TIM_IC_CaptureCallback(htim);
 8008492:	6878      	ldr	r0, [r7, #4]
 8008494:	f000 f8e5 	bl	8008662 <HAL_TIM_IC_CaptureCallback>
 8008498:	e005      	b.n	80084a6 <HAL_TIM_IRQHandler+0xf6>
      {
#if (USE_HAL_TIM_REGISTER_CALLBACKS == 1)
        htim->OC_DelayElapsedCallback(htim);
        htim->PWM_PulseFinishedCallback(htim);
#else
        HAL_TIM_OC_DelayElapsedCallback(htim);
 800849a:	6878      	ldr	r0, [r7, #4]
 800849c:	f000 f8d7 	bl	800864e <HAL_TIM_OC_DelayElapsedCallback>
        HAL_TIM_PWM_PulseFinishedCallback(htim);
 80084a0:	6878      	ldr	r0, [r7, #4]
 80084a2:	f000 f8e8 	bl	8008676 <HAL_TIM_PWM_PulseFinishedCallback>
#endif /* USE_HAL_TIM_REGISTER_CALLBACKS */
      }
      htim->Channel = HAL_TIM_ACTIVE_CHANNEL_CLEARED;
 80084a6:	687b      	ldr	r3, [r7, #4]
 80084a8:	2200      	movs	r2, #0
 80084aa:	771a      	strb	r2, [r3, #28]
    }
  }
  /* Capture compare 4 event */
  if ((itflag & (TIM_FLAG_CC4)) == (TIM_FLAG_CC4))
 80084ac:	68bb      	ldr	r3, [r7, #8]
 80084ae:	f003 0310 	and.w	r3, r3, #16
 80084b2:	2b00      	cmp	r3, #0
 80084b4:	d020      	beq.n	80084f8 <HAL_TIM_IRQHandler+0x148>
  {
    if ((itsource & (TIM_IT_CC4)) == (TIM_IT_CC4))
 80084b6:	68fb      	ldr	r3, [r7, #12]
 80084b8:	f003 0310 	and.w	r3, r3, #16
 80084bc:	2b00      	cmp	r3, #0
 80084be:	d01b      	beq.n	80084f8 <HAL_TIM_IRQHandler+0x148>
    {
      __HAL_TIM_CLEAR_FLAG(htim, TIM_FLAG_CC4);
 80084c0:	687b      	ldr	r3, [r7, #4]
 80084c2:	681b      	ldr	r3, [r3, #0]
 80084c4:	f06f 0210 	mvn.w	r2, #16
 80084c8:	611a      	str	r2, [r3, #16]
      htim->Channel = HAL_TIM_ACTIVE_CHANNEL_4;
 80084ca:	687b      	ldr	r3, [r7, #4]
 80084cc:	2208      	movs	r2, #8
 80084ce:	771a      	strb	r2, [r3, #28]
      /* Input capture event */
      if ((htim->Instance->CCMR2 & TIM_CCMR2_CC4S) != 0x00U)
 80084d0:	687b      	ldr	r3, [r7, #4]
 80084d2:	681b      	ldr	r3, [r3, #0]
 80084d4:	69db      	ldr	r3, [r3, #28]
 80084d6:	f403 7340 	and.w	r3, r3, #768	@ 0x300
 80084da:	2b00      	cmp	r3, #0
 80084dc:	d003      	beq.n	80084e6 <HAL_TIM_IRQHandler+0x136>
      {
#if (USE_HAL_TIM_REGISTER_CALLBACKS == 1)
        htim->IC_CaptureCallback(htim);
#else
        HAL_TIM_IC_CaptureCallback(htim);
 80084de:	6878      	ldr	r0, [r7, #4]
 80084e0:	f000 f8bf 	bl	8008662 <HAL_TIM_IC_CaptureCallback>
 80084e4:	e005      	b.n	80084f2 <HAL_TIM_IRQHandler+0x142>
      {
#if (USE_HAL_TIM_REGISTER_CALLBACKS == 1)
        htim->OC_DelayElapsedCallback(htim);
        htim->PWM_PulseFinishedCallback(htim);
#else
        HAL_TIM_OC_DelayElapsedCallback(htim);
 80084e6:	6878      	ldr	r0, [r7, #4]
 80084e8:	f000 f8b1 	bl	800864e <HAL_TIM_OC_DelayElapsedCallback>
        HAL_TIM_PWM_PulseFinishedCallback(htim);
 80084ec:	6878      	ldr	r0, [r7, #4]
 80084ee:	f000 f8c2 	bl	8008676 <HAL_TIM_PWM_PulseFinishedCallback>
#endif /* USE_HAL_TIM_REGISTER_CALLBACKS */
      }
      htim->Channel = HAL_TIM_ACTIVE_CHANNEL_CLEARED;
 80084f2:	687b      	ldr	r3, [r7, #4]
 80084f4:	2200      	movs	r2, #0
 80084f6:	771a      	strb	r2, [r3, #28]
    }
  }
  /* TIM Update event */
  if ((itflag & (TIM_FLAG_UPDATE)) == (TIM_FLAG_UPDATE))
 80084f8:	68bb      	ldr	r3, [r7, #8]
 80084fa:	f003 0301 	and.w	r3, r3, #1
 80084fe:	2b00      	cmp	r3, #0
 8008500:	d00c      	beq.n	800851c <HAL_TIM_IRQHandler+0x16c>
  {
    if ((itsource & (TIM_IT_UPDATE)) == (TIM_IT_UPDATE))
 8008502:	68fb      	ldr	r3, [r7, #12]
 8008504:	f003 0301 	and.w	r3, r3, #1
 8008508:	2b00      	cmp	r3, #0
 800850a:	d007      	beq.n	800851c <HAL_TIM_IRQHandler+0x16c>
    {
      __HAL_TIM_CLEAR_FLAG(htim, TIM_FLAG_UPDATE);
 800850c:	687b      	ldr	r3, [r7, #4]
 800850e:	681b      	ldr	r3, [r3, #0]
 8008510:	f06f 0201 	mvn.w	r2, #1
 8008514:	611a      	str	r2, [r3, #16]
#if (USE_HAL_TIM_REGISTER_CALLBACKS == 1)
      htim->PeriodElapsedCallback(htim);
#else
      HAL_TIM_PeriodElapsedCallback(htim);
 8008516:	6878      	ldr	r0, [r7, #4]
 8008518:	f7fa ff34 	bl	8003384 <HAL_TIM_PeriodElapsedCallback>
#endif /* USE_HAL_TIM_REGISTER_CALLBACKS */
    }
  }
  /* TIM Break input event */
  if (((itflag & (TIM_FLAG_BREAK)) == (TIM_FLAG_BREAK)) || \
 800851c:	68bb      	ldr	r3, [r7, #8]
 800851e:	f003 0380 	and.w	r3, r3, #128	@ 0x80
 8008522:	2b00      	cmp	r3, #0
 8008524:	d104      	bne.n	8008530 <HAL_TIM_IRQHandler+0x180>
      ((itflag & (TIM_FLAG_SYSTEM_BREAK)) == (TIM_FLAG_SYSTEM_BREAK)))
 8008526:	68bb      	ldr	r3, [r7, #8]
 8008528:	f403 5300 	and.w	r3, r3, #8192	@ 0x2000
  if (((itflag & (TIM_FLAG_BREAK)) == (TIM_FLAG_BREAK)) || \
 800852c:	2b00      	cmp	r3, #0
 800852e:	d00c      	beq.n	800854a <HAL_TIM_IRQHandler+0x19a>
  {
    if ((itsource & (TIM_IT_BREAK)) == (TIM_IT_BREAK))
 8008530:	68fb      	ldr	r3, [r7, #12]
 8008532:	f003 0380 	and.w	r3, r3, #128	@ 0x80
 8008536:	2b00      	cmp	r3, #0
 8008538:	d007      	beq.n	800854a <HAL_TIM_IRQHandler+0x19a>
    {
      __HAL_TIM_CLEAR_FLAG(htim, TIM_FLAG_BREAK | TIM_FLAG_SYSTEM_BREAK);
 800853a:	687b      	ldr	r3, [r7, #4]
 800853c:	681b      	ldr	r3, [r3, #0]
 800853e:	f46f 5202 	mvn.w	r2, #8320	@ 0x2080
 8008542:	611a      	str	r2, [r3, #16]
#if (USE_HAL_TIM_REGISTER_CALLBACKS == 1)
      htim->BreakCallback(htim);
#else
      HAL_TIMEx_BreakCallback(htim);
 8008544:	6878      	ldr	r0, [r7, #4]
 8008546:	f000 f9cd 	bl	80088e4 <HAL_TIMEx_BreakCallback>
#endif /* USE_HAL_TIM_REGISTER_CALLBACKS */
    }
  }
  /* TIM Break2 input event */
  if ((itflag & (TIM_FLAG_BREAK2)) == (TIM_FLAG_BREAK2))
 800854a:	68bb      	ldr	r3, [r7, #8]
 800854c:	f403 7380 	and.w	r3, r3, #256	@ 0x100
 8008550:	2b00      	cmp	r3, #0
 8008552:	d00c      	beq.n	800856e <HAL_TIM_IRQHandler+0x1be>
  {
    if ((itsource & (TIM_IT_BREAK)) == (TIM_IT_BREAK))
 8008554:	68fb      	ldr	r3, [r7, #12]
 8008556:	f003 0380 	and.w	r3, r3, #128	@ 0x80
 800855a:	2b00      	cmp	r3, #0
 800855c:	d007      	beq.n	800856e <HAL_TIM_IRQHandler+0x1be>
    {
      __HAL_TIM_CLEAR_FLAG(htim, TIM_FLAG_BREAK2);
 800855e:	687b      	ldr	r3, [r7, #4]
 8008560:	681b      	ldr	r3, [r3, #0]
 8008562:	f46f 7280 	mvn.w	r2, #256	@ 0x100
 8008566:	611a      	str	r2, [r3, #16]
#if (USE_HAL_TIM_REGISTER_CALLBACKS == 1)
      htim->Break2Callback(htim);
#else
      HAL_TIMEx_Break2Callback(htim);
 8008568:	6878      	ldr	r0, [r7, #4]
 800856a:	f000 f9c5 	bl	80088f8 <HAL_TIMEx_Break2Callback>
#endif /* USE_HAL_TIM_REGISTER_CALLBACKS */
    }
  }
  /* TIM Trigger detection event */
  if ((itflag & (TIM_FLAG_TRIGGER)) == (TIM_FLAG_TRIGGER))
 800856e:	68bb      	ldr	r3, [r7, #8]
 8008570:	f003 0340 	and.w	r3, r3, #64	@ 0x40
 8008574:	2b00      	cmp	r3, #0
 8008576:	d00c      	beq.n	8008592 <HAL_TIM_IRQHandler+0x1e2>
  {
    if ((itsource & (TIM_IT_TRIGGER)) == (TIM_IT_TRIGGER))
 8008578:	68fb      	ldr	r3, [r7, #12]
 800857a:	f003 0340 	and.w	r3, r3, #64	@ 0x40
 800857e:	2b00      	cmp	r3, #0
 8008580:	d007      	beq.n	8008592 <HAL_TIM_IRQHandler+0x1e2>
    {
      __HAL_TIM_CLEAR_FLAG(htim, TIM_FLAG_TRIGGER);
 8008582:	687b      	ldr	r3, [r7, #4]
 8008584:	681b      	ldr	r3, [r3, #0]
 8008586:	f06f 0240 	mvn.w	r2, #64	@ 0x40
 800858a:	611a      	str	r2, [r3, #16]
#if (USE_HAL_TIM_REGISTER_CALLBACKS == 1)
      htim->TriggerCallback(htim);
#else
      HAL_TIM_TriggerCallback(htim);
 800858c:	6878      	ldr	r0, [r7, #4]
 800858e:	f000 f87c 	bl	800868a <HAL_TIM_TriggerCallback>
#endif /* USE_HAL_TIM_REGISTER_CALLBACKS */
    }
  }
  /* TIM commutation event */
  if ((itflag & (TIM_FLAG_COM)) == (TIM_FLAG_COM))
 8008592:	68bb      	ldr	r3, [r7, #8]
 8008594:	f003 0320 	and.w	r3, r3, #32
 8008598:	2b00      	cmp	r3, #0
 800859a:	d00c      	beq.n	80085b6 <HAL_TIM_IRQHandler+0x206>
  {
    if ((itsource & (TIM_IT_COM)) == (TIM_IT_COM))
 800859c:	68fb      	ldr	r3, [r7, #12]
 800859e:	f003 0320 	and.w	r3, r3, #32
 80085a2:	2b00      	cmp	r3, #0
 80085a4:	d007      	beq.n	80085b6 <HAL_TIM_IRQHandler+0x206>
    {
      __HAL_TIM_CLEAR_FLAG(htim, TIM_FLAG_COM);
 80085a6:	687b      	ldr	r3, [r7, #4]
 80085a8:	681b      	ldr	r3, [r3, #0]
 80085aa:	f06f 0220 	mvn.w	r2, #32
 80085ae:	611a      	str	r2, [r3, #16]
#if (USE_HAL_TIM_REGISTER_CALLBACKS == 1)
      htim->CommutationCallback(htim);
#else
      HAL_TIMEx_CommutCallback(htim);
 80085b0:	6878      	ldr	r0, [r7, #4]
 80085b2:	f000 f98d 	bl	80088d0 <HAL_TIMEx_CommutCallback>
#endif /* USE_HAL_TIM_REGISTER_CALLBACKS */
    }
  }
  /* TIM Encoder index event */
  if ((itflag & (TIM_FLAG_IDX)) == (TIM_FLAG_IDX))
 80085b6:	68bb      	ldr	r3, [r7, #8]
 80085b8:	f403 1380 	and.w	r3, r3, #1048576	@ 0x100000
 80085bc:	2b00      	cmp	r3, #0
 80085be:	d00c      	beq.n	80085da <HAL_TIM_IRQHandler+0x22a>
  {
    if ((itsource & (TIM_IT_IDX)) == (TIM_IT_IDX))
 80085c0:	68fb      	ldr	r3, [r7, #12]
 80085c2:	f403 1380 	and.w	r3, r3, #1048576	@ 0x100000
 80085c6:	2b00      	cmp	r3, #0
 80085c8:	d007      	beq.n	80085da <HAL_TIM_IRQHandler+0x22a>
    {
      __HAL_TIM_CLEAR_FLAG(htim, TIM_FLAG_IDX);
 80085ca:	687b      	ldr	r3, [r7, #4]
 80085cc:	681b      	ldr	r3, [r3, #0]
 80085ce:	f46f 1280 	mvn.w	r2, #1048576	@ 0x100000
 80085d2:	611a      	str	r2, [r3, #16]
#if (USE_HAL_TIM_REGISTER_CALLBACKS == 1)
      htim->EncoderIndexCallback(htim);
#else
      HAL_TIMEx_EncoderIndexCallback(htim);
 80085d4:	6878      	ldr	r0, [r7, #4]
 80085d6:	f000 f999 	bl	800890c <HAL_TIMEx_EncoderIndexCallback>
#endif /* USE_HAL_TIM_REGISTER_CALLBACKS */
    }
  }
  /* TIM Direction change event */
  if ((itflag & (TIM_FLAG_DIR)) == (TIM_FLAG_DIR))
 80085da:	68bb      	ldr	r3, [r7, #8]
 80085dc:	f403 1300 	and.w	r3, r3, #2097152	@ 0x200000
 80085e0:	2b00      	cmp	r3, #0
 80085e2:	d00c      	beq.n	80085fe <HAL_TIM_IRQHandler+0x24e>
  {
    if ((itsource & (TIM_IT_DIR)) == (TIM_IT_DIR))
 80085e4:	68fb      	ldr	r3, [r7, #12]
 80085e6:	f403 1300 	and.w	r3, r3, #2097152	@ 0x200000
 80085ea:	2b00      	cmp	r3, #0
 80085ec:	d007      	beq.n	80085fe <HAL_TIM_IRQHandler+0x24e>
    {
      __HAL_TIM_CLEAR_FLAG(htim, TIM_FLAG_DIR);
 80085ee:	687b      	ldr	r3, [r7, #4]
 80085f0:	681b      	ldr	r3, [r3, #0]
 80085f2:	f46f 1200 	mvn.w	r2, #2097152	@ 0x200000
 80085f6:	611a      	str	r2, [r3, #16]
#if (USE_HAL_TIM_REGISTER_CALLBACKS == 1)
      htim->DirectionChangeCallback(htim);
#else
      HAL_TIMEx_DirectionChangeCallback(htim);
 80085f8:	6878      	ldr	r0, [r7, #4]
 80085fa:	f000 f991 	bl	8008920 <HAL_TIMEx_DirectionChangeCallback>
#endif /* USE_HAL_TIM_REGISTER_CALLBACKS */
    }
  }
  /* TIM Index error event */
  if ((itflag & (TIM_FLAG_IERR)) == (TIM_FLAG_IERR))
 80085fe:	68bb      	ldr	r3, [r7, #8]
 8008600:	f403 0380 	and.w	r3, r3, #4194304	@ 0x400000
 8008604:	2b00      	cmp	r3, #0
 8008606:	d00c      	beq.n	8008622 <HAL_TIM_IRQHandler+0x272>
  {
    if ((itsource & (TIM_IT_IERR)) == (TIM_IT_IERR))
 8008608:	68fb      	ldr	r3, [r7, #12]
 800860a:	f403 0380 	and.w	r3, r3, #4194304	@ 0x400000
 800860e:	2b00      	cmp	r3, #0
 8008610:	d007      	beq.n	8008622 <HAL_TIM_IRQHandler+0x272>
    {
      __HAL_TIM_CLEAR_FLAG(htim, TIM_FLAG_IERR);
 8008612:	687b      	ldr	r3, [r7, #4]
 8008614:	681b      	ldr	r3, [r3, #0]
 8008616:	f46f 0280 	mvn.w	r2, #4194304	@ 0x400000
 800861a:	611a      	str	r2, [r3, #16]
#if (USE_HAL_TIM_REGISTER_CALLBACKS == 1)
      htim->IndexErrorCallback(htim);
#else
      HAL_TIMEx_IndexErrorCallback(htim);
 800861c:	6878      	ldr	r0, [r7, #4]
 800861e:	f000 f989 	bl	8008934 <HAL_TIMEx_IndexErrorCallback>
#endif /* USE_HAL_TIM_REGISTER_CALLBACKS */
    }
  }
  /* TIM Transition error event */
  if ((itflag & (TIM_FLAG_TERR)) == (TIM_FLAG_TERR))
 8008622:	68bb      	ldr	r3, [r7, #8]
 8008624:	f403 0300 	and.w	r3, r3, #8388608	@ 0x800000
 8008628:	2b00      	cmp	r3, #0
 800862a:	d00c      	beq.n	8008646 <HAL_TIM_IRQHandler+0x296>
  {
    if ((itsource & (TIM_IT_TERR)) == (TIM_IT_TERR))
 800862c:	68fb      	ldr	r3, [r7, #12]
 800862e:	f403 0300 	and.w	r3, r3, #8388608	@ 0x800000
 8008632:	2b00      	cmp	r3, #0
 8008634:	d007      	beq.n	8008646 <HAL_TIM_IRQHandler+0x296>
    {
      __HAL_TIM_CLEAR_FLAG(htim, TIM_FLAG_TERR);
 8008636:	687b      	ldr	r3, [r7, #4]
 8008638:	681b      	ldr	r3, [r3, #0]
 800863a:	f46f 0200 	mvn.w	r2, #8388608	@ 0x800000
 800863e:	611a      	str	r2, [r3, #16]
#if (USE_HAL_TIM_REGISTER_CALLBACKS == 1)
      htim->TransitionErrorCallback(htim);
#else
      HAL_TIMEx_TransitionErrorCallback(htim);
 8008640:	6878      	ldr	r0, [r7, #4]
 8008642:	f000 f981 	bl	8008948 <HAL_TIMEx_TransitionErrorCallback>
#endif /* USE_HAL_TIM_REGISTER_CALLBACKS */
    }
  }
}
 8008646:	bf00      	nop
 8008648:	3710      	adds	r7, #16
 800864a:	46bd      	mov	sp, r7
 800864c:	bd80      	pop	{r7, pc}

0800864e <HAL_TIM_OC_DelayElapsedCallback>:
  * @brief  Output Compare callback in non-blocking mode
  * @param  htim TIM OC handle
  * @retval None
  */
__weak void HAL_TIM_OC_DelayElapsedCallback(TIM_HandleTypeDef *htim)
{
 800864e:	b480      	push	{r7}
 8008650:	b083      	sub	sp, #12
 8008652:	af00      	add	r7, sp, #0
 8008654:	6078      	str	r0, [r7, #4]
  UNUSED(htim);

  /* NOTE : This function should not be modified, when the callback is needed,
            the HAL_TIM_OC_DelayElapsedCallback could be implemented in the user file
   */
}
 8008656:	bf00      	nop
 8008658:	370c      	adds	r7, #12
 800865a:	46bd      	mov	sp, r7
 800865c:	f85d 7b04 	ldr.w	r7, [sp], #4
 8008660:	4770      	bx	lr

08008662 <HAL_TIM_IC_CaptureCallback>:
  * @brief  Input Capture callback in non-blocking mode
  * @param  htim TIM IC handle
  * @retval None
  */
__weak void HAL_TIM_IC_CaptureCallback(TIM_HandleTypeDef *htim)
{
 8008662:	b480      	push	{r7}
 8008664:	b083      	sub	sp, #12
 8008666:	af00      	add	r7, sp, #0
 8008668:	6078      	str	r0, [r7, #4]
  UNUSED(htim);

  /* NOTE : This function should not be modified, when the callback is needed,
            the HAL_TIM_IC_CaptureCallback could be implemented in the user file
   */
}
 800866a:	bf00      	nop
 800866c:	370c      	adds	r7, #12
 800866e:	46bd      	mov	sp, r7
 8008670:	f85d 7b04 	ldr.w	r7, [sp], #4
 8008674:	4770      	bx	lr

08008676 <HAL_TIM_PWM_PulseFinishedCallback>:
  * @brief  PWM Pulse finished callback in non-blocking mode
  * @param  htim TIM handle
  * @retval None
  */
__weak void HAL_TIM_PWM_PulseFinishedCallback(TIM_HandleTypeDef *htim)
{
 8008676:	b480      	push	{r7}
 8008678:	b083      	sub	sp, #12
 800867a:	af00      	add	r7, sp, #0
 800867c:	6078      	str	r0, [r7, #4]
  UNUSED(htim);

  /* NOTE : This function should not be modified, when the callback is needed,
            the HAL_TIM_PWM_PulseFinishedCallback could be implemented in the user file
   */
}
 800867e:	bf00      	nop
 8008680:	370c      	adds	r7, #12
 8008682:	46bd      	mov	sp, r7
 8008684:	f85d 7b04 	ldr.w	r7, [sp], #4
 8008688:	4770      	bx	lr

0800868a <HAL_TIM_TriggerCallback>:
  * @brief  Hall Trigger detection callback in non-blocking mode
  * @param  htim TIM handle
  * @retval None
  */
__weak void HAL_TIM_TriggerCallback(TIM_HandleTypeDef *htim)
{
 800868a:	b480      	push	{r7}
 800868c:	b083      	sub	sp, #12
 800868e:	af00      	add	r7, sp, #0
 8008690:	6078      	str	r0, [r7, #4]
  UNUSED(htim);

  /* NOTE : This function should not be modified, when the callback is needed,
            the HAL_TIM_TriggerCallback could be implemented in the user file
   */
}
 8008692:	bf00      	nop
 8008694:	370c      	adds	r7, #12
 8008696:	46bd      	mov	sp, r7
 8008698:	f85d 7b04 	ldr.w	r7, [sp], #4
 800869c:	4770      	bx	lr
	...

080086a0 <TIM_Base_SetConfig>:
  * @param  TIMx TIM peripheral
  * @param  Structure TIM Base configuration structure
  * @retval None
  */
void TIM_Base_SetConfig(TIM_TypeDef *TIMx, const TIM_Base_InitTypeDef *Structure)
{
 80086a0:	b480      	push	{r7}
 80086a2:	b085      	sub	sp, #20
 80086a4:	af00      	add	r7, sp, #0
 80086a6:	6078      	str	r0, [r7, #4]
 80086a8:	6039      	str	r1, [r7, #0]
  uint32_t tmpcr1;
  tmpcr1 = TIMx->CR1;
 80086aa:	687b      	ldr	r3, [r7, #4]
 80086ac:	681b      	ldr	r3, [r3, #0]
 80086ae:	60fb      	str	r3, [r7, #12]

  /* Set TIM Time Base Unit parameters ---------------------------------------*/
  if (IS_TIM_COUNTER_MODE_SELECT_INSTANCE(TIMx))
 80086b0:	687b      	ldr	r3, [r7, #4]
 80086b2:	4a3f      	ldr	r2, [pc, #252]	@ (80087b0 <TIM_Base_SetConfig+0x110>)
 80086b4:	4293      	cmp	r3, r2
 80086b6:	d00f      	beq.n	80086d8 <TIM_Base_SetConfig+0x38>
 80086b8:	687b      	ldr	r3, [r7, #4]
 80086ba:	f1b3 4f80 	cmp.w	r3, #1073741824	@ 0x40000000
 80086be:	d00b      	beq.n	80086d8 <TIM_Base_SetConfig+0x38>
 80086c0:	687b      	ldr	r3, [r7, #4]
 80086c2:	4a3c      	ldr	r2, [pc, #240]	@ (80087b4 <TIM_Base_SetConfig+0x114>)
 80086c4:	4293      	cmp	r3, r2
 80086c6:	d007      	beq.n	80086d8 <TIM_Base_SetConfig+0x38>
 80086c8:	687b      	ldr	r3, [r7, #4]
 80086ca:	4a3b      	ldr	r2, [pc, #236]	@ (80087b8 <TIM_Base_SetConfig+0x118>)
 80086cc:	4293      	cmp	r3, r2
 80086ce:	d003      	beq.n	80086d8 <TIM_Base_SetConfig+0x38>
 80086d0:	687b      	ldr	r3, [r7, #4]
 80086d2:	4a3a      	ldr	r2, [pc, #232]	@ (80087bc <TIM_Base_SetConfig+0x11c>)
 80086d4:	4293      	cmp	r3, r2
 80086d6:	d108      	bne.n	80086ea <TIM_Base_SetConfig+0x4a>
  {
    /* Select the Counter Mode */
    tmpcr1 &= ~(TIM_CR1_DIR | TIM_CR1_CMS);
 80086d8:	68fb      	ldr	r3, [r7, #12]
 80086da:	f023 0370 	bic.w	r3, r3, #112	@ 0x70
 80086de:	60fb      	str	r3, [r7, #12]
    tmpcr1 |= Structure->CounterMode;
 80086e0:	683b      	ldr	r3, [r7, #0]
 80086e2:	685b      	ldr	r3, [r3, #4]
 80086e4:	68fa      	ldr	r2, [r7, #12]
 80086e6:	4313      	orrs	r3, r2
 80086e8:	60fb      	str	r3, [r7, #12]
  }

  if (IS_TIM_CLOCK_DIVISION_INSTANCE(TIMx))
 80086ea:	687b      	ldr	r3, [r7, #4]
 80086ec:	4a30      	ldr	r2, [pc, #192]	@ (80087b0 <TIM_Base_SetConfig+0x110>)
 80086ee:	4293      	cmp	r3, r2
 80086f0:	d01b      	beq.n	800872a <TIM_Base_SetConfig+0x8a>
 80086f2:	687b      	ldr	r3, [r7, #4]
 80086f4:	f1b3 4f80 	cmp.w	r3, #1073741824	@ 0x40000000
 80086f8:	d017      	beq.n	800872a <TIM_Base_SetConfig+0x8a>
 80086fa:	687b      	ldr	r3, [r7, #4]
 80086fc:	4a2d      	ldr	r2, [pc, #180]	@ (80087b4 <TIM_Base_SetConfig+0x114>)
 80086fe:	4293      	cmp	r3, r2
 8008700:	d013      	beq.n	800872a <TIM_Base_SetConfig+0x8a>
 8008702:	687b      	ldr	r3, [r7, #4]
 8008704:	4a2c      	ldr	r2, [pc, #176]	@ (80087b8 <TIM_Base_SetConfig+0x118>)
 8008706:	4293      	cmp	r3, r2
 8008708:	d00f      	beq.n	800872a <TIM_Base_SetConfig+0x8a>
 800870a:	687b      	ldr	r3, [r7, #4]
 800870c:	4a2b      	ldr	r2, [pc, #172]	@ (80087bc <TIM_Base_SetConfig+0x11c>)
 800870e:	4293      	cmp	r3, r2
 8008710:	d00b      	beq.n	800872a <TIM_Base_SetConfig+0x8a>
 8008712:	687b      	ldr	r3, [r7, #4]
 8008714:	4a2a      	ldr	r2, [pc, #168]	@ (80087c0 <TIM_Base_SetConfig+0x120>)
 8008716:	4293      	cmp	r3, r2
 8008718:	d007      	beq.n	800872a <TIM_Base_SetConfig+0x8a>
 800871a:	687b      	ldr	r3, [r7, #4]
 800871c:	4a29      	ldr	r2, [pc, #164]	@ (80087c4 <TIM_Base_SetConfig+0x124>)
 800871e:	4293      	cmp	r3, r2
 8008720:	d003      	beq.n	800872a <TIM_Base_SetConfig+0x8a>
 8008722:	687b      	ldr	r3, [r7, #4]
 8008724:	4a28      	ldr	r2, [pc, #160]	@ (80087c8 <TIM_Base_SetConfig+0x128>)
 8008726:	4293      	cmp	r3, r2
 8008728:	d108      	bne.n	800873c <TIM_Base_SetConfig+0x9c>
  {
    /* Set the clock division */
    tmpcr1 &= ~TIM_CR1_CKD;
 800872a:	68fb      	ldr	r3, [r7, #12]
 800872c:	f423 7340 	bic.w	r3, r3, #768	@ 0x300
 8008730:	60fb      	str	r3, [r7, #12]
    tmpcr1 |= (uint32_t)Structure->ClockDivision;
 8008732:	683b      	ldr	r3, [r7, #0]
 8008734:	68db      	ldr	r3, [r3, #12]
 8008736:	68fa      	ldr	r2, [r7, #12]
 8008738:	4313      	orrs	r3, r2
 800873a:	60fb      	str	r3, [r7, #12]
  }

  /* Set the auto-reload preload */
  MODIFY_REG(tmpcr1, TIM_CR1_ARPE, Structure->AutoReloadPreload);
 800873c:	68fb      	ldr	r3, [r7, #12]
 800873e:	f023 0280 	bic.w	r2, r3, #128	@ 0x80
 8008742:	683b      	ldr	r3, [r7, #0]
 8008744:	695b      	ldr	r3, [r3, #20]
 8008746:	4313      	orrs	r3, r2
 8008748:	60fb      	str	r3, [r7, #12]

  /* Set the Autoreload value */
  TIMx->ARR = (uint32_t)Structure->Period ;
 800874a:	683b      	ldr	r3, [r7, #0]
 800874c:	689a      	ldr	r2, [r3, #8]
 800874e:	687b      	ldr	r3, [r7, #4]
 8008750:	62da      	str	r2, [r3, #44]	@ 0x2c

  /* Set the Prescaler value */
  TIMx->PSC = Structure->Prescaler;
 8008752:	683b      	ldr	r3, [r7, #0]
 8008754:	681a      	ldr	r2, [r3, #0]
 8008756:	687b      	ldr	r3, [r7, #4]
 8008758:	629a      	str	r2, [r3, #40]	@ 0x28

  if (IS_TIM_REPETITION_COUNTER_INSTANCE(TIMx))
 800875a:	687b      	ldr	r3, [r7, #4]
 800875c:	4a14      	ldr	r2, [pc, #80]	@ (80087b0 <TIM_Base_SetConfig+0x110>)
 800875e:	4293      	cmp	r3, r2
 8008760:	d00f      	beq.n	8008782 <TIM_Base_SetConfig+0xe2>
 8008762:	687b      	ldr	r3, [r7, #4]
 8008764:	4a15      	ldr	r2, [pc, #84]	@ (80087bc <TIM_Base_SetConfig+0x11c>)
 8008766:	4293      	cmp	r3, r2
 8008768:	d00b      	beq.n	8008782 <TIM_Base_SetConfig+0xe2>
 800876a:	687b      	ldr	r3, [r7, #4]
 800876c:	4a14      	ldr	r2, [pc, #80]	@ (80087c0 <TIM_Base_SetConfig+0x120>)
 800876e:	4293      	cmp	r3, r2
 8008770:	d007      	beq.n	8008782 <TIM_Base_SetConfig+0xe2>
 8008772:	687b      	ldr	r3, [r7, #4]
 8008774:	4a13      	ldr	r2, [pc, #76]	@ (80087c4 <TIM_Base_SetConfig+0x124>)
 8008776:	4293      	cmp	r3, r2
 8008778:	d003      	beq.n	8008782 <TIM_Base_SetConfig+0xe2>
 800877a:	687b      	ldr	r3, [r7, #4]
 800877c:	4a12      	ldr	r2, [pc, #72]	@ (80087c8 <TIM_Base_SetConfig+0x128>)
 800877e:	4293      	cmp	r3, r2
 8008780:	d103      	bne.n	800878a <TIM_Base_SetConfig+0xea>
  {
    /* Set the Repetition Counter value */
    TIMx->RCR = Structure->RepetitionCounter;
 8008782:	683b      	ldr	r3, [r7, #0]
 8008784:	691a      	ldr	r2, [r3, #16]
 8008786:	687b      	ldr	r3, [r7, #4]
 8008788:	631a      	str	r2, [r3, #48]	@ 0x30
  }

  /* Disable Update Event (UEV) with Update Generation (UG)
     by changing Update Request Source (URS) to avoid Update flag (UIF) */
  SET_BIT(TIMx->CR1, TIM_CR1_URS);
 800878a:	687b      	ldr	r3, [r7, #4]
 800878c:	681b      	ldr	r3, [r3, #0]
 800878e:	f043 0204 	orr.w	r2, r3, #4
 8008792:	687b      	ldr	r3, [r7, #4]
 8008794:	601a      	str	r2, [r3, #0]

  /* Generate an update event to reload the Prescaler
     and the repetition counter (only for advanced timer) value immediately */
  TIMx->EGR = TIM_EGR_UG;
 8008796:	687b      	ldr	r3, [r7, #4]
 8008798:	2201      	movs	r2, #1
 800879a:	615a      	str	r2, [r3, #20]

  TIMx->CR1 = tmpcr1;
 800879c:	687b      	ldr	r3, [r7, #4]
 800879e:	68fa      	ldr	r2, [r7, #12]
 80087a0:	601a      	str	r2, [r3, #0]
}
 80087a2:	bf00      	nop
 80087a4:	3714      	adds	r7, #20
 80087a6:	46bd      	mov	sp, r7
 80087a8:	f85d 7b04 	ldr.w	r7, [sp], #4
 80087ac:	4770      	bx	lr
 80087ae:	bf00      	nop
 80087b0:	40012c00 	.word	0x40012c00
 80087b4:	40000400 	.word	0x40000400
 80087b8:	40000800 	.word	0x40000800
 80087bc:	40013400 	.word	0x40013400
 80087c0:	40014000 	.word	0x40014000
 80087c4:	40014400 	.word	0x40014400
 80087c8:	40014800 	.word	0x40014800

080087cc <HAL_TIMEx_MasterConfigSynchronization>:
  *         mode.
  * @retval HAL status
  */
HAL_StatusTypeDef HAL_TIMEx_MasterConfigSynchronization(TIM_HandleTypeDef *htim,
                                                        const TIM_MasterConfigTypeDef *sMasterConfig)
{
 80087cc:	b480      	push	{r7}
 80087ce:	b085      	sub	sp, #20
 80087d0:	af00      	add	r7, sp, #0
 80087d2:	6078      	str	r0, [r7, #4]
 80087d4:	6039      	str	r1, [r7, #0]
  assert_param(IS_TIM_MASTER_INSTANCE(htim->Instance));
  assert_param(IS_TIM_TRGO_SOURCE(sMasterConfig->MasterOutputTrigger));
  assert_param(IS_TIM_MSM_STATE(sMasterConfig->MasterSlaveMode));

  /* Check input state */
  __HAL_LOCK(htim);
 80087d6:	687b      	ldr	r3, [r7, #4]
 80087d8:	f893 303c 	ldrb.w	r3, [r3, #60]	@ 0x3c
 80087dc:	2b01      	cmp	r3, #1
 80087de:	d101      	bne.n	80087e4 <HAL_TIMEx_MasterConfigSynchronization+0x18>
 80087e0:	2302      	movs	r3, #2
 80087e2:	e065      	b.n	80088b0 <HAL_TIMEx_MasterConfigSynchronization+0xe4>
 80087e4:	687b      	ldr	r3, [r7, #4]
 80087e6:	2201      	movs	r2, #1
 80087e8:	f883 203c 	strb.w	r2, [r3, #60]	@ 0x3c

  /* Change the handler state */
  htim->State = HAL_TIM_STATE_BUSY;
 80087ec:	687b      	ldr	r3, [r7, #4]
 80087ee:	2202      	movs	r2, #2
 80087f0:	f883 203d 	strb.w	r2, [r3, #61]	@ 0x3d

  /* Get the TIMx CR2 register value */
  tmpcr2 = htim->Instance->CR2;
 80087f4:	687b      	ldr	r3, [r7, #4]
 80087f6:	681b      	ldr	r3, [r3, #0]
 80087f8:	685b      	ldr	r3, [r3, #4]
 80087fa:	60fb      	str	r3, [r7, #12]

  /* Get the TIMx SMCR register value */
  tmpsmcr = htim->Instance->SMCR;
 80087fc:	687b      	ldr	r3, [r7, #4]
 80087fe:	681b      	ldr	r3, [r3, #0]
 8008800:	689b      	ldr	r3, [r3, #8]
 8008802:	60bb      	str	r3, [r7, #8]

  /* If the timer supports ADC synchronization through TRGO2, set the master mode selection 2 */
  if (IS_TIM_TRGO2_INSTANCE(htim->Instance))
 8008804:	687b      	ldr	r3, [r7, #4]
 8008806:	681b      	ldr	r3, [r3, #0]
 8008808:	4a2c      	ldr	r2, [pc, #176]	@ (80088bc <HAL_TIMEx_MasterConfigSynchronization+0xf0>)
 800880a:	4293      	cmp	r3, r2
 800880c:	d004      	beq.n	8008818 <HAL_TIMEx_MasterConfigSynchronization+0x4c>
 800880e:	687b      	ldr	r3, [r7, #4]
 8008810:	681b      	ldr	r3, [r3, #0]
 8008812:	4a2b      	ldr	r2, [pc, #172]	@ (80088c0 <HAL_TIMEx_MasterConfigSynchronization+0xf4>)
 8008814:	4293      	cmp	r3, r2
 8008816:	d108      	bne.n	800882a <HAL_TIMEx_MasterConfigSynchronization+0x5e>
  {
    /* Check the parameters */
    assert_param(IS_TIM_TRGO2_SOURCE(sMasterConfig->MasterOutputTrigger2));

    /* Clear the MMS2 bits */
    tmpcr2 &= ~TIM_CR2_MMS2;
 8008818:	68fb      	ldr	r3, [r7, #12]
 800881a:	f423 0370 	bic.w	r3, r3, #15728640	@ 0xf00000
 800881e:	60fb      	str	r3, [r7, #12]
    /* Select the TRGO2 source*/
    tmpcr2 |= sMasterConfig->MasterOutputTrigger2;
 8008820:	683b      	ldr	r3, [r7, #0]
 8008822:	685b      	ldr	r3, [r3, #4]
 8008824:	68fa      	ldr	r2, [r7, #12]
 8008826:	4313      	orrs	r3, r2
 8008828:	60fb      	str	r3, [r7, #12]
  }

  /* Reset the MMS Bits */
  tmpcr2 &= ~TIM_CR2_MMS;
 800882a:	68fb      	ldr	r3, [r7, #12]
 800882c:	f023 7300 	bic.w	r3, r3, #33554432	@ 0x2000000
 8008830:	f023 0370 	bic.w	r3, r3, #112	@ 0x70
 8008834:	60fb      	str	r3, [r7, #12]
  /* Select the TRGO source */
  tmpcr2 |=  sMasterConfig->MasterOutputTrigger;
 8008836:	683b      	ldr	r3, [r7, #0]
 8008838:	681b      	ldr	r3, [r3, #0]
 800883a:	68fa      	ldr	r2, [r7, #12]
 800883c:	4313      	orrs	r3, r2
 800883e:	60fb      	str	r3, [r7, #12]

  /* Update TIMx CR2 */
  htim->Instance->CR2 = tmpcr2;
 8008840:	687b      	ldr	r3, [r7, #4]
 8008842:	681b      	ldr	r3, [r3, #0]
 8008844:	68fa      	ldr	r2, [r7, #12]
 8008846:	605a      	str	r2, [r3, #4]

  if (IS_TIM_SLAVE_INSTANCE(htim->Instance))
 8008848:	687b      	ldr	r3, [r7, #4]
 800884a:	681b      	ldr	r3, [r3, #0]
 800884c:	4a1b      	ldr	r2, [pc, #108]	@ (80088bc <HAL_TIMEx_MasterConfigSynchronization+0xf0>)
 800884e:	4293      	cmp	r3, r2
 8008850:	d018      	beq.n	8008884 <HAL_TIMEx_MasterConfigSynchronization+0xb8>
 8008852:	687b      	ldr	r3, [r7, #4]
 8008854:	681b      	ldr	r3, [r3, #0]
 8008856:	f1b3 4f80 	cmp.w	r3, #1073741824	@ 0x40000000
 800885a:	d013      	beq.n	8008884 <HAL_TIMEx_MasterConfigSynchronization+0xb8>
 800885c:	687b      	ldr	r3, [r7, #4]
 800885e:	681b      	ldr	r3, [r3, #0]
 8008860:	4a18      	ldr	r2, [pc, #96]	@ (80088c4 <HAL_TIMEx_MasterConfigSynchronization+0xf8>)
 8008862:	4293      	cmp	r3, r2
 8008864:	d00e      	beq.n	8008884 <HAL_TIMEx_MasterConfigSynchronization+0xb8>
 8008866:	687b      	ldr	r3, [r7, #4]
 8008868:	681b      	ldr	r3, [r3, #0]
 800886a:	4a17      	ldr	r2, [pc, #92]	@ (80088c8 <HAL_TIMEx_MasterConfigSynchronization+0xfc>)
 800886c:	4293      	cmp	r3, r2
 800886e:	d009      	beq.n	8008884 <HAL_TIMEx_MasterConfigSynchronization+0xb8>
 8008870:	687b      	ldr	r3, [r7, #4]
 8008872:	681b      	ldr	r3, [r3, #0]
 8008874:	4a12      	ldr	r2, [pc, #72]	@ (80088c0 <HAL_TIMEx_MasterConfigSynchronization+0xf4>)
 8008876:	4293      	cmp	r3, r2
 8008878:	d004      	beq.n	8008884 <HAL_TIMEx_MasterConfigSynchronization+0xb8>
 800887a:	687b      	ldr	r3, [r7, #4]
 800887c:	681b      	ldr	r3, [r3, #0]
 800887e:	4a13      	ldr	r2, [pc, #76]	@ (80088cc <HAL_TIMEx_MasterConfigSynchronization+0x100>)
 8008880:	4293      	cmp	r3, r2
 8008882:	d10c      	bne.n	800889e <HAL_TIMEx_MasterConfigSynchronization+0xd2>
  {
    /* Reset the MSM Bit */
    tmpsmcr &= ~TIM_SMCR_MSM;
 8008884:	68bb      	ldr	r3, [r7, #8]
 8008886:	f023 0380 	bic.w	r3, r3, #128	@ 0x80
 800888a:	60bb      	str	r3, [r7, #8]
    /* Set master mode */
    tmpsmcr |= sMasterConfig->MasterSlaveMode;
 800888c:	683b      	ldr	r3, [r7, #0]
 800888e:	689b      	ldr	r3, [r3, #8]
 8008890:	68ba      	ldr	r2, [r7, #8]
 8008892:	4313      	orrs	r3, r2
 8008894:	60bb      	str	r3, [r7, #8]

    /* Update TIMx SMCR */
    htim->Instance->SMCR = tmpsmcr;
 8008896:	687b      	ldr	r3, [r7, #4]
 8008898:	681b      	ldr	r3, [r3, #0]
 800889a:	68ba      	ldr	r2, [r7, #8]
 800889c:	609a      	str	r2, [r3, #8]
  }

  /* Change the htim state */
  htim->State = HAL_TIM_STATE_READY;
 800889e:	687b      	ldr	r3, [r7, #4]
 80088a0:	2201      	movs	r2, #1
 80088a2:	f883 203d 	strb.w	r2, [r3, #61]	@ 0x3d

  __HAL_UNLOCK(htim);
 80088a6:	687b      	ldr	r3, [r7, #4]
 80088a8:	2200      	movs	r2, #0
 80088aa:	f883 203c 	strb.w	r2, [r3, #60]	@ 0x3c

  return HAL_OK;
 80088ae:	2300      	movs	r3, #0
}
 80088b0:	4618      	mov	r0, r3
 80088b2:	3714      	adds	r7, #20
 80088b4:	46bd      	mov	sp, r7
 80088b6:	f85d 7b04 	ldr.w	r7, [sp], #4
 80088ba:	4770      	bx	lr
 80088bc:	40012c00 	.word	0x40012c00
 80088c0:	40013400 	.word	0x40013400
 80088c4:	40000400 	.word	0x40000400
 80088c8:	40000800 	.word	0x40000800
 80088cc:	40014000 	.word	0x40014000

080088d0 <HAL_TIMEx_CommutCallback>:
  * @brief  Commutation callback in non-blocking mode
  * @param  htim TIM handle
  * @retval None
  */
__weak void HAL_TIMEx_CommutCallback(TIM_HandleTypeDef *htim)
{
 80088d0:	b480      	push	{r7}
 80088d2:	b083      	sub	sp, #12
 80088d4:	af00      	add	r7, sp, #0
 80088d6:	6078      	str	r0, [r7, #4]
  UNUSED(htim);

  /* NOTE : This function should not be modified, when the callback is needed,
            the HAL_TIMEx_CommutCallback could be implemented in the user file
   */
}
 80088d8:	bf00      	nop
 80088da:	370c      	adds	r7, #12
 80088dc:	46bd      	mov	sp, r7
 80088de:	f85d 7b04 	ldr.w	r7, [sp], #4
 80088e2:	4770      	bx	lr

080088e4 <HAL_TIMEx_BreakCallback>:
  * @brief  Break detection callback in non-blocking mode
  * @param  htim TIM handle
  * @retval None
  */
__weak void HAL_TIMEx_BreakCallback(TIM_HandleTypeDef *htim)
{
 80088e4:	b480      	push	{r7}
 80088e6:	b083      	sub	sp, #12
 80088e8:	af00      	add	r7, sp, #0
 80088ea:	6078      	str	r0, [r7, #4]
  UNUSED(htim);

  /* NOTE : This function should not be modified, when the callback is needed,
            the HAL_TIMEx_BreakCallback could be implemented in the user file
   */
}
 80088ec:	bf00      	nop
 80088ee:	370c      	adds	r7, #12
 80088f0:	46bd      	mov	sp, r7
 80088f2:	f85d 7b04 	ldr.w	r7, [sp], #4
 80088f6:	4770      	bx	lr

080088f8 <HAL_TIMEx_Break2Callback>:
  * @brief  Break2 detection callback in non blocking mode
  * @param  htim: TIM handle
  * @retval None
  */
__weak void HAL_TIMEx_Break2Callback(TIM_HandleTypeDef *htim)
{
 80088f8:	b480      	push	{r7}
 80088fa:	b083      	sub	sp, #12
 80088fc:	af00      	add	r7, sp, #0
 80088fe:	6078      	str	r0, [r7, #4]
  UNUSED(htim);

  /* NOTE : This function Should not be modified, when the callback is needed,
            the HAL_TIMEx_Break2Callback could be implemented in the user file
   */
}
 8008900:	bf00      	nop
 8008902:	370c      	adds	r7, #12
 8008904:	46bd      	mov	sp, r7
 8008906:	f85d 7b04 	ldr.w	r7, [sp], #4
 800890a:	4770      	bx	lr

0800890c <HAL_TIMEx_EncoderIndexCallback>:
  * @brief  Encoder index callback in non-blocking mode
  * @param  htim TIM handle
  * @retval None
  */
__weak void HAL_TIMEx_EncoderIndexCallback(TIM_HandleTypeDef *htim)
{
 800890c:	b480      	push	{r7}
 800890e:	b083      	sub	sp, #12
 8008910:	af00      	add	r7, sp, #0
 8008912:	6078      	str	r0, [r7, #4]
  UNUSED(htim);

  /* NOTE : This function should not be modified, when the callback is needed,
            the HAL_TIMEx_EncoderIndexCallback could be implemented in the user file
   */
}
 8008914:	bf00      	nop
 8008916:	370c      	adds	r7, #12
 8008918:	46bd      	mov	sp, r7
 800891a:	f85d 7b04 	ldr.w	r7, [sp], #4
 800891e:	4770      	bx	lr

08008920 <HAL_TIMEx_DirectionChangeCallback>:
  * @brief  Direction change callback in non-blocking mode
  * @param  htim TIM handle
  * @retval None
  */
__weak void HAL_TIMEx_DirectionChangeCallback(TIM_HandleTypeDef *htim)
{
 8008920:	b480      	push	{r7}
 8008922:	b083      	sub	sp, #12
 8008924:	af00      	add	r7, sp, #0
 8008926:	6078      	str	r0, [r7, #4]
  UNUSED(htim);

  /* NOTE : This function should not be modified, when the callback is needed,
            the HAL_TIMEx_DirectionChangeCallback could be implemented in the user file
   */
}
 8008928:	bf00      	nop
 800892a:	370c      	adds	r7, #12
 800892c:	46bd      	mov	sp, r7
 800892e:	f85d 7b04 	ldr.w	r7, [sp], #4
 8008932:	4770      	bx	lr

08008934 <HAL_TIMEx_IndexErrorCallback>:
  * @brief  Index error callback in non-blocking mode
  * @param  htim TIM handle
  * @retval None
  */
__weak void HAL_TIMEx_IndexErrorCallback(TIM_HandleTypeDef *htim)
{
 8008934:	b480      	push	{r7}
 8008936:	b083      	sub	sp, #12
 8008938:	af00      	add	r7, sp, #0
 800893a:	6078      	str	r0, [r7, #4]
  UNUSED(htim);

  /* NOTE : This function should not be modified, when the callback is needed,
            the HAL_TIMEx_IndexErrorCallback could be implemented in the user file
   */
}
 800893c:	bf00      	nop
 800893e:	370c      	adds	r7, #12
 8008940:	46bd      	mov	sp, r7
 8008942:	f85d 7b04 	ldr.w	r7, [sp], #4
 8008946:	4770      	bx	lr

08008948 <HAL_TIMEx_TransitionErrorCallback>:
  * @brief  Transition error callback in non-blocking mode
  * @param  htim TIM handle
  * @retval None
  */
__weak void HAL_TIMEx_TransitionErrorCallback(TIM_HandleTypeDef *htim)
{
 8008948:	b480      	push	{r7}
 800894a:	b083      	sub	sp, #12
 800894c:	af00      	add	r7, sp, #0
 800894e:	6078      	str	r0, [r7, #4]
  UNUSED(htim);

  /* NOTE : This function should not be modified, when the callback is needed,
            the HAL_TIMEx_TransitionErrorCallback could be implemented in the user file
   */
}
 8008950:	bf00      	nop
 8008952:	370c      	adds	r7, #12
 8008954:	46bd      	mov	sp, r7
 8008956:	f85d 7b04 	ldr.w	r7, [sp], #4
 800895a:	4770      	bx	lr

0800895c <memset>:
 800895c:	4402      	add	r2, r0
 800895e:	4603      	mov	r3, r0
 8008960:	4293      	cmp	r3, r2
 8008962:	d100      	bne.n	8008966 <memset+0xa>
 8008964:	4770      	bx	lr
 8008966:	f803 1b01 	strb.w	r1, [r3], #1
 800896a:	e7f9      	b.n	8008960 <memset+0x4>

0800896c <__errno>:
 800896c:	4b01      	ldr	r3, [pc, #4]	@ (8008974 <__errno+0x8>)
 800896e:	6818      	ldr	r0, [r3, #0]
 8008970:	4770      	bx	lr
 8008972:	bf00      	nop
 8008974:	20000010 	.word	0x20000010

08008978 <__libc_init_array>:
 8008978:	b570      	push	{r4, r5, r6, lr}
 800897a:	4d0d      	ldr	r5, [pc, #52]	@ (80089b0 <__libc_init_array+0x38>)
 800897c:	4c0d      	ldr	r4, [pc, #52]	@ (80089b4 <__libc_init_array+0x3c>)
 800897e:	1b64      	subs	r4, r4, r5
 8008980:	10a4      	asrs	r4, r4, #2
 8008982:	2600      	movs	r6, #0
 8008984:	42a6      	cmp	r6, r4
 8008986:	d109      	bne.n	800899c <__libc_init_array+0x24>
 8008988:	4d0b      	ldr	r5, [pc, #44]	@ (80089b8 <__libc_init_array+0x40>)
 800898a:	4c0c      	ldr	r4, [pc, #48]	@ (80089bc <__libc_init_array+0x44>)
 800898c:	f000 ff84 	bl	8009898 <_init>
 8008990:	1b64      	subs	r4, r4, r5
 8008992:	10a4      	asrs	r4, r4, #2
 8008994:	2600      	movs	r6, #0
 8008996:	42a6      	cmp	r6, r4
 8008998:	d105      	bne.n	80089a6 <__libc_init_array+0x2e>
 800899a:	bd70      	pop	{r4, r5, r6, pc}
 800899c:	f855 3b04 	ldr.w	r3, [r5], #4
 80089a0:	4798      	blx	r3
 80089a2:	3601      	adds	r6, #1
 80089a4:	e7ee      	b.n	8008984 <__libc_init_array+0xc>
 80089a6:	f855 3b04 	ldr.w	r3, [r5], #4
 80089aa:	4798      	blx	r3
 80089ac:	3601      	adds	r6, #1
 80089ae:	e7f2      	b.n	8008996 <__libc_init_array+0x1e>
 80089b0:	08009cc8 	.word	0x08009cc8
 80089b4:	08009cc8 	.word	0x08009cc8
 80089b8:	08009cc8 	.word	0x08009cc8
 80089bc:	08009ccc 	.word	0x08009ccc

080089c0 <memcpy>:
 80089c0:	440a      	add	r2, r1
 80089c2:	4291      	cmp	r1, r2
 80089c4:	f100 33ff 	add.w	r3, r0, #4294967295
 80089c8:	d100      	bne.n	80089cc <memcpy+0xc>
 80089ca:	4770      	bx	lr
 80089cc:	b510      	push	{r4, lr}
 80089ce:	f811 4b01 	ldrb.w	r4, [r1], #1
 80089d2:	f803 4f01 	strb.w	r4, [r3, #1]!
 80089d6:	4291      	cmp	r1, r2
 80089d8:	d1f9      	bne.n	80089ce <memcpy+0xe>
 80089da:	bd10      	pop	{r4, pc}

080089dc <copysignf>:
 80089dc:	ee10 2a10 	vmov	r2, s0
 80089e0:	ee10 3a90 	vmov	r3, s1
 80089e4:	f362 031e 	bfi	r3, r2, #0, #31
 80089e8:	ee00 3a90 	vmov	s1, r3
 80089ec:	eeb0 0a60 	vmov.f32	s0, s1
 80089f0:	4770      	bx	lr

080089f2 <atan2f>:
 80089f2:	f000 b993 	b.w	8008d1c <__ieee754_atan2f>
	...

080089f8 <sqrtf>:
 80089f8:	b508      	push	{r3, lr}
 80089fa:	ed2d 8b02 	vpush	{d8}
 80089fe:	eeb0 8a40 	vmov.f32	s16, s0
 8008a02:	f000 f8a1 	bl	8008b48 <__ieee754_sqrtf>
 8008a06:	eeb4 8a48 	vcmp.f32	s16, s16
 8008a0a:	eef1 fa10 	vmrs	APSR_nzcv, fpscr
 8008a0e:	d60c      	bvs.n	8008a2a <sqrtf+0x32>
 8008a10:	eddf 8a07 	vldr	s17, [pc, #28]	@ 8008a30 <sqrtf+0x38>
 8008a14:	eeb4 8ae8 	vcmpe.f32	s16, s17
 8008a18:	eef1 fa10 	vmrs	APSR_nzcv, fpscr
 8008a1c:	d505      	bpl.n	8008a2a <sqrtf+0x32>
 8008a1e:	f7ff ffa5 	bl	800896c <__errno>
 8008a22:	ee88 0aa8 	vdiv.f32	s0, s17, s17
 8008a26:	2321      	movs	r3, #33	@ 0x21
 8008a28:	6003      	str	r3, [r0, #0]
 8008a2a:	ecbd 8b02 	vpop	{d8}
 8008a2e:	bd08      	pop	{r3, pc}
 8008a30:	00000000 	.word	0x00000000

08008a34 <cosf>:
 8008a34:	ee10 3a10 	vmov	r3, s0
 8008a38:	b507      	push	{r0, r1, r2, lr}
 8008a3a:	4a1e      	ldr	r2, [pc, #120]	@ (8008ab4 <cosf+0x80>)
 8008a3c:	f023 4300 	bic.w	r3, r3, #2147483648	@ 0x80000000
 8008a40:	4293      	cmp	r3, r2
 8008a42:	d806      	bhi.n	8008a52 <cosf+0x1e>
 8008a44:	eddf 0a1c 	vldr	s1, [pc, #112]	@ 8008ab8 <cosf+0x84>
 8008a48:	b003      	add	sp, #12
 8008a4a:	f85d eb04 	ldr.w	lr, [sp], #4
 8008a4e:	f000 b8c5 	b.w	8008bdc <__kernel_cosf>
 8008a52:	f1b3 4fff 	cmp.w	r3, #2139095040	@ 0x7f800000
 8008a56:	d304      	bcc.n	8008a62 <cosf+0x2e>
 8008a58:	ee30 0a40 	vsub.f32	s0, s0, s0
 8008a5c:	b003      	add	sp, #12
 8008a5e:	f85d fb04 	ldr.w	pc, [sp], #4
 8008a62:	4668      	mov	r0, sp
 8008a64:	f000 f9fa 	bl	8008e5c <__ieee754_rem_pio2f>
 8008a68:	f000 0003 	and.w	r0, r0, #3
 8008a6c:	2801      	cmp	r0, #1
 8008a6e:	d009      	beq.n	8008a84 <cosf+0x50>
 8008a70:	2802      	cmp	r0, #2
 8008a72:	d010      	beq.n	8008a96 <cosf+0x62>
 8008a74:	b9b0      	cbnz	r0, 8008aa4 <cosf+0x70>
 8008a76:	eddd 0a01 	vldr	s1, [sp, #4]
 8008a7a:	ed9d 0a00 	vldr	s0, [sp]
 8008a7e:	f000 f8ad 	bl	8008bdc <__kernel_cosf>
 8008a82:	e7eb      	b.n	8008a5c <cosf+0x28>
 8008a84:	eddd 0a01 	vldr	s1, [sp, #4]
 8008a88:	ed9d 0a00 	vldr	s0, [sp]
 8008a8c:	f000 f8fe 	bl	8008c8c <__kernel_sinf>
 8008a90:	eeb1 0a40 	vneg.f32	s0, s0
 8008a94:	e7e2      	b.n	8008a5c <cosf+0x28>
 8008a96:	eddd 0a01 	vldr	s1, [sp, #4]
 8008a9a:	ed9d 0a00 	vldr	s0, [sp]
 8008a9e:	f000 f89d 	bl	8008bdc <__kernel_cosf>
 8008aa2:	e7f5      	b.n	8008a90 <cosf+0x5c>
 8008aa4:	eddd 0a01 	vldr	s1, [sp, #4]
 8008aa8:	ed9d 0a00 	vldr	s0, [sp]
 8008aac:	2001      	movs	r0, #1
 8008aae:	f000 f8ed 	bl	8008c8c <__kernel_sinf>
 8008ab2:	e7d3      	b.n	8008a5c <cosf+0x28>
 8008ab4:	3f490fd8 	.word	0x3f490fd8
 8008ab8:	00000000 	.word	0x00000000

08008abc <sinf>:
 8008abc:	ee10 3a10 	vmov	r3, s0
 8008ac0:	b507      	push	{r0, r1, r2, lr}
 8008ac2:	4a1f      	ldr	r2, [pc, #124]	@ (8008b40 <sinf+0x84>)
 8008ac4:	f023 4300 	bic.w	r3, r3, #2147483648	@ 0x80000000
 8008ac8:	4293      	cmp	r3, r2
 8008aca:	d807      	bhi.n	8008adc <sinf+0x20>
 8008acc:	eddf 0a1d 	vldr	s1, [pc, #116]	@ 8008b44 <sinf+0x88>
 8008ad0:	2000      	movs	r0, #0
 8008ad2:	b003      	add	sp, #12
 8008ad4:	f85d eb04 	ldr.w	lr, [sp], #4
 8008ad8:	f000 b8d8 	b.w	8008c8c <__kernel_sinf>
 8008adc:	f1b3 4fff 	cmp.w	r3, #2139095040	@ 0x7f800000
 8008ae0:	d304      	bcc.n	8008aec <sinf+0x30>
 8008ae2:	ee30 0a40 	vsub.f32	s0, s0, s0
 8008ae6:	b003      	add	sp, #12
 8008ae8:	f85d fb04 	ldr.w	pc, [sp], #4
 8008aec:	4668      	mov	r0, sp
 8008aee:	f000 f9b5 	bl	8008e5c <__ieee754_rem_pio2f>
 8008af2:	f000 0003 	and.w	r0, r0, #3
 8008af6:	2801      	cmp	r0, #1
 8008af8:	d00a      	beq.n	8008b10 <sinf+0x54>
 8008afa:	2802      	cmp	r0, #2
 8008afc:	d00f      	beq.n	8008b1e <sinf+0x62>
 8008afe:	b9c0      	cbnz	r0, 8008b32 <sinf+0x76>
 8008b00:	eddd 0a01 	vldr	s1, [sp, #4]
 8008b04:	ed9d 0a00 	vldr	s0, [sp]
 8008b08:	2001      	movs	r0, #1
 8008b0a:	f000 f8bf 	bl	8008c8c <__kernel_sinf>
 8008b0e:	e7ea      	b.n	8008ae6 <sinf+0x2a>
 8008b10:	eddd 0a01 	vldr	s1, [sp, #4]
 8008b14:	ed9d 0a00 	vldr	s0, [sp]
 8008b18:	f000 f860 	bl	8008bdc <__kernel_cosf>
 8008b1c:	e7e3      	b.n	8008ae6 <sinf+0x2a>
 8008b1e:	eddd 0a01 	vldr	s1, [sp, #4]
 8008b22:	ed9d 0a00 	vldr	s0, [sp]
 8008b26:	2001      	movs	r0, #1
 8008b28:	f000 f8b0 	bl	8008c8c <__kernel_sinf>
 8008b2c:	eeb1 0a40 	vneg.f32	s0, s0
 8008b30:	e7d9      	b.n	8008ae6 <sinf+0x2a>
 8008b32:	eddd 0a01 	vldr	s1, [sp, #4]
 8008b36:	ed9d 0a00 	vldr	s0, [sp]
 8008b3a:	f000 f84f 	bl	8008bdc <__kernel_cosf>
 8008b3e:	e7f5      	b.n	8008b2c <sinf+0x70>
 8008b40:	3f490fd8 	.word	0x3f490fd8
 8008b44:	00000000 	.word	0x00000000

08008b48 <__ieee754_sqrtf>:
 8008b48:	eeb1 0ac0 	vsqrt.f32	s0, s0
 8008b4c:	4770      	bx	lr
	...

08008b50 <round>:
 8008b50:	ec51 0b10 	vmov	r0, r1, d0
 8008b54:	b570      	push	{r4, r5, r6, lr}
 8008b56:	f3c1 540a 	ubfx	r4, r1, #20, #11
 8008b5a:	f2a4 32ff 	subw	r2, r4, #1023	@ 0x3ff
 8008b5e:	2a13      	cmp	r2, #19
 8008b60:	460b      	mov	r3, r1
 8008b62:	4605      	mov	r5, r0
 8008b64:	dc1b      	bgt.n	8008b9e <round+0x4e>
 8008b66:	2a00      	cmp	r2, #0
 8008b68:	da0b      	bge.n	8008b82 <round+0x32>
 8008b6a:	f001 4300 	and.w	r3, r1, #2147483648	@ 0x80000000
 8008b6e:	3201      	adds	r2, #1
 8008b70:	bf04      	itt	eq
 8008b72:	f043 537f 	orreq.w	r3, r3, #1069547520	@ 0x3fc00000
 8008b76:	f443 1340 	orreq.w	r3, r3, #3145728	@ 0x300000
 8008b7a:	2200      	movs	r2, #0
 8008b7c:	4619      	mov	r1, r3
 8008b7e:	4610      	mov	r0, r2
 8008b80:	e015      	b.n	8008bae <round+0x5e>
 8008b82:	4c15      	ldr	r4, [pc, #84]	@ (8008bd8 <round+0x88>)
 8008b84:	4114      	asrs	r4, r2
 8008b86:	ea04 0601 	and.w	r6, r4, r1
 8008b8a:	4306      	orrs	r6, r0
 8008b8c:	d00f      	beq.n	8008bae <round+0x5e>
 8008b8e:	f44f 2100 	mov.w	r1, #524288	@ 0x80000
 8008b92:	fa41 f202 	asr.w	r2, r1, r2
 8008b96:	4413      	add	r3, r2
 8008b98:	ea23 0304 	bic.w	r3, r3, r4
 8008b9c:	e7ed      	b.n	8008b7a <round+0x2a>
 8008b9e:	2a33      	cmp	r2, #51	@ 0x33
 8008ba0:	dd08      	ble.n	8008bb4 <round+0x64>
 8008ba2:	f5b2 6f80 	cmp.w	r2, #1024	@ 0x400
 8008ba6:	d102      	bne.n	8008bae <round+0x5e>
 8008ba8:	4602      	mov	r2, r0
 8008baa:	f7f7 fb3b 	bl	8000224 <__adddf3>
 8008bae:	ec41 0b10 	vmov	d0, r0, r1
 8008bb2:	bd70      	pop	{r4, r5, r6, pc}
 8008bb4:	f2a4 4613 	subw	r6, r4, #1043	@ 0x413
 8008bb8:	f04f 34ff 	mov.w	r4, #4294967295
 8008bbc:	40f4      	lsrs	r4, r6
 8008bbe:	4204      	tst	r4, r0
 8008bc0:	d0f5      	beq.n	8008bae <round+0x5e>
 8008bc2:	f1c2 0133 	rsb	r1, r2, #51	@ 0x33
 8008bc6:	2201      	movs	r2, #1
 8008bc8:	408a      	lsls	r2, r1
 8008bca:	1952      	adds	r2, r2, r5
 8008bcc:	bf28      	it	cs
 8008bce:	3301      	addcs	r3, #1
 8008bd0:	ea22 0204 	bic.w	r2, r2, r4
 8008bd4:	e7d2      	b.n	8008b7c <round+0x2c>
 8008bd6:	bf00      	nop
 8008bd8:	000fffff 	.word	0x000fffff

08008bdc <__kernel_cosf>:
 8008bdc:	ee10 3a10 	vmov	r3, s0
 8008be0:	f023 4300 	bic.w	r3, r3, #2147483648	@ 0x80000000
 8008be4:	f1b3 5f48 	cmp.w	r3, #838860800	@ 0x32000000
 8008be8:	eef0 6a40 	vmov.f32	s13, s0
 8008bec:	eeb7 0a00 	vmov.f32	s0, #112	@ 0x3f800000  1.0
 8008bf0:	d204      	bcs.n	8008bfc <__kernel_cosf+0x20>
 8008bf2:	eefd 7ae6 	vcvt.s32.f32	s15, s13
 8008bf6:	ee17 2a90 	vmov	r2, s15
 8008bfa:	b342      	cbz	r2, 8008c4e <__kernel_cosf+0x72>
 8008bfc:	ee26 7aa6 	vmul.f32	s14, s13, s13
 8008c00:	eddf 7a1a 	vldr	s15, [pc, #104]	@ 8008c6c <__kernel_cosf+0x90>
 8008c04:	ed9f 6a1a 	vldr	s12, [pc, #104]	@ 8008c70 <__kernel_cosf+0x94>
 8008c08:	4a1a      	ldr	r2, [pc, #104]	@ (8008c74 <__kernel_cosf+0x98>)
 8008c0a:	eea7 6a27 	vfma.f32	s12, s14, s15
 8008c0e:	4293      	cmp	r3, r2
 8008c10:	eddf 7a19 	vldr	s15, [pc, #100]	@ 8008c78 <__kernel_cosf+0x9c>
 8008c14:	eee6 7a07 	vfma.f32	s15, s12, s14
 8008c18:	ed9f 6a18 	vldr	s12, [pc, #96]	@ 8008c7c <__kernel_cosf+0xa0>
 8008c1c:	eea7 6a87 	vfma.f32	s12, s15, s14
 8008c20:	eddf 7a17 	vldr	s15, [pc, #92]	@ 8008c80 <__kernel_cosf+0xa4>
 8008c24:	eee6 7a07 	vfma.f32	s15, s12, s14
 8008c28:	ed9f 6a16 	vldr	s12, [pc, #88]	@ 8008c84 <__kernel_cosf+0xa8>
 8008c2c:	eea7 6a87 	vfma.f32	s12, s15, s14
 8008c30:	ee60 0ae6 	vnmul.f32	s1, s1, s13
 8008c34:	ee26 6a07 	vmul.f32	s12, s12, s14
 8008c38:	eef6 7a00 	vmov.f32	s15, #96	@ 0x3f000000  0.5
 8008c3c:	eee7 0a06 	vfma.f32	s1, s14, s12
 8008c40:	ee67 7a27 	vmul.f32	s15, s14, s15
 8008c44:	d804      	bhi.n	8008c50 <__kernel_cosf+0x74>
 8008c46:	ee77 7ae0 	vsub.f32	s15, s15, s1
 8008c4a:	ee30 0a67 	vsub.f32	s0, s0, s15
 8008c4e:	4770      	bx	lr
 8008c50:	4a0d      	ldr	r2, [pc, #52]	@ (8008c88 <__kernel_cosf+0xac>)
 8008c52:	4293      	cmp	r3, r2
 8008c54:	bf9a      	itte	ls
 8008c56:	f103 437f 	addls.w	r3, r3, #4278190080	@ 0xff000000
 8008c5a:	ee07 3a10 	vmovls	s14, r3
 8008c5e:	eeb5 7a02 	vmovhi.f32	s14, #82	@ 0x3e900000  0.2812500
 8008c62:	ee30 0a47 	vsub.f32	s0, s0, s14
 8008c66:	ee77 7ac7 	vsub.f32	s15, s15, s14
 8008c6a:	e7ec      	b.n	8008c46 <__kernel_cosf+0x6a>
 8008c6c:	ad47d74e 	.word	0xad47d74e
 8008c70:	310f74f6 	.word	0x310f74f6
 8008c74:	3e999999 	.word	0x3e999999
 8008c78:	b493f27c 	.word	0xb493f27c
 8008c7c:	37d00d01 	.word	0x37d00d01
 8008c80:	bab60b61 	.word	0xbab60b61
 8008c84:	3d2aaaab 	.word	0x3d2aaaab
 8008c88:	3f480000 	.word	0x3f480000

08008c8c <__kernel_sinf>:
 8008c8c:	ee10 3a10 	vmov	r3, s0
 8008c90:	f023 4300 	bic.w	r3, r3, #2147483648	@ 0x80000000
 8008c94:	f1b3 5f48 	cmp.w	r3, #838860800	@ 0x32000000
 8008c98:	d204      	bcs.n	8008ca4 <__kernel_sinf+0x18>
 8008c9a:	eefd 7ac0 	vcvt.s32.f32	s15, s0
 8008c9e:	ee17 3a90 	vmov	r3, s15
 8008ca2:	b35b      	cbz	r3, 8008cfc <__kernel_sinf+0x70>
 8008ca4:	ee20 7a00 	vmul.f32	s14, s0, s0
 8008ca8:	eddf 7a15 	vldr	s15, [pc, #84]	@ 8008d00 <__kernel_sinf+0x74>
 8008cac:	ed9f 6a15 	vldr	s12, [pc, #84]	@ 8008d04 <__kernel_sinf+0x78>
 8008cb0:	eea7 6a27 	vfma.f32	s12, s14, s15
 8008cb4:	eddf 7a14 	vldr	s15, [pc, #80]	@ 8008d08 <__kernel_sinf+0x7c>
 8008cb8:	eee6 7a07 	vfma.f32	s15, s12, s14
 8008cbc:	ed9f 6a13 	vldr	s12, [pc, #76]	@ 8008d0c <__kernel_sinf+0x80>
 8008cc0:	eea7 6a87 	vfma.f32	s12, s15, s14
 8008cc4:	eddf 7a12 	vldr	s15, [pc, #72]	@ 8008d10 <__kernel_sinf+0x84>
 8008cc8:	ee60 6a07 	vmul.f32	s13, s0, s14
 8008ccc:	eee6 7a07 	vfma.f32	s15, s12, s14
 8008cd0:	b930      	cbnz	r0, 8008ce0 <__kernel_sinf+0x54>
 8008cd2:	ed9f 6a10 	vldr	s12, [pc, #64]	@ 8008d14 <__kernel_sinf+0x88>
 8008cd6:	eea7 6a27 	vfma.f32	s12, s14, s15
 8008cda:	eea6 0a26 	vfma.f32	s0, s12, s13
 8008cde:	4770      	bx	lr
 8008ce0:	ee67 7ae6 	vnmul.f32	s15, s15, s13
 8008ce4:	eeb6 6a00 	vmov.f32	s12, #96	@ 0x3f000000  0.5
 8008ce8:	eee0 7a86 	vfma.f32	s15, s1, s12
 8008cec:	eed7 0a87 	vfnms.f32	s1, s15, s14
 8008cf0:	eddf 7a09 	vldr	s15, [pc, #36]	@ 8008d18 <__kernel_sinf+0x8c>
 8008cf4:	eee6 0aa7 	vfma.f32	s1, s13, s15
 8008cf8:	ee30 0a60 	vsub.f32	s0, s0, s1
 8008cfc:	4770      	bx	lr
 8008cfe:	bf00      	nop
 8008d00:	2f2ec9d3 	.word	0x2f2ec9d3
 8008d04:	b2d72f34 	.word	0xb2d72f34
 8008d08:	3638ef1b 	.word	0x3638ef1b
 8008d0c:	b9500d01 	.word	0xb9500d01
 8008d10:	3c088889 	.word	0x3c088889
 8008d14:	be2aaaab 	.word	0xbe2aaaab
 8008d18:	3e2aaaab 	.word	0x3e2aaaab

08008d1c <__ieee754_atan2f>:
 8008d1c:	ee10 2a90 	vmov	r2, s1
 8008d20:	f022 4100 	bic.w	r1, r2, #2147483648	@ 0x80000000
 8008d24:	f1b1 4fff 	cmp.w	r1, #2139095040	@ 0x7f800000
 8008d28:	b510      	push	{r4, lr}
 8008d2a:	eef0 7a40 	vmov.f32	s15, s0
 8008d2e:	d806      	bhi.n	8008d3e <__ieee754_atan2f+0x22>
 8008d30:	ee10 0a10 	vmov	r0, s0
 8008d34:	f020 4300 	bic.w	r3, r0, #2147483648	@ 0x80000000
 8008d38:	f1b3 4fff 	cmp.w	r3, #2139095040	@ 0x7f800000
 8008d3c:	d904      	bls.n	8008d48 <__ieee754_atan2f+0x2c>
 8008d3e:	ee77 7aa0 	vadd.f32	s15, s15, s1
 8008d42:	eeb0 0a67 	vmov.f32	s0, s15
 8008d46:	bd10      	pop	{r4, pc}
 8008d48:	f1b2 5f7e 	cmp.w	r2, #1065353216	@ 0x3f800000
 8008d4c:	d103      	bne.n	8008d56 <__ieee754_atan2f+0x3a>
 8008d4e:	e8bd 4010 	ldmia.w	sp!, {r4, lr}
 8008d52:	f000 b9b3 	b.w	80090bc <atanf>
 8008d56:	1794      	asrs	r4, r2, #30
 8008d58:	f004 0402 	and.w	r4, r4, #2
 8008d5c:	ea44 74d0 	orr.w	r4, r4, r0, lsr #31
 8008d60:	b943      	cbnz	r3, 8008d74 <__ieee754_atan2f+0x58>
 8008d62:	2c02      	cmp	r4, #2
 8008d64:	d05e      	beq.n	8008e24 <__ieee754_atan2f+0x108>
 8008d66:	ed9f 7a34 	vldr	s14, [pc, #208]	@ 8008e38 <__ieee754_atan2f+0x11c>
 8008d6a:	2c03      	cmp	r4, #3
 8008d6c:	bf08      	it	eq
 8008d6e:	eef0 7a47 	vmoveq.f32	s15, s14
 8008d72:	e7e6      	b.n	8008d42 <__ieee754_atan2f+0x26>
 8008d74:	b941      	cbnz	r1, 8008d88 <__ieee754_atan2f+0x6c>
 8008d76:	eddf 7a31 	vldr	s15, [pc, #196]	@ 8008e3c <__ieee754_atan2f+0x120>
 8008d7a:	ed9f 7a31 	vldr	s14, [pc, #196]	@ 8008e40 <__ieee754_atan2f+0x124>
 8008d7e:	2800      	cmp	r0, #0
 8008d80:	bfa8      	it	ge
 8008d82:	eef0 7a47 	vmovge.f32	s15, s14
 8008d86:	e7dc      	b.n	8008d42 <__ieee754_atan2f+0x26>
 8008d88:	f1b1 4fff 	cmp.w	r1, #2139095040	@ 0x7f800000
 8008d8c:	d110      	bne.n	8008db0 <__ieee754_atan2f+0x94>
 8008d8e:	f1b3 4fff 	cmp.w	r3, #2139095040	@ 0x7f800000
 8008d92:	f104 34ff 	add.w	r4, r4, #4294967295
 8008d96:	d107      	bne.n	8008da8 <__ieee754_atan2f+0x8c>
 8008d98:	2c02      	cmp	r4, #2
 8008d9a:	d846      	bhi.n	8008e2a <__ieee754_atan2f+0x10e>
 8008d9c:	4b29      	ldr	r3, [pc, #164]	@ (8008e44 <__ieee754_atan2f+0x128>)
 8008d9e:	eb03 0384 	add.w	r3, r3, r4, lsl #2
 8008da2:	edd3 7a00 	vldr	s15, [r3]
 8008da6:	e7cc      	b.n	8008d42 <__ieee754_atan2f+0x26>
 8008da8:	2c02      	cmp	r4, #2
 8008daa:	d841      	bhi.n	8008e30 <__ieee754_atan2f+0x114>
 8008dac:	4b26      	ldr	r3, [pc, #152]	@ (8008e48 <__ieee754_atan2f+0x12c>)
 8008dae:	e7f6      	b.n	8008d9e <__ieee754_atan2f+0x82>
 8008db0:	f1b3 4fff 	cmp.w	r3, #2139095040	@ 0x7f800000
 8008db4:	d0df      	beq.n	8008d76 <__ieee754_atan2f+0x5a>
 8008db6:	1a5b      	subs	r3, r3, r1
 8008db8:	f1b3 5ff4 	cmp.w	r3, #511705088	@ 0x1e800000
 8008dbc:	ea4f 51e3 	mov.w	r1, r3, asr #23
 8008dc0:	da1a      	bge.n	8008df8 <__ieee754_atan2f+0xdc>
 8008dc2:	2a00      	cmp	r2, #0
 8008dc4:	da01      	bge.n	8008dca <__ieee754_atan2f+0xae>
 8008dc6:	313c      	adds	r1, #60	@ 0x3c
 8008dc8:	db19      	blt.n	8008dfe <__ieee754_atan2f+0xe2>
 8008dca:	ee87 0aa0 	vdiv.f32	s0, s15, s1
 8008dce:	f000 fa49 	bl	8009264 <fabsf>
 8008dd2:	f000 f973 	bl	80090bc <atanf>
 8008dd6:	eef0 7a40 	vmov.f32	s15, s0
 8008dda:	2c01      	cmp	r4, #1
 8008ddc:	d012      	beq.n	8008e04 <__ieee754_atan2f+0xe8>
 8008dde:	2c02      	cmp	r4, #2
 8008de0:	d017      	beq.n	8008e12 <__ieee754_atan2f+0xf6>
 8008de2:	2c00      	cmp	r4, #0
 8008de4:	d0ad      	beq.n	8008d42 <__ieee754_atan2f+0x26>
 8008de6:	ed9f 7a19 	vldr	s14, [pc, #100]	@ 8008e4c <__ieee754_atan2f+0x130>
 8008dea:	ee77 7a87 	vadd.f32	s15, s15, s14
 8008dee:	ed9f 7a18 	vldr	s14, [pc, #96]	@ 8008e50 <__ieee754_atan2f+0x134>
 8008df2:	ee77 7ac7 	vsub.f32	s15, s15, s14
 8008df6:	e7a4      	b.n	8008d42 <__ieee754_atan2f+0x26>
 8008df8:	eddf 7a11 	vldr	s15, [pc, #68]	@ 8008e40 <__ieee754_atan2f+0x124>
 8008dfc:	e7ed      	b.n	8008dda <__ieee754_atan2f+0xbe>
 8008dfe:	eddf 7a15 	vldr	s15, [pc, #84]	@ 8008e54 <__ieee754_atan2f+0x138>
 8008e02:	e7ea      	b.n	8008dda <__ieee754_atan2f+0xbe>
 8008e04:	ee17 3a90 	vmov	r3, s15
 8008e08:	f103 4300 	add.w	r3, r3, #2147483648	@ 0x80000000
 8008e0c:	ee07 3a90 	vmov	s15, r3
 8008e10:	e797      	b.n	8008d42 <__ieee754_atan2f+0x26>
 8008e12:	ed9f 7a0e 	vldr	s14, [pc, #56]	@ 8008e4c <__ieee754_atan2f+0x130>
 8008e16:	ee77 7a87 	vadd.f32	s15, s15, s14
 8008e1a:	ed9f 7a0d 	vldr	s14, [pc, #52]	@ 8008e50 <__ieee754_atan2f+0x134>
 8008e1e:	ee77 7a67 	vsub.f32	s15, s14, s15
 8008e22:	e78e      	b.n	8008d42 <__ieee754_atan2f+0x26>
 8008e24:	eddf 7a0a 	vldr	s15, [pc, #40]	@ 8008e50 <__ieee754_atan2f+0x134>
 8008e28:	e78b      	b.n	8008d42 <__ieee754_atan2f+0x26>
 8008e2a:	eddf 7a0b 	vldr	s15, [pc, #44]	@ 8008e58 <__ieee754_atan2f+0x13c>
 8008e2e:	e788      	b.n	8008d42 <__ieee754_atan2f+0x26>
 8008e30:	eddf 7a08 	vldr	s15, [pc, #32]	@ 8008e54 <__ieee754_atan2f+0x138>
 8008e34:	e785      	b.n	8008d42 <__ieee754_atan2f+0x26>
 8008e36:	bf00      	nop
 8008e38:	c0490fdb 	.word	0xc0490fdb
 8008e3c:	bfc90fdb 	.word	0xbfc90fdb
 8008e40:	3fc90fdb 	.word	0x3fc90fdb
 8008e44:	080098cc 	.word	0x080098cc
 8008e48:	080098c0 	.word	0x080098c0
 8008e4c:	33bbbd2e 	.word	0x33bbbd2e
 8008e50:	40490fdb 	.word	0x40490fdb
 8008e54:	00000000 	.word	0x00000000
 8008e58:	3f490fdb 	.word	0x3f490fdb

08008e5c <__ieee754_rem_pio2f>:
 8008e5c:	b5f0      	push	{r4, r5, r6, r7, lr}
 8008e5e:	ee10 6a10 	vmov	r6, s0
 8008e62:	4b88      	ldr	r3, [pc, #544]	@ (8009084 <__ieee754_rem_pio2f+0x228>)
 8008e64:	f026 4500 	bic.w	r5, r6, #2147483648	@ 0x80000000
 8008e68:	429d      	cmp	r5, r3
 8008e6a:	b087      	sub	sp, #28
 8008e6c:	4604      	mov	r4, r0
 8008e6e:	d805      	bhi.n	8008e7c <__ieee754_rem_pio2f+0x20>
 8008e70:	2300      	movs	r3, #0
 8008e72:	ed80 0a00 	vstr	s0, [r0]
 8008e76:	6043      	str	r3, [r0, #4]
 8008e78:	2000      	movs	r0, #0
 8008e7a:	e022      	b.n	8008ec2 <__ieee754_rem_pio2f+0x66>
 8008e7c:	4b82      	ldr	r3, [pc, #520]	@ (8009088 <__ieee754_rem_pio2f+0x22c>)
 8008e7e:	429d      	cmp	r5, r3
 8008e80:	d83a      	bhi.n	8008ef8 <__ieee754_rem_pio2f+0x9c>
 8008e82:	f026 4300 	bic.w	r3, r6, #2147483648	@ 0x80000000
 8008e86:	2e00      	cmp	r6, #0
 8008e88:	ed9f 7a80 	vldr	s14, [pc, #512]	@ 800908c <__ieee754_rem_pio2f+0x230>
 8008e8c:	4a80      	ldr	r2, [pc, #512]	@ (8009090 <__ieee754_rem_pio2f+0x234>)
 8008e8e:	f023 030f 	bic.w	r3, r3, #15
 8008e92:	dd18      	ble.n	8008ec6 <__ieee754_rem_pio2f+0x6a>
 8008e94:	4293      	cmp	r3, r2
 8008e96:	ee70 7a47 	vsub.f32	s15, s0, s14
 8008e9a:	bf09      	itett	eq
 8008e9c:	ed9f 7a7d 	vldreq	s14, [pc, #500]	@ 8009094 <__ieee754_rem_pio2f+0x238>
 8008ea0:	eddf 6a7d 	vldrne	s13, [pc, #500]	@ 8009098 <__ieee754_rem_pio2f+0x23c>
 8008ea4:	eddf 6a7d 	vldreq	s13, [pc, #500]	@ 800909c <__ieee754_rem_pio2f+0x240>
 8008ea8:	ee77 7ac7 	vsubeq.f32	s15, s15, s14
 8008eac:	ee37 7ae6 	vsub.f32	s14, s15, s13
 8008eb0:	ee77 7ac7 	vsub.f32	s15, s15, s14
 8008eb4:	ed80 7a00 	vstr	s14, [r0]
 8008eb8:	ee77 7ae6 	vsub.f32	s15, s15, s13
 8008ebc:	edc0 7a01 	vstr	s15, [r0, #4]
 8008ec0:	2001      	movs	r0, #1
 8008ec2:	b007      	add	sp, #28
 8008ec4:	bdf0      	pop	{r4, r5, r6, r7, pc}
 8008ec6:	4293      	cmp	r3, r2
 8008ec8:	ee70 7a07 	vadd.f32	s15, s0, s14
 8008ecc:	bf09      	itett	eq
 8008ece:	ed9f 7a71 	vldreq	s14, [pc, #452]	@ 8009094 <__ieee754_rem_pio2f+0x238>
 8008ed2:	eddf 6a71 	vldrne	s13, [pc, #452]	@ 8009098 <__ieee754_rem_pio2f+0x23c>
 8008ed6:	eddf 6a71 	vldreq	s13, [pc, #452]	@ 800909c <__ieee754_rem_pio2f+0x240>
 8008eda:	ee77 7a87 	vaddeq.f32	s15, s15, s14
 8008ede:	ee37 7aa6 	vadd.f32	s14, s15, s13
 8008ee2:	ee77 7ac7 	vsub.f32	s15, s15, s14
 8008ee6:	ed80 7a00 	vstr	s14, [r0]
 8008eea:	ee77 7aa6 	vadd.f32	s15, s15, s13
 8008eee:	edc0 7a01 	vstr	s15, [r0, #4]
 8008ef2:	f04f 30ff 	mov.w	r0, #4294967295
 8008ef6:	e7e4      	b.n	8008ec2 <__ieee754_rem_pio2f+0x66>
 8008ef8:	4b69      	ldr	r3, [pc, #420]	@ (80090a0 <__ieee754_rem_pio2f+0x244>)
 8008efa:	429d      	cmp	r5, r3
 8008efc:	d873      	bhi.n	8008fe6 <__ieee754_rem_pio2f+0x18a>
 8008efe:	f000 f9b1 	bl	8009264 <fabsf>
 8008f02:	ed9f 7a68 	vldr	s14, [pc, #416]	@ 80090a4 <__ieee754_rem_pio2f+0x248>
 8008f06:	eef6 7a00 	vmov.f32	s15, #96	@ 0x3f000000  0.5
 8008f0a:	eee0 7a07 	vfma.f32	s15, s0, s14
 8008f0e:	eefd 7ae7 	vcvt.s32.f32	s15, s15
 8008f12:	eeb8 7ae7 	vcvt.f32.s32	s14, s15
 8008f16:	ee17 0a90 	vmov	r0, s15
 8008f1a:	eddf 7a5c 	vldr	s15, [pc, #368]	@ 800908c <__ieee754_rem_pio2f+0x230>
 8008f1e:	eea7 0a67 	vfms.f32	s0, s14, s15
 8008f22:	281f      	cmp	r0, #31
 8008f24:	eddf 7a5c 	vldr	s15, [pc, #368]	@ 8009098 <__ieee754_rem_pio2f+0x23c>
 8008f28:	ee67 7a27 	vmul.f32	s15, s14, s15
 8008f2c:	eeb1 6a47 	vneg.f32	s12, s14
 8008f30:	ee70 6a67 	vsub.f32	s13, s0, s15
 8008f34:	ee16 1a90 	vmov	r1, s13
 8008f38:	dc09      	bgt.n	8008f4e <__ieee754_rem_pio2f+0xf2>
 8008f3a:	4a5b      	ldr	r2, [pc, #364]	@ (80090a8 <__ieee754_rem_pio2f+0x24c>)
 8008f3c:	1e47      	subs	r7, r0, #1
 8008f3e:	f026 4300 	bic.w	r3, r6, #2147483648	@ 0x80000000
 8008f42:	f852 2027 	ldr.w	r2, [r2, r7, lsl #2]
 8008f46:	f023 03ff 	bic.w	r3, r3, #255	@ 0xff
 8008f4a:	4293      	cmp	r3, r2
 8008f4c:	d107      	bne.n	8008f5e <__ieee754_rem_pio2f+0x102>
 8008f4e:	f3c1 52c7 	ubfx	r2, r1, #23, #8
 8008f52:	ebc2 52d5 	rsb	r2, r2, r5, lsr #23
 8008f56:	2a08      	cmp	r2, #8
 8008f58:	ea4f 53e5 	mov.w	r3, r5, asr #23
 8008f5c:	dc14      	bgt.n	8008f88 <__ieee754_rem_pio2f+0x12c>
 8008f5e:	6021      	str	r1, [r4, #0]
 8008f60:	ed94 7a00 	vldr	s14, [r4]
 8008f64:	ee30 0a47 	vsub.f32	s0, s0, s14
 8008f68:	2e00      	cmp	r6, #0
 8008f6a:	ee30 0a67 	vsub.f32	s0, s0, s15
 8008f6e:	ed84 0a01 	vstr	s0, [r4, #4]
 8008f72:	daa6      	bge.n	8008ec2 <__ieee754_rem_pio2f+0x66>
 8008f74:	eeb1 7a47 	vneg.f32	s14, s14
 8008f78:	eeb1 0a40 	vneg.f32	s0, s0
 8008f7c:	ed84 7a00 	vstr	s14, [r4]
 8008f80:	ed84 0a01 	vstr	s0, [r4, #4]
 8008f84:	4240      	negs	r0, r0
 8008f86:	e79c      	b.n	8008ec2 <__ieee754_rem_pio2f+0x66>
 8008f88:	eddf 5a42 	vldr	s11, [pc, #264]	@ 8009094 <__ieee754_rem_pio2f+0x238>
 8008f8c:	eef0 6a40 	vmov.f32	s13, s0
 8008f90:	eee6 6a25 	vfma.f32	s13, s12, s11
 8008f94:	ee70 7a66 	vsub.f32	s15, s0, s13
 8008f98:	eee6 7a25 	vfma.f32	s15, s12, s11
 8008f9c:	eddf 5a3f 	vldr	s11, [pc, #252]	@ 800909c <__ieee754_rem_pio2f+0x240>
 8008fa0:	eed7 7a25 	vfnms.f32	s15, s14, s11
 8008fa4:	ee76 5ae7 	vsub.f32	s11, s13, s15
 8008fa8:	ee15 2a90 	vmov	r2, s11
 8008fac:	f3c2 51c7 	ubfx	r1, r2, #23, #8
 8008fb0:	1a5b      	subs	r3, r3, r1
 8008fb2:	2b19      	cmp	r3, #25
 8008fb4:	dc04      	bgt.n	8008fc0 <__ieee754_rem_pio2f+0x164>
 8008fb6:	edc4 5a00 	vstr	s11, [r4]
 8008fba:	eeb0 0a66 	vmov.f32	s0, s13
 8008fbe:	e7cf      	b.n	8008f60 <__ieee754_rem_pio2f+0x104>
 8008fc0:	eddf 5a3a 	vldr	s11, [pc, #232]	@ 80090ac <__ieee754_rem_pio2f+0x250>
 8008fc4:	eeb0 0a66 	vmov.f32	s0, s13
 8008fc8:	eea6 0a25 	vfma.f32	s0, s12, s11
 8008fcc:	ee76 7ac0 	vsub.f32	s15, s13, s0
 8008fd0:	eddf 6a37 	vldr	s13, [pc, #220]	@ 80090b0 <__ieee754_rem_pio2f+0x254>
 8008fd4:	eee6 7a25 	vfma.f32	s15, s12, s11
 8008fd8:	eed7 7a26 	vfnms.f32	s15, s14, s13
 8008fdc:	ee30 7a67 	vsub.f32	s14, s0, s15
 8008fe0:	ed84 7a00 	vstr	s14, [r4]
 8008fe4:	e7bc      	b.n	8008f60 <__ieee754_rem_pio2f+0x104>
 8008fe6:	f1b5 4fff 	cmp.w	r5, #2139095040	@ 0x7f800000
 8008fea:	d306      	bcc.n	8008ffa <__ieee754_rem_pio2f+0x19e>
 8008fec:	ee70 7a40 	vsub.f32	s15, s0, s0
 8008ff0:	edc0 7a01 	vstr	s15, [r0, #4]
 8008ff4:	edc0 7a00 	vstr	s15, [r0]
 8008ff8:	e73e      	b.n	8008e78 <__ieee754_rem_pio2f+0x1c>
 8008ffa:	15ea      	asrs	r2, r5, #23
 8008ffc:	3a86      	subs	r2, #134	@ 0x86
 8008ffe:	eba5 53c2 	sub.w	r3, r5, r2, lsl #23
 8009002:	ee07 3a90 	vmov	s15, r3
 8009006:	eebd 7ae7 	vcvt.s32.f32	s14, s15
 800900a:	eddf 6a2a 	vldr	s13, [pc, #168]	@ 80090b4 <__ieee754_rem_pio2f+0x258>
 800900e:	eeb8 7ac7 	vcvt.f32.s32	s14, s14
 8009012:	ee77 7ac7 	vsub.f32	s15, s15, s14
 8009016:	ed8d 7a03 	vstr	s14, [sp, #12]
 800901a:	ee67 7aa6 	vmul.f32	s15, s15, s13
 800901e:	eebd 7ae7 	vcvt.s32.f32	s14, s15
 8009022:	eeb8 7ac7 	vcvt.f32.s32	s14, s14
 8009026:	ee77 7ac7 	vsub.f32	s15, s15, s14
 800902a:	ed8d 7a04 	vstr	s14, [sp, #16]
 800902e:	ee67 7aa6 	vmul.f32	s15, s15, s13
 8009032:	eef5 7a40 	vcmp.f32	s15, #0.0
 8009036:	eef1 fa10 	vmrs	APSR_nzcv, fpscr
 800903a:	edcd 7a05 	vstr	s15, [sp, #20]
 800903e:	d11e      	bne.n	800907e <__ieee754_rem_pio2f+0x222>
 8009040:	eeb5 7a40 	vcmp.f32	s14, #0.0
 8009044:	eef1 fa10 	vmrs	APSR_nzcv, fpscr
 8009048:	bf0c      	ite	eq
 800904a:	2301      	moveq	r3, #1
 800904c:	2302      	movne	r3, #2
 800904e:	491a      	ldr	r1, [pc, #104]	@ (80090b8 <__ieee754_rem_pio2f+0x25c>)
 8009050:	9101      	str	r1, [sp, #4]
 8009052:	2102      	movs	r1, #2
 8009054:	9100      	str	r1, [sp, #0]
 8009056:	a803      	add	r0, sp, #12
 8009058:	4621      	mov	r1, r4
 800905a:	f000 f90b 	bl	8009274 <__kernel_rem_pio2f>
 800905e:	2e00      	cmp	r6, #0
 8009060:	f6bf af2f 	bge.w	8008ec2 <__ieee754_rem_pio2f+0x66>
 8009064:	edd4 7a00 	vldr	s15, [r4]
 8009068:	eef1 7a67 	vneg.f32	s15, s15
 800906c:	edc4 7a00 	vstr	s15, [r4]
 8009070:	edd4 7a01 	vldr	s15, [r4, #4]
 8009074:	eef1 7a67 	vneg.f32	s15, s15
 8009078:	edc4 7a01 	vstr	s15, [r4, #4]
 800907c:	e782      	b.n	8008f84 <__ieee754_rem_pio2f+0x128>
 800907e:	2303      	movs	r3, #3
 8009080:	e7e5      	b.n	800904e <__ieee754_rem_pio2f+0x1f2>
 8009082:	bf00      	nop
 8009084:	3f490fd8 	.word	0x3f490fd8
 8009088:	4016cbe3 	.word	0x4016cbe3
 800908c:	3fc90f80 	.word	0x3fc90f80
 8009090:	3fc90fd0 	.word	0x3fc90fd0
 8009094:	37354400 	.word	0x37354400
 8009098:	37354443 	.word	0x37354443
 800909c:	2e85a308 	.word	0x2e85a308
 80090a0:	43490f80 	.word	0x43490f80
 80090a4:	3f22f984 	.word	0x3f22f984
 80090a8:	080098d8 	.word	0x080098d8
 80090ac:	2e85a300 	.word	0x2e85a300
 80090b0:	248d3132 	.word	0x248d3132
 80090b4:	43800000 	.word	0x43800000
 80090b8:	08009958 	.word	0x08009958

080090bc <atanf>:
 80090bc:	b538      	push	{r3, r4, r5, lr}
 80090be:	ee10 5a10 	vmov	r5, s0
 80090c2:	f025 4400 	bic.w	r4, r5, #2147483648	@ 0x80000000
 80090c6:	f1b4 4fa1 	cmp.w	r4, #1350565888	@ 0x50800000
 80090ca:	eef0 7a40 	vmov.f32	s15, s0
 80090ce:	d310      	bcc.n	80090f2 <atanf+0x36>
 80090d0:	f1b4 4fff 	cmp.w	r4, #2139095040	@ 0x7f800000
 80090d4:	d904      	bls.n	80090e0 <atanf+0x24>
 80090d6:	ee70 7a00 	vadd.f32	s15, s0, s0
 80090da:	eeb0 0a67 	vmov.f32	s0, s15
 80090de:	bd38      	pop	{r3, r4, r5, pc}
 80090e0:	eddf 7a4d 	vldr	s15, [pc, #308]	@ 8009218 <atanf+0x15c>
 80090e4:	ed9f 7a4d 	vldr	s14, [pc, #308]	@ 800921c <atanf+0x160>
 80090e8:	2d00      	cmp	r5, #0
 80090ea:	bfc8      	it	gt
 80090ec:	eef0 7a47 	vmovgt.f32	s15, s14
 80090f0:	e7f3      	b.n	80090da <atanf+0x1e>
 80090f2:	4b4b      	ldr	r3, [pc, #300]	@ (8009220 <atanf+0x164>)
 80090f4:	429c      	cmp	r4, r3
 80090f6:	d810      	bhi.n	800911a <atanf+0x5e>
 80090f8:	f1b4 5f44 	cmp.w	r4, #822083584	@ 0x31000000
 80090fc:	d20a      	bcs.n	8009114 <atanf+0x58>
 80090fe:	ed9f 7a49 	vldr	s14, [pc, #292]	@ 8009224 <atanf+0x168>
 8009102:	ee30 7a07 	vadd.f32	s14, s0, s14
 8009106:	eef7 6a00 	vmov.f32	s13, #112	@ 0x3f800000  1.0
 800910a:	eeb4 7ae6 	vcmpe.f32	s14, s13
 800910e:	eef1 fa10 	vmrs	APSR_nzcv, fpscr
 8009112:	dce2      	bgt.n	80090da <atanf+0x1e>
 8009114:	f04f 33ff 	mov.w	r3, #4294967295
 8009118:	e013      	b.n	8009142 <atanf+0x86>
 800911a:	f000 f8a3 	bl	8009264 <fabsf>
 800911e:	4b42      	ldr	r3, [pc, #264]	@ (8009228 <atanf+0x16c>)
 8009120:	429c      	cmp	r4, r3
 8009122:	d84f      	bhi.n	80091c4 <atanf+0x108>
 8009124:	f5a3 03d0 	sub.w	r3, r3, #6815744	@ 0x680000
 8009128:	429c      	cmp	r4, r3
 800912a:	d841      	bhi.n	80091b0 <atanf+0xf4>
 800912c:	eef0 7a00 	vmov.f32	s15, #0	@ 0x40000000  2.0
 8009130:	eebf 7a00 	vmov.f32	s14, #240	@ 0xbf800000 -1.0
 8009134:	eea0 7a27 	vfma.f32	s14, s0, s15
 8009138:	2300      	movs	r3, #0
 800913a:	ee30 0a27 	vadd.f32	s0, s0, s15
 800913e:	eec7 7a00 	vdiv.f32	s15, s14, s0
 8009142:	1c5a      	adds	r2, r3, #1
 8009144:	ee27 6aa7 	vmul.f32	s12, s15, s15
 8009148:	ed9f 7a38 	vldr	s14, [pc, #224]	@ 800922c <atanf+0x170>
 800914c:	eddf 5a38 	vldr	s11, [pc, #224]	@ 8009230 <atanf+0x174>
 8009150:	ed9f 5a38 	vldr	s10, [pc, #224]	@ 8009234 <atanf+0x178>
 8009154:	ee66 6a06 	vmul.f32	s13, s12, s12
 8009158:	eee6 5a87 	vfma.f32	s11, s13, s14
 800915c:	ed9f 7a36 	vldr	s14, [pc, #216]	@ 8009238 <atanf+0x17c>
 8009160:	eea5 7aa6 	vfma.f32	s14, s11, s13
 8009164:	eddf 5a35 	vldr	s11, [pc, #212]	@ 800923c <atanf+0x180>
 8009168:	eee7 5a26 	vfma.f32	s11, s14, s13
 800916c:	ed9f 7a34 	vldr	s14, [pc, #208]	@ 8009240 <atanf+0x184>
 8009170:	eea5 7aa6 	vfma.f32	s14, s11, s13
 8009174:	eddf 5a33 	vldr	s11, [pc, #204]	@ 8009244 <atanf+0x188>
 8009178:	eee7 5a26 	vfma.f32	s11, s14, s13
 800917c:	ed9f 7a32 	vldr	s14, [pc, #200]	@ 8009248 <atanf+0x18c>
 8009180:	eea6 5a87 	vfma.f32	s10, s13, s14
 8009184:	ed9f 7a31 	vldr	s14, [pc, #196]	@ 800924c <atanf+0x190>
 8009188:	eea5 7a26 	vfma.f32	s14, s10, s13
 800918c:	ed9f 5a30 	vldr	s10, [pc, #192]	@ 8009250 <atanf+0x194>
 8009190:	eea7 5a26 	vfma.f32	s10, s14, s13
 8009194:	ed9f 7a2f 	vldr	s14, [pc, #188]	@ 8009254 <atanf+0x198>
 8009198:	eea5 7a26 	vfma.f32	s14, s10, s13
 800919c:	ee27 7a26 	vmul.f32	s14, s14, s13
 80091a0:	eea5 7a86 	vfma.f32	s14, s11, s12
 80091a4:	ee27 7a87 	vmul.f32	s14, s15, s14
 80091a8:	d121      	bne.n	80091ee <atanf+0x132>
 80091aa:	ee77 7ac7 	vsub.f32	s15, s15, s14
 80091ae:	e794      	b.n	80090da <atanf+0x1e>
 80091b0:	eef7 7a00 	vmov.f32	s15, #112	@ 0x3f800000  1.0
 80091b4:	ee30 7a67 	vsub.f32	s14, s0, s15
 80091b8:	ee30 0a27 	vadd.f32	s0, s0, s15
 80091bc:	2301      	movs	r3, #1
 80091be:	eec7 7a00 	vdiv.f32	s15, s14, s0
 80091c2:	e7be      	b.n	8009142 <atanf+0x86>
 80091c4:	4b24      	ldr	r3, [pc, #144]	@ (8009258 <atanf+0x19c>)
 80091c6:	429c      	cmp	r4, r3
 80091c8:	d80b      	bhi.n	80091e2 <atanf+0x126>
 80091ca:	eef7 7a08 	vmov.f32	s15, #120	@ 0x3fc00000  1.5
 80091ce:	eeb7 7a00 	vmov.f32	s14, #112	@ 0x3f800000  1.0
 80091d2:	eea0 7a27 	vfma.f32	s14, s0, s15
 80091d6:	2302      	movs	r3, #2
 80091d8:	ee70 6a67 	vsub.f32	s13, s0, s15
 80091dc:	eec6 7a87 	vdiv.f32	s15, s13, s14
 80091e0:	e7af      	b.n	8009142 <atanf+0x86>
 80091e2:	eebf 7a00 	vmov.f32	s14, #240	@ 0xbf800000 -1.0
 80091e6:	eec7 7a00 	vdiv.f32	s15, s14, s0
 80091ea:	2303      	movs	r3, #3
 80091ec:	e7a9      	b.n	8009142 <atanf+0x86>
 80091ee:	4a1b      	ldr	r2, [pc, #108]	@ (800925c <atanf+0x1a0>)
 80091f0:	491b      	ldr	r1, [pc, #108]	@ (8009260 <atanf+0x1a4>)
 80091f2:	eb02 0283 	add.w	r2, r2, r3, lsl #2
 80091f6:	eb01 0383 	add.w	r3, r1, r3, lsl #2
 80091fa:	edd3 6a00 	vldr	s13, [r3]
 80091fe:	ee37 7a66 	vsub.f32	s14, s14, s13
 8009202:	2d00      	cmp	r5, #0
 8009204:	ee37 7a67 	vsub.f32	s14, s14, s15
 8009208:	edd2 7a00 	vldr	s15, [r2]
 800920c:	ee77 7ac7 	vsub.f32	s15, s15, s14
 8009210:	bfb8      	it	lt
 8009212:	eef1 7a67 	vneglt.f32	s15, s15
 8009216:	e760      	b.n	80090da <atanf+0x1e>
 8009218:	bfc90fdb 	.word	0xbfc90fdb
 800921c:	3fc90fdb 	.word	0x3fc90fdb
 8009220:	3edfffff 	.word	0x3edfffff
 8009224:	7149f2ca 	.word	0x7149f2ca
 8009228:	3f97ffff 	.word	0x3f97ffff
 800922c:	3c8569d7 	.word	0x3c8569d7
 8009230:	3d4bda59 	.word	0x3d4bda59
 8009234:	bd6ef16b 	.word	0xbd6ef16b
 8009238:	3d886b35 	.word	0x3d886b35
 800923c:	3dba2e6e 	.word	0x3dba2e6e
 8009240:	3e124925 	.word	0x3e124925
 8009244:	3eaaaaab 	.word	0x3eaaaaab
 8009248:	bd15a221 	.word	0xbd15a221
 800924c:	bd9d8795 	.word	0xbd9d8795
 8009250:	bde38e38 	.word	0xbde38e38
 8009254:	be4ccccd 	.word	0xbe4ccccd
 8009258:	401bffff 	.word	0x401bffff
 800925c:	08009c80 	.word	0x08009c80
 8009260:	08009c70 	.word	0x08009c70

08009264 <fabsf>:
 8009264:	ee10 3a10 	vmov	r3, s0
 8009268:	f023 4300 	bic.w	r3, r3, #2147483648	@ 0x80000000
 800926c:	ee00 3a10 	vmov	s0, r3
 8009270:	4770      	bx	lr
	...

08009274 <__kernel_rem_pio2f>:
 8009274:	e92d 4ff0 	stmdb	sp!, {r4, r5, r6, r7, r8, r9, sl, fp, lr}
 8009278:	ed2d 8b04 	vpush	{d8-d9}
 800927c:	b0d9      	sub	sp, #356	@ 0x164
 800927e:	4690      	mov	r8, r2
 8009280:	9001      	str	r0, [sp, #4]
 8009282:	4ab6      	ldr	r2, [pc, #728]	@ (800955c <__kernel_rem_pio2f+0x2e8>)
 8009284:	9866      	ldr	r0, [sp, #408]	@ 0x198
 8009286:	f118 0f04 	cmn.w	r8, #4
 800928a:	f852 a020 	ldr.w	sl, [r2, r0, lsl #2]
 800928e:	460f      	mov	r7, r1
 8009290:	f103 3bff 	add.w	fp, r3, #4294967295
 8009294:	db26      	blt.n	80092e4 <__kernel_rem_pio2f+0x70>
 8009296:	f1b8 0203 	subs.w	r2, r8, #3
 800929a:	bf48      	it	mi
 800929c:	f108 0204 	addmi.w	r2, r8, #4
 80092a0:	10d2      	asrs	r2, r2, #3
 80092a2:	1c55      	adds	r5, r2, #1
 80092a4:	9967      	ldr	r1, [sp, #412]	@ 0x19c
 80092a6:	ed9f 7ab1 	vldr	s14, [pc, #708]	@ 800956c <__kernel_rem_pio2f+0x2f8>
 80092aa:	00e8      	lsls	r0, r5, #3
 80092ac:	eba2 060b 	sub.w	r6, r2, fp
 80092b0:	9002      	str	r0, [sp, #8]
 80092b2:	eba8 05c5 	sub.w	r5, r8, r5, lsl #3
 80092b6:	eb0a 0c0b 	add.w	ip, sl, fp
 80092ba:	ac1c      	add	r4, sp, #112	@ 0x70
 80092bc:	eb01 0e86 	add.w	lr, r1, r6, lsl #2
 80092c0:	2000      	movs	r0, #0
 80092c2:	4560      	cmp	r0, ip
 80092c4:	dd10      	ble.n	80092e8 <__kernel_rem_pio2f+0x74>
 80092c6:	a91c      	add	r1, sp, #112	@ 0x70
 80092c8:	eb01 0083 	add.w	r0, r1, r3, lsl #2
 80092cc:	f50d 7988 	add.w	r9, sp, #272	@ 0x110
 80092d0:	2600      	movs	r6, #0
 80092d2:	4556      	cmp	r6, sl
 80092d4:	dc24      	bgt.n	8009320 <__kernel_rem_pio2f+0xac>
 80092d6:	f8dd e004 	ldr.w	lr, [sp, #4]
 80092da:	eddf 7aa4 	vldr	s15, [pc, #656]	@ 800956c <__kernel_rem_pio2f+0x2f8>
 80092de:	4684      	mov	ip, r0
 80092e0:	2400      	movs	r4, #0
 80092e2:	e016      	b.n	8009312 <__kernel_rem_pio2f+0x9e>
 80092e4:	2200      	movs	r2, #0
 80092e6:	e7dc      	b.n	80092a2 <__kernel_rem_pio2f+0x2e>
 80092e8:	42c6      	cmn	r6, r0
 80092ea:	bf5d      	ittte	pl
 80092ec:	f85e 1020 	ldrpl.w	r1, [lr, r0, lsl #2]
 80092f0:	ee07 1a90 	vmovpl	s15, r1
 80092f4:	eef8 7ae7 	vcvtpl.f32.s32	s15, s15
 80092f8:	eef0 7a47 	vmovmi.f32	s15, s14
 80092fc:	ece4 7a01 	vstmia	r4!, {s15}
 8009300:	3001      	adds	r0, #1
 8009302:	e7de      	b.n	80092c2 <__kernel_rem_pio2f+0x4e>
 8009304:	ecfe 6a01 	vldmia	lr!, {s13}
 8009308:	ed3c 7a01 	vldmdb	ip!, {s14}
 800930c:	eee6 7a87 	vfma.f32	s15, s13, s14
 8009310:	3401      	adds	r4, #1
 8009312:	455c      	cmp	r4, fp
 8009314:	ddf6      	ble.n	8009304 <__kernel_rem_pio2f+0x90>
 8009316:	ece9 7a01 	vstmia	r9!, {s15}
 800931a:	3601      	adds	r6, #1
 800931c:	3004      	adds	r0, #4
 800931e:	e7d8      	b.n	80092d2 <__kernel_rem_pio2f+0x5e>
 8009320:	a908      	add	r1, sp, #32
 8009322:	eb01 018a 	add.w	r1, r1, sl, lsl #2
 8009326:	9104      	str	r1, [sp, #16]
 8009328:	9967      	ldr	r1, [sp, #412]	@ 0x19c
 800932a:	eddf 8a8f 	vldr	s17, [pc, #572]	@ 8009568 <__kernel_rem_pio2f+0x2f4>
 800932e:	ed9f 9a8d 	vldr	s18, [pc, #564]	@ 8009564 <__kernel_rem_pio2f+0x2f0>
 8009332:	eb01 0282 	add.w	r2, r1, r2, lsl #2
 8009336:	9203      	str	r2, [sp, #12]
 8009338:	4654      	mov	r4, sl
 800933a:	00a2      	lsls	r2, r4, #2
 800933c:	9205      	str	r2, [sp, #20]
 800933e:	aa58      	add	r2, sp, #352	@ 0x160
 8009340:	eb02 0284 	add.w	r2, r2, r4, lsl #2
 8009344:	ed12 0a14 	vldr	s0, [r2, #-80]	@ 0xffffffb0
 8009348:	a944      	add	r1, sp, #272	@ 0x110
 800934a:	aa08      	add	r2, sp, #32
 800934c:	eb01 0084 	add.w	r0, r1, r4, lsl #2
 8009350:	4694      	mov	ip, r2
 8009352:	4626      	mov	r6, r4
 8009354:	2e00      	cmp	r6, #0
 8009356:	dc4c      	bgt.n	80093f2 <__kernel_rem_pio2f+0x17e>
 8009358:	4628      	mov	r0, r5
 800935a:	e9cd 2306 	strd	r2, r3, [sp, #24]
 800935e:	f000 f9f1 	bl	8009744 <scalbnf>
 8009362:	eeb0 8a40 	vmov.f32	s16, s0
 8009366:	eeb4 0a00 	vmov.f32	s0, #64	@ 0x3e000000  0.125
 800936a:	ee28 0a00 	vmul.f32	s0, s16, s0
 800936e:	f000 fa4f 	bl	8009810 <floorf>
 8009372:	eef2 7a00 	vmov.f32	s15, #32	@ 0x41000000  8.0
 8009376:	eea0 8a67 	vfms.f32	s16, s0, s15
 800937a:	2d00      	cmp	r5, #0
 800937c:	e9dd 2306 	ldrd	r2, r3, [sp, #24]
 8009380:	eefd 7ac8 	vcvt.s32.f32	s15, s16
 8009384:	ee17 9a90 	vmov	r9, s15
 8009388:	eef8 7ae7 	vcvt.f32.s32	s15, s15
 800938c:	ee38 8a67 	vsub.f32	s16, s16, s15
 8009390:	dd41      	ble.n	8009416 <__kernel_rem_pio2f+0x1a2>
 8009392:	f104 3cff 	add.w	ip, r4, #4294967295
 8009396:	a908      	add	r1, sp, #32
 8009398:	f1c5 0e08 	rsb	lr, r5, #8
 800939c:	f851 602c 	ldr.w	r6, [r1, ip, lsl #2]
 80093a0:	fa46 f00e 	asr.w	r0, r6, lr
 80093a4:	4481      	add	r9, r0
 80093a6:	fa00 f00e 	lsl.w	r0, r0, lr
 80093aa:	1a36      	subs	r6, r6, r0
 80093ac:	f1c5 0007 	rsb	r0, r5, #7
 80093b0:	f841 602c 	str.w	r6, [r1, ip, lsl #2]
 80093b4:	4106      	asrs	r6, r0
 80093b6:	2e00      	cmp	r6, #0
 80093b8:	dd3c      	ble.n	8009434 <__kernel_rem_pio2f+0x1c0>
 80093ba:	f04f 0e00 	mov.w	lr, #0
 80093be:	f109 0901 	add.w	r9, r9, #1
 80093c2:	4670      	mov	r0, lr
 80093c4:	4574      	cmp	r4, lr
 80093c6:	dc68      	bgt.n	800949a <__kernel_rem_pio2f+0x226>
 80093c8:	2d00      	cmp	r5, #0
 80093ca:	dd03      	ble.n	80093d4 <__kernel_rem_pio2f+0x160>
 80093cc:	2d01      	cmp	r5, #1
 80093ce:	d074      	beq.n	80094ba <__kernel_rem_pio2f+0x246>
 80093d0:	2d02      	cmp	r5, #2
 80093d2:	d07d      	beq.n	80094d0 <__kernel_rem_pio2f+0x25c>
 80093d4:	2e02      	cmp	r6, #2
 80093d6:	d12d      	bne.n	8009434 <__kernel_rem_pio2f+0x1c0>
 80093d8:	eeb7 0a00 	vmov.f32	s0, #112	@ 0x3f800000  1.0
 80093dc:	ee30 8a48 	vsub.f32	s16, s0, s16
 80093e0:	b340      	cbz	r0, 8009434 <__kernel_rem_pio2f+0x1c0>
 80093e2:	4628      	mov	r0, r5
 80093e4:	9306      	str	r3, [sp, #24]
 80093e6:	f000 f9ad 	bl	8009744 <scalbnf>
 80093ea:	9b06      	ldr	r3, [sp, #24]
 80093ec:	ee38 8a40 	vsub.f32	s16, s16, s0
 80093f0:	e020      	b.n	8009434 <__kernel_rem_pio2f+0x1c0>
 80093f2:	ee60 7a28 	vmul.f32	s15, s0, s17
 80093f6:	3e01      	subs	r6, #1
 80093f8:	eefd 7ae7 	vcvt.s32.f32	s15, s15
 80093fc:	eef8 7ae7 	vcvt.f32.s32	s15, s15
 8009400:	eea7 0ac9 	vfms.f32	s0, s15, s18
 8009404:	eebd 0ac0 	vcvt.s32.f32	s0, s0
 8009408:	ecac 0a01 	vstmia	ip!, {s0}
 800940c:	ed30 0a01 	vldmdb	r0!, {s0}
 8009410:	ee37 0a80 	vadd.f32	s0, s15, s0
 8009414:	e79e      	b.n	8009354 <__kernel_rem_pio2f+0xe0>
 8009416:	d105      	bne.n	8009424 <__kernel_rem_pio2f+0x1b0>
 8009418:	1e60      	subs	r0, r4, #1
 800941a:	a908      	add	r1, sp, #32
 800941c:	f851 6020 	ldr.w	r6, [r1, r0, lsl #2]
 8009420:	11f6      	asrs	r6, r6, #7
 8009422:	e7c8      	b.n	80093b6 <__kernel_rem_pio2f+0x142>
 8009424:	eef6 7a00 	vmov.f32	s15, #96	@ 0x3f000000  0.5
 8009428:	eeb4 8ae7 	vcmpe.f32	s16, s15
 800942c:	eef1 fa10 	vmrs	APSR_nzcv, fpscr
 8009430:	da31      	bge.n	8009496 <__kernel_rem_pio2f+0x222>
 8009432:	2600      	movs	r6, #0
 8009434:	eeb5 8a40 	vcmp.f32	s16, #0.0
 8009438:	eef1 fa10 	vmrs	APSR_nzcv, fpscr
 800943c:	f040 8098 	bne.w	8009570 <__kernel_rem_pio2f+0x2fc>
 8009440:	1e60      	subs	r0, r4, #1
 8009442:	2200      	movs	r2, #0
 8009444:	4550      	cmp	r0, sl
 8009446:	da4b      	bge.n	80094e0 <__kernel_rem_pio2f+0x26c>
 8009448:	2a00      	cmp	r2, #0
 800944a:	d065      	beq.n	8009518 <__kernel_rem_pio2f+0x2a4>
 800944c:	3c01      	subs	r4, #1
 800944e:	ab08      	add	r3, sp, #32
 8009450:	3d08      	subs	r5, #8
 8009452:	f853 3024 	ldr.w	r3, [r3, r4, lsl #2]
 8009456:	2b00      	cmp	r3, #0
 8009458:	d0f8      	beq.n	800944c <__kernel_rem_pio2f+0x1d8>
 800945a:	4628      	mov	r0, r5
 800945c:	eeb7 0a00 	vmov.f32	s0, #112	@ 0x3f800000  1.0
 8009460:	f000 f970 	bl	8009744 <scalbnf>
 8009464:	1c63      	adds	r3, r4, #1
 8009466:	aa44      	add	r2, sp, #272	@ 0x110
 8009468:	ed9f 7a3f 	vldr	s14, [pc, #252]	@ 8009568 <__kernel_rem_pio2f+0x2f4>
 800946c:	0099      	lsls	r1, r3, #2
 800946e:	eb02 0283 	add.w	r2, r2, r3, lsl #2
 8009472:	4623      	mov	r3, r4
 8009474:	2b00      	cmp	r3, #0
 8009476:	f280 80a9 	bge.w	80095cc <__kernel_rem_pio2f+0x358>
 800947a:	4623      	mov	r3, r4
 800947c:	2b00      	cmp	r3, #0
 800947e:	f2c0 80c7 	blt.w	8009610 <__kernel_rem_pio2f+0x39c>
 8009482:	aa44      	add	r2, sp, #272	@ 0x110
 8009484:	eb02 0583 	add.w	r5, r2, r3, lsl #2
 8009488:	f8df c0d4 	ldr.w	ip, [pc, #212]	@ 8009560 <__kernel_rem_pio2f+0x2ec>
 800948c:	eddf 7a37 	vldr	s15, [pc, #220]	@ 800956c <__kernel_rem_pio2f+0x2f8>
 8009490:	2000      	movs	r0, #0
 8009492:	1ae2      	subs	r2, r4, r3
 8009494:	e0b1      	b.n	80095fa <__kernel_rem_pio2f+0x386>
 8009496:	2602      	movs	r6, #2
 8009498:	e78f      	b.n	80093ba <__kernel_rem_pio2f+0x146>
 800949a:	f852 1b04 	ldr.w	r1, [r2], #4
 800949e:	b948      	cbnz	r0, 80094b4 <__kernel_rem_pio2f+0x240>
 80094a0:	b121      	cbz	r1, 80094ac <__kernel_rem_pio2f+0x238>
 80094a2:	f5c1 7180 	rsb	r1, r1, #256	@ 0x100
 80094a6:	f842 1c04 	str.w	r1, [r2, #-4]
 80094aa:	2101      	movs	r1, #1
 80094ac:	f10e 0e01 	add.w	lr, lr, #1
 80094b0:	4608      	mov	r0, r1
 80094b2:	e787      	b.n	80093c4 <__kernel_rem_pio2f+0x150>
 80094b4:	f1c1 01ff 	rsb	r1, r1, #255	@ 0xff
 80094b8:	e7f5      	b.n	80094a6 <__kernel_rem_pio2f+0x232>
 80094ba:	f104 3cff 	add.w	ip, r4, #4294967295
 80094be:	aa08      	add	r2, sp, #32
 80094c0:	f852 202c 	ldr.w	r2, [r2, ip, lsl #2]
 80094c4:	f002 027f 	and.w	r2, r2, #127	@ 0x7f
 80094c8:	a908      	add	r1, sp, #32
 80094ca:	f841 202c 	str.w	r2, [r1, ip, lsl #2]
 80094ce:	e781      	b.n	80093d4 <__kernel_rem_pio2f+0x160>
 80094d0:	f104 3cff 	add.w	ip, r4, #4294967295
 80094d4:	aa08      	add	r2, sp, #32
 80094d6:	f852 202c 	ldr.w	r2, [r2, ip, lsl #2]
 80094da:	f002 023f 	and.w	r2, r2, #63	@ 0x3f
 80094de:	e7f3      	b.n	80094c8 <__kernel_rem_pio2f+0x254>
 80094e0:	a908      	add	r1, sp, #32
 80094e2:	f851 1020 	ldr.w	r1, [r1, r0, lsl #2]
 80094e6:	3801      	subs	r0, #1
 80094e8:	430a      	orrs	r2, r1
 80094ea:	e7ab      	b.n	8009444 <__kernel_rem_pio2f+0x1d0>
 80094ec:	3201      	adds	r2, #1
 80094ee:	f850 6d04 	ldr.w	r6, [r0, #-4]!
 80094f2:	2e00      	cmp	r6, #0
 80094f4:	d0fa      	beq.n	80094ec <__kernel_rem_pio2f+0x278>
 80094f6:	9905      	ldr	r1, [sp, #20]
 80094f8:	f501 71b0 	add.w	r1, r1, #352	@ 0x160
 80094fc:	eb0d 0001 	add.w	r0, sp, r1
 8009500:	18e6      	adds	r6, r4, r3
 8009502:	a91c      	add	r1, sp, #112	@ 0x70
 8009504:	f104 0c01 	add.w	ip, r4, #1
 8009508:	384c      	subs	r0, #76	@ 0x4c
 800950a:	eb01 0686 	add.w	r6, r1, r6, lsl #2
 800950e:	4422      	add	r2, r4
 8009510:	4562      	cmp	r2, ip
 8009512:	da04      	bge.n	800951e <__kernel_rem_pio2f+0x2aa>
 8009514:	4614      	mov	r4, r2
 8009516:	e710      	b.n	800933a <__kernel_rem_pio2f+0xc6>
 8009518:	9804      	ldr	r0, [sp, #16]
 800951a:	2201      	movs	r2, #1
 800951c:	e7e7      	b.n	80094ee <__kernel_rem_pio2f+0x27a>
 800951e:	9903      	ldr	r1, [sp, #12]
 8009520:	f8dd e004 	ldr.w	lr, [sp, #4]
 8009524:	f851 102c 	ldr.w	r1, [r1, ip, lsl #2]
 8009528:	9105      	str	r1, [sp, #20]
 800952a:	ee07 1a90 	vmov	s15, r1
 800952e:	eef8 7ae7 	vcvt.f32.s32	s15, s15
 8009532:	2400      	movs	r4, #0
 8009534:	ece6 7a01 	vstmia	r6!, {s15}
 8009538:	eddf 7a0c 	vldr	s15, [pc, #48]	@ 800956c <__kernel_rem_pio2f+0x2f8>
 800953c:	46b1      	mov	r9, r6
 800953e:	455c      	cmp	r4, fp
 8009540:	dd04      	ble.n	800954c <__kernel_rem_pio2f+0x2d8>
 8009542:	ece0 7a01 	vstmia	r0!, {s15}
 8009546:	f10c 0c01 	add.w	ip, ip, #1
 800954a:	e7e1      	b.n	8009510 <__kernel_rem_pio2f+0x29c>
 800954c:	ecfe 6a01 	vldmia	lr!, {s13}
 8009550:	ed39 7a01 	vldmdb	r9!, {s14}
 8009554:	3401      	adds	r4, #1
 8009556:	eee6 7a87 	vfma.f32	s15, s13, s14
 800955a:	e7f0      	b.n	800953e <__kernel_rem_pio2f+0x2ca>
 800955c:	08009cbc 	.word	0x08009cbc
 8009560:	08009c90 	.word	0x08009c90
 8009564:	43800000 	.word	0x43800000
 8009568:	3b800000 	.word	0x3b800000
 800956c:	00000000 	.word	0x00000000
 8009570:	9b02      	ldr	r3, [sp, #8]
 8009572:	eeb0 0a48 	vmov.f32	s0, s16
 8009576:	eba3 0008 	sub.w	r0, r3, r8
 800957a:	f000 f8e3 	bl	8009744 <scalbnf>
 800957e:	ed1f 7a07 	vldr	s14, [pc, #-28]	@ 8009564 <__kernel_rem_pio2f+0x2f0>
 8009582:	eeb4 0ac7 	vcmpe.f32	s0, s14
 8009586:	eef1 fa10 	vmrs	APSR_nzcv, fpscr
 800958a:	db19      	blt.n	80095c0 <__kernel_rem_pio2f+0x34c>
 800958c:	ed5f 7a0a 	vldr	s15, [pc, #-40]	@ 8009568 <__kernel_rem_pio2f+0x2f4>
 8009590:	ee60 7a27 	vmul.f32	s15, s0, s15
 8009594:	aa08      	add	r2, sp, #32
 8009596:	eefd 7ae7 	vcvt.s32.f32	s15, s15
 800959a:	3508      	adds	r5, #8
 800959c:	eef8 7ae7 	vcvt.f32.s32	s15, s15
 80095a0:	eea7 0ac7 	vfms.f32	s0, s15, s14
 80095a4:	eefd 7ae7 	vcvt.s32.f32	s15, s15
 80095a8:	eebd 0ac0 	vcvt.s32.f32	s0, s0
 80095ac:	ee10 3a10 	vmov	r3, s0
 80095b0:	f842 3024 	str.w	r3, [r2, r4, lsl #2]
 80095b4:	ee17 3a90 	vmov	r3, s15
 80095b8:	3401      	adds	r4, #1
 80095ba:	f842 3024 	str.w	r3, [r2, r4, lsl #2]
 80095be:	e74c      	b.n	800945a <__kernel_rem_pio2f+0x1e6>
 80095c0:	eebd 0ac0 	vcvt.s32.f32	s0, s0
 80095c4:	aa08      	add	r2, sp, #32
 80095c6:	ee10 3a10 	vmov	r3, s0
 80095ca:	e7f6      	b.n	80095ba <__kernel_rem_pio2f+0x346>
 80095cc:	a808      	add	r0, sp, #32
 80095ce:	f850 0023 	ldr.w	r0, [r0, r3, lsl #2]
 80095d2:	9001      	str	r0, [sp, #4]
 80095d4:	ee07 0a90 	vmov	s15, r0
 80095d8:	eef8 7ae7 	vcvt.f32.s32	s15, s15
 80095dc:	3b01      	subs	r3, #1
 80095de:	ee67 7a80 	vmul.f32	s15, s15, s0
 80095e2:	ee20 0a07 	vmul.f32	s0, s0, s14
 80095e6:	ed62 7a01 	vstmdb	r2!, {s15}
 80095ea:	e743      	b.n	8009474 <__kernel_rem_pio2f+0x200>
 80095ec:	ecfc 6a01 	vldmia	ip!, {s13}
 80095f0:	ecb5 7a01 	vldmia	r5!, {s14}
 80095f4:	eee6 7a87 	vfma.f32	s15, s13, s14
 80095f8:	3001      	adds	r0, #1
 80095fa:	4550      	cmp	r0, sl
 80095fc:	dc01      	bgt.n	8009602 <__kernel_rem_pio2f+0x38e>
 80095fe:	4290      	cmp	r0, r2
 8009600:	ddf4      	ble.n	80095ec <__kernel_rem_pio2f+0x378>
 8009602:	a858      	add	r0, sp, #352	@ 0x160
 8009604:	eb00 0282 	add.w	r2, r0, r2, lsl #2
 8009608:	ed42 7a28 	vstr	s15, [r2, #-160]	@ 0xffffff60
 800960c:	3b01      	subs	r3, #1
 800960e:	e735      	b.n	800947c <__kernel_rem_pio2f+0x208>
 8009610:	9b66      	ldr	r3, [sp, #408]	@ 0x198
 8009612:	2b02      	cmp	r3, #2
 8009614:	dc09      	bgt.n	800962a <__kernel_rem_pio2f+0x3b6>
 8009616:	2b00      	cmp	r3, #0
 8009618:	dc27      	bgt.n	800966a <__kernel_rem_pio2f+0x3f6>
 800961a:	d040      	beq.n	800969e <__kernel_rem_pio2f+0x42a>
 800961c:	f009 0007 	and.w	r0, r9, #7
 8009620:	b059      	add	sp, #356	@ 0x164
 8009622:	ecbd 8b04 	vpop	{d8-d9}
 8009626:	e8bd 8ff0 	ldmia.w	sp!, {r4, r5, r6, r7, r8, r9, sl, fp, pc}
 800962a:	9b66      	ldr	r3, [sp, #408]	@ 0x198
 800962c:	2b03      	cmp	r3, #3
 800962e:	d1f5      	bne.n	800961c <__kernel_rem_pio2f+0x3a8>
 8009630:	aa30      	add	r2, sp, #192	@ 0xc0
 8009632:	1f0b      	subs	r3, r1, #4
 8009634:	4413      	add	r3, r2
 8009636:	461a      	mov	r2, r3
 8009638:	4620      	mov	r0, r4
 800963a:	2800      	cmp	r0, #0
 800963c:	dc50      	bgt.n	80096e0 <__kernel_rem_pio2f+0x46c>
 800963e:	4622      	mov	r2, r4
 8009640:	2a01      	cmp	r2, #1
 8009642:	dc5d      	bgt.n	8009700 <__kernel_rem_pio2f+0x48c>
 8009644:	ab30      	add	r3, sp, #192	@ 0xc0
 8009646:	ed5f 7a37 	vldr	s15, [pc, #-220]	@ 800956c <__kernel_rem_pio2f+0x2f8>
 800964a:	440b      	add	r3, r1
 800964c:	2c01      	cmp	r4, #1
 800964e:	dc67      	bgt.n	8009720 <__kernel_rem_pio2f+0x4ac>
 8009650:	eddd 6a30 	vldr	s13, [sp, #192]	@ 0xc0
 8009654:	ed9d 7a31 	vldr	s14, [sp, #196]	@ 0xc4
 8009658:	2e00      	cmp	r6, #0
 800965a:	d167      	bne.n	800972c <__kernel_rem_pio2f+0x4b8>
 800965c:	edc7 6a00 	vstr	s13, [r7]
 8009660:	ed87 7a01 	vstr	s14, [r7, #4]
 8009664:	edc7 7a02 	vstr	s15, [r7, #8]
 8009668:	e7d8      	b.n	800961c <__kernel_rem_pio2f+0x3a8>
 800966a:	ab30      	add	r3, sp, #192	@ 0xc0
 800966c:	ed1f 7a41 	vldr	s14, [pc, #-260]	@ 800956c <__kernel_rem_pio2f+0x2f8>
 8009670:	440b      	add	r3, r1
 8009672:	4622      	mov	r2, r4
 8009674:	2a00      	cmp	r2, #0
 8009676:	da24      	bge.n	80096c2 <__kernel_rem_pio2f+0x44e>
 8009678:	b34e      	cbz	r6, 80096ce <__kernel_rem_pio2f+0x45a>
 800967a:	eef1 7a47 	vneg.f32	s15, s14
 800967e:	edc7 7a00 	vstr	s15, [r7]
 8009682:	eddd 7a30 	vldr	s15, [sp, #192]	@ 0xc0
 8009686:	ee77 7ac7 	vsub.f32	s15, s15, s14
 800968a:	aa31      	add	r2, sp, #196	@ 0xc4
 800968c:	2301      	movs	r3, #1
 800968e:	429c      	cmp	r4, r3
 8009690:	da20      	bge.n	80096d4 <__kernel_rem_pio2f+0x460>
 8009692:	b10e      	cbz	r6, 8009698 <__kernel_rem_pio2f+0x424>
 8009694:	eef1 7a67 	vneg.f32	s15, s15
 8009698:	edc7 7a01 	vstr	s15, [r7, #4]
 800969c:	e7be      	b.n	800961c <__kernel_rem_pio2f+0x3a8>
 800969e:	ab30      	add	r3, sp, #192	@ 0xc0
 80096a0:	ed5f 7a4e 	vldr	s15, [pc, #-312]	@ 800956c <__kernel_rem_pio2f+0x2f8>
 80096a4:	440b      	add	r3, r1
 80096a6:	2c00      	cmp	r4, #0
 80096a8:	da05      	bge.n	80096b6 <__kernel_rem_pio2f+0x442>
 80096aa:	b10e      	cbz	r6, 80096b0 <__kernel_rem_pio2f+0x43c>
 80096ac:	eef1 7a67 	vneg.f32	s15, s15
 80096b0:	edc7 7a00 	vstr	s15, [r7]
 80096b4:	e7b2      	b.n	800961c <__kernel_rem_pio2f+0x3a8>
 80096b6:	ed33 7a01 	vldmdb	r3!, {s14}
 80096ba:	3c01      	subs	r4, #1
 80096bc:	ee77 7a87 	vadd.f32	s15, s15, s14
 80096c0:	e7f1      	b.n	80096a6 <__kernel_rem_pio2f+0x432>
 80096c2:	ed73 7a01 	vldmdb	r3!, {s15}
 80096c6:	3a01      	subs	r2, #1
 80096c8:	ee37 7a27 	vadd.f32	s14, s14, s15
 80096cc:	e7d2      	b.n	8009674 <__kernel_rem_pio2f+0x400>
 80096ce:	eef0 7a47 	vmov.f32	s15, s14
 80096d2:	e7d4      	b.n	800967e <__kernel_rem_pio2f+0x40a>
 80096d4:	ecb2 7a01 	vldmia	r2!, {s14}
 80096d8:	3301      	adds	r3, #1
 80096da:	ee77 7a87 	vadd.f32	s15, s15, s14
 80096de:	e7d6      	b.n	800968e <__kernel_rem_pio2f+0x41a>
 80096e0:	ed72 7a01 	vldmdb	r2!, {s15}
 80096e4:	edd2 6a01 	vldr	s13, [r2, #4]
 80096e8:	ee37 7aa6 	vadd.f32	s14, s15, s13
 80096ec:	3801      	subs	r0, #1
 80096ee:	ee77 7ac7 	vsub.f32	s15, s15, s14
 80096f2:	ed82 7a00 	vstr	s14, [r2]
 80096f6:	ee77 7aa6 	vadd.f32	s15, s15, s13
 80096fa:	edc2 7a01 	vstr	s15, [r2, #4]
 80096fe:	e79c      	b.n	800963a <__kernel_rem_pio2f+0x3c6>
 8009700:	ed73 7a01 	vldmdb	r3!, {s15}
 8009704:	edd3 6a01 	vldr	s13, [r3, #4]
 8009708:	ee37 7aa6 	vadd.f32	s14, s15, s13
 800970c:	3a01      	subs	r2, #1
 800970e:	ee77 7ac7 	vsub.f32	s15, s15, s14
 8009712:	ed83 7a00 	vstr	s14, [r3]
 8009716:	ee77 7aa6 	vadd.f32	s15, s15, s13
 800971a:	edc3 7a01 	vstr	s15, [r3, #4]
 800971e:	e78f      	b.n	8009640 <__kernel_rem_pio2f+0x3cc>
 8009720:	ed33 7a01 	vldmdb	r3!, {s14}
 8009724:	3c01      	subs	r4, #1
 8009726:	ee77 7a87 	vadd.f32	s15, s15, s14
 800972a:	e78f      	b.n	800964c <__kernel_rem_pio2f+0x3d8>
 800972c:	eef1 6a66 	vneg.f32	s13, s13
 8009730:	eeb1 7a47 	vneg.f32	s14, s14
 8009734:	edc7 6a00 	vstr	s13, [r7]
 8009738:	ed87 7a01 	vstr	s14, [r7, #4]
 800973c:	eef1 7a67 	vneg.f32	s15, s15
 8009740:	e790      	b.n	8009664 <__kernel_rem_pio2f+0x3f0>
 8009742:	bf00      	nop

08009744 <scalbnf>:
 8009744:	ee10 3a10 	vmov	r3, s0
 8009748:	f033 4200 	bics.w	r2, r3, #2147483648	@ 0x80000000
 800974c:	d02b      	beq.n	80097a6 <scalbnf+0x62>
 800974e:	f1b2 4fff 	cmp.w	r2, #2139095040	@ 0x7f800000
 8009752:	d302      	bcc.n	800975a <scalbnf+0x16>
 8009754:	ee30 0a00 	vadd.f32	s0, s0, s0
 8009758:	4770      	bx	lr
 800975a:	f013 4fff 	tst.w	r3, #2139095040	@ 0x7f800000
 800975e:	d123      	bne.n	80097a8 <scalbnf+0x64>
 8009760:	4b24      	ldr	r3, [pc, #144]	@ (80097f4 <scalbnf+0xb0>)
 8009762:	eddf 7a25 	vldr	s15, [pc, #148]	@ 80097f8 <scalbnf+0xb4>
 8009766:	4298      	cmp	r0, r3
 8009768:	ee20 0a27 	vmul.f32	s0, s0, s15
 800976c:	db17      	blt.n	800979e <scalbnf+0x5a>
 800976e:	ee10 3a10 	vmov	r3, s0
 8009772:	f3c3 52c7 	ubfx	r2, r3, #23, #8
 8009776:	3a19      	subs	r2, #25
 8009778:	f24c 3150 	movw	r1, #50000	@ 0xc350
 800977c:	4288      	cmp	r0, r1
 800977e:	dd15      	ble.n	80097ac <scalbnf+0x68>
 8009780:	eddf 7a1e 	vldr	s15, [pc, #120]	@ 80097fc <scalbnf+0xb8>
 8009784:	eddf 6a1e 	vldr	s13, [pc, #120]	@ 8009800 <scalbnf+0xbc>
 8009788:	ee10 3a10 	vmov	r3, s0
 800978c:	eeb0 7a67 	vmov.f32	s14, s15
 8009790:	2b00      	cmp	r3, #0
 8009792:	bfb8      	it	lt
 8009794:	eef0 7a66 	vmovlt.f32	s15, s13
 8009798:	ee27 0a87 	vmul.f32	s0, s15, s14
 800979c:	4770      	bx	lr
 800979e:	eddf 7a19 	vldr	s15, [pc, #100]	@ 8009804 <scalbnf+0xc0>
 80097a2:	ee27 0a80 	vmul.f32	s0, s15, s0
 80097a6:	4770      	bx	lr
 80097a8:	0dd2      	lsrs	r2, r2, #23
 80097aa:	e7e5      	b.n	8009778 <scalbnf+0x34>
 80097ac:	4410      	add	r0, r2
 80097ae:	28fe      	cmp	r0, #254	@ 0xfe
 80097b0:	dce6      	bgt.n	8009780 <scalbnf+0x3c>
 80097b2:	2800      	cmp	r0, #0
 80097b4:	dd06      	ble.n	80097c4 <scalbnf+0x80>
 80097b6:	f023 43ff 	bic.w	r3, r3, #2139095040	@ 0x7f800000
 80097ba:	ea43 53c0 	orr.w	r3, r3, r0, lsl #23
 80097be:	ee00 3a10 	vmov	s0, r3
 80097c2:	4770      	bx	lr
 80097c4:	f110 0f16 	cmn.w	r0, #22
 80097c8:	da09      	bge.n	80097de <scalbnf+0x9a>
 80097ca:	eddf 7a0e 	vldr	s15, [pc, #56]	@ 8009804 <scalbnf+0xc0>
 80097ce:	eddf 6a0e 	vldr	s13, [pc, #56]	@ 8009808 <scalbnf+0xc4>
 80097d2:	ee10 3a10 	vmov	r3, s0
 80097d6:	eeb0 7a67 	vmov.f32	s14, s15
 80097da:	2b00      	cmp	r3, #0
 80097dc:	e7d9      	b.n	8009792 <scalbnf+0x4e>
 80097de:	3019      	adds	r0, #25
 80097e0:	f023 43ff 	bic.w	r3, r3, #2139095040	@ 0x7f800000
 80097e4:	ea43 53c0 	orr.w	r3, r3, r0, lsl #23
 80097e8:	ed9f 0a08 	vldr	s0, [pc, #32]	@ 800980c <scalbnf+0xc8>
 80097ec:	ee07 3a90 	vmov	s15, r3
 80097f0:	e7d7      	b.n	80097a2 <scalbnf+0x5e>
 80097f2:	bf00      	nop
 80097f4:	ffff3cb0 	.word	0xffff3cb0
 80097f8:	4c000000 	.word	0x4c000000
 80097fc:	7149f2ca 	.word	0x7149f2ca
 8009800:	f149f2ca 	.word	0xf149f2ca
 8009804:	0da24260 	.word	0x0da24260
 8009808:	8da24260 	.word	0x8da24260
 800980c:	33000000 	.word	0x33000000

08009810 <floorf>:
 8009810:	ee10 3a10 	vmov	r3, s0
 8009814:	f3c3 52c7 	ubfx	r2, r3, #23, #8
 8009818:	3a7f      	subs	r2, #127	@ 0x7f
 800981a:	2a16      	cmp	r2, #22
 800981c:	f023 4100 	bic.w	r1, r3, #2147483648	@ 0x80000000
 8009820:	dc2b      	bgt.n	800987a <floorf+0x6a>
 8009822:	2a00      	cmp	r2, #0
 8009824:	da12      	bge.n	800984c <floorf+0x3c>
 8009826:	eddf 7a19 	vldr	s15, [pc, #100]	@ 800988c <floorf+0x7c>
 800982a:	ee30 0a27 	vadd.f32	s0, s0, s15
 800982e:	eeb5 0ac0 	vcmpe.f32	s0, #0.0
 8009832:	eef1 fa10 	vmrs	APSR_nzcv, fpscr
 8009836:	dd06      	ble.n	8009846 <floorf+0x36>
 8009838:	2b00      	cmp	r3, #0
 800983a:	da24      	bge.n	8009886 <floorf+0x76>
 800983c:	2900      	cmp	r1, #0
 800983e:	4b14      	ldr	r3, [pc, #80]	@ (8009890 <floorf+0x80>)
 8009840:	bf08      	it	eq
 8009842:	f04f 4300 	moveq.w	r3, #2147483648	@ 0x80000000
 8009846:	ee00 3a10 	vmov	s0, r3
 800984a:	4770      	bx	lr
 800984c:	4911      	ldr	r1, [pc, #68]	@ (8009894 <floorf+0x84>)
 800984e:	4111      	asrs	r1, r2
 8009850:	420b      	tst	r3, r1
 8009852:	d0fa      	beq.n	800984a <floorf+0x3a>
 8009854:	eddf 7a0d 	vldr	s15, [pc, #52]	@ 800988c <floorf+0x7c>
 8009858:	ee30 0a27 	vadd.f32	s0, s0, s15
 800985c:	eeb5 0ac0 	vcmpe.f32	s0, #0.0
 8009860:	eef1 fa10 	vmrs	APSR_nzcv, fpscr
 8009864:	ddef      	ble.n	8009846 <floorf+0x36>
 8009866:	2b00      	cmp	r3, #0
 8009868:	bfbe      	ittt	lt
 800986a:	f44f 0000 	movlt.w	r0, #8388608	@ 0x800000
 800986e:	fa40 f202 	asrlt.w	r2, r0, r2
 8009872:	189b      	addlt	r3, r3, r2
 8009874:	ea23 0301 	bic.w	r3, r3, r1
 8009878:	e7e5      	b.n	8009846 <floorf+0x36>
 800987a:	f1b1 4fff 	cmp.w	r1, #2139095040	@ 0x7f800000
 800987e:	d3e4      	bcc.n	800984a <floorf+0x3a>
 8009880:	ee30 0a00 	vadd.f32	s0, s0, s0
 8009884:	4770      	bx	lr
 8009886:	2300      	movs	r3, #0
 8009888:	e7dd      	b.n	8009846 <floorf+0x36>
 800988a:	bf00      	nop
 800988c:	7149f2ca 	.word	0x7149f2ca
 8009890:	bf800000 	.word	0xbf800000
 8009894:	007fffff 	.word	0x007fffff

08009898 <_init>:
 8009898:	b5f8      	push	{r3, r4, r5, r6, r7, lr}
 800989a:	bf00      	nop
 800989c:	bcf8      	pop	{r3, r4, r5, r6, r7}
 800989e:	bc08      	pop	{r3}
 80098a0:	469e      	mov	lr, r3
 80098a2:	4770      	bx	lr

080098a4 <_fini>:
 80098a4:	b5f8      	push	{r3, r4, r5, r6, r7, lr}
 80098a6:	bf00      	nop
 80098a8:	bcf8      	pop	{r3, r4, r5, r6, r7}
 80098aa:	bc08      	pop	{r3}
 80098ac:	469e      	mov	lr, r3
 80098ae:	4770      	bx	lr
